---
triple:          'arm64-apple-darwin'
binary-path:     '/Users/subzero/translit/target/debug/deps/lib_translit.dylib'
relocations:
  - { offset: 0x1E, size: 0x8, addend: 0x0, symName: __ZN4core3fmt9Arguments17from_str_nonconst17h271159406c556450E, symObjAddr: 0x0, symBinAddr: 0x880, symSize: 0x28 }
  - { offset: 0x36A, size: 0x8, addend: 0x0, symName: __ZN4core3fmt9Arguments17from_str_nonconst17h271159406c556450E, symObjAddr: 0x0, symBinAddr: 0x880, symSize: 0x28 }
  - { offset: 0x38D, size: 0x8, addend: 0x0, symName: __ZN4core3fmt9Arguments8from_str17h47129f221b2c1385E, symObjAddr: 0x28, symBinAddr: 0x8A8, symSize: 0x20 }
  - { offset: 0x3CE, size: 0x8, addend: 0x0, symName: __ZN4core4hash11BuildHasher8hash_one17h24cbf4944a9e2716E, symObjAddr: 0x0, symBinAddr: 0x8C8, symSize: 0x84 }
  - { offset: 0x3EA, size: 0x8, addend: 0x0, symName: __ZN4core4hash11BuildHasher8hash_one17h24cbf4944a9e2716E, symObjAddr: 0x0, symBinAddr: 0x8C8, symSize: 0x84 }
  - { offset: 0x44F, size: 0x8, addend: 0x0, symName: __ZN4core4hash11BuildHasher8hash_one17h7b9d3299b9e152dcE, symObjAddr: 0x84, symBinAddr: 0x94C, symSize: 0x84 }
  - { offset: 0x4B4, size: 0x8, addend: 0x0, symName: __ZN4core4hash11BuildHasher8hash_one17h8e6afd18747953b8E, symObjAddr: 0x108, symBinAddr: 0x9D0, symSize: 0x84 }
  - { offset: 0x51F, size: 0x8, addend: 0x0, symName: __ZN4core4hash6Hasher9write_u3217h8b264c0976773bd5E, symObjAddr: 0x18C, symBinAddr: 0xA54, symSize: 0x3C }
  - { offset: 0x8F6, size: 0x8, addend: 0x0, symName: '__ZN4core3ptr9const_ptr33_$LT$impl$u20$$BP$const$u20$T$GT$20offset_from_unsigned18precondition_check17h8014f6cc180efbe9E', symObjAddr: 0x0, symBinAddr: 0xA90, symSize: 0x60 }
  - { offset: 0x91C, size: 0x8, addend: 0x0, symName: '__ZN4core3ptr9const_ptr33_$LT$impl$u20$$BP$const$u20$T$GT$20offset_from_unsigned18precondition_check17h8014f6cc180efbe9E', symObjAddr: 0x0, symBinAddr: 0xA90, symSize: 0x60 }
  - { offset: 0x9DB, size: 0x8, addend: 0x0, symName: __ZN9_translit6tables12hanzi_pinyin12lookup_hanzi17h69bcd48931ad843fE, symObjAddr: 0x0, symBinAddr: 0xAF0, symSize: 0x30 }
  - { offset: 0xA04, size: 0x8, addend: 0x0, symName: __ZN9_translit6tables12hanzi_pinyin12HANZI_PINYIN17h9506d7e9cd8d1db8E, symObjAddr: 0x831C8, symBinAddr: 0x562A50, symSize: 0x0 }
  - { offset: 0xA11, size: 0x8, addend: 0x0, symName: __ZN9_translit6tables12hanzi_pinyin12lookup_hanzi17h69bcd48931ad843fE, symObjAddr: 0x0, symBinAddr: 0xAF0, symSize: 0x30 }
  - { offset: 0xBEA, size: 0x8, addend: 0x0, symName: '__ZN73_$LT$pyo3..types..any..PyAny$u20$as$u20$pyo3..type_object..PyTypeInfo$GT$15type_object_raw17h19f6b5b1b2799bcaE', symObjAddr: 0x0, symBinAddr: 0xB20, symSize: 0x24 }
  - { offset: 0xC51, size: 0x8, addend: 0x0, symName: '__ZN73_$LT$pyo3..types..any..PyAny$u20$as$u20$pyo3..type_object..PyTypeInfo$GT$15type_object_raw17h19f6b5b1b2799bcaE', symObjAddr: 0x0, symBinAddr: 0xB20, symSize: 0x24 }
  - { offset: 0xDCA, size: 0x8, addend: 0x0, symName: __ZN4core4iter6traits8iterator8Iterator9enumerate17h08adddc2c6a565b7E, symObjAddr: 0x0, symBinAddr: 0xB44, symSize: 0x38 }
  - { offset: 0x18D0, size: 0x8, addend: 0x0, symName: __ZN4core4iter6traits8iterator8Iterator9enumerate17h08adddc2c6a565b7E, symObjAddr: 0x0, symBinAddr: 0xB44, symSize: 0x38 }
  - { offset: 0x191D, size: 0x8, addend: 0x0, symName: __ZN4core4iter6traits8iterator8Iterator9enumerate17h243506d3c7b4f32aE, symObjAddr: 0x38, symBinAddr: 0xB7C, symSize: 0x38 }
  - { offset: 0x28B9, size: 0x8, addend: 0x0, symName: '__ZN88_$LT$regex..regex..string..Matches$u20$as$u20$core..iter..traits..iterator..Iterator$GT$4next28_$u7b$$u7b$closure$u7d$$u7d$17h0f053deca49f2c13E', symObjAddr: 0x8E4, symBinAddr: 0x1428, symSize: 0x64 }
  - { offset: 0x2905, size: 0x8, addend: 0x0, symName: '__ZN95_$LT$regex..regex..string..CaptureMatches$u20$as$u20$core..iter..traits..iterator..Iterator$GT$4next28_$u7b$$u7b$closure$u7d$$u7d$17h23982b681c42bcdcE', symObjAddr: 0x948, symBinAddr: 0x148C, symSize: 0x64 }
  - { offset: 0x3A2C, size: 0x8, addend: 0x0, symName: __ZN5regex5regex6string5Regex11replace_all17h9be4b673caf1e377E, symObjAddr: 0x70, symBinAddr: 0xBB4, symSize: 0x4C }
  - { offset: 0x3ACC, size: 0x8, addend: 0x0, symName: __ZN5regex5regex6string5Regex8replacen17h9515bc0fa03dfd3fE, symObjAddr: 0xBC, symBinAddr: 0xC00, symSize: 0x828 }
  - { offset: 0x3CD5, size: 0x8, addend: 0x0, symName: __ZN9_translit9normalize10_normalize17h5beb56c01d247439E, symObjAddr: 0x0, symBinAddr: 0x14F0, symSize: 0x250 }
  - { offset: 0x481D, size: 0x8, addend: 0x0, symName: __ZN9_translit9normalize10_normalize17h5beb56c01d247439E, symObjAddr: 0x0, symBinAddr: 0x14F0, symSize: 0x250 }
  - { offset: 0x48B1, size: 0x8, addend: 0x0, symName: __ZN9_translit9normalize14_is_normalized17h45814ba97449a8c1E, symObjAddr: 0x250, symBinAddr: 0x1740, symSize: 0x1B0 }
  - { offset: 0x4943, size: 0x8, addend: 0x0, symName: __ZN9_translit9normalize16_normalize_batch17he877662fd3add921E, symObjAddr: 0x400, symBinAddr: 0x18F0, symSize: 0x3A0 }
  - { offset: 0x49D0, size: 0x8, addend: 0x0, symName: __ZN9_translit9normalize23__pyfunction__normalize17h0a69d9b9cb18c553E, symObjAddr: 0x7A0, symBinAddr: 0x1C90, symSize: 0x4D0 }
  - { offset: 0x4B5E, size: 0x8, addend: 0x0, symName: __ZN9_translit9normalize27__pyfunction__is_normalized17h11ccb76fee61d0bfE, symObjAddr: 0xC70, symBinAddr: 0x2160, symSize: 0x4D0 }
  - { offset: 0x4CEC, size: 0x8, addend: 0x0, symName: __ZN9_translit9normalize29__pyfunction__normalize_batch17h3d461e47c8d5030eE, symObjAddr: 0x1140, symBinAddr: 0x2630, symSize: 0x510 }
  - { offset: 0x4EB2, size: 0x8, addend: 0x0, symName: '__ZN9_translit9normalize59_$LT$impl$u20$_translit..normalize.._normalize..MakeDef$GT$9_PYO3_DEF10trampoline17hf963c98137462333E', symObjAddr: 0x1650, symBinAddr: 0x2B40, symSize: 0x4C }
  - { offset: 0x4F06, size: 0x8, addend: 0x0, symName: '__ZN9_translit9normalize63_$LT$impl$u20$_translit..normalize.._is_normalized..MakeDef$GT$9_PYO3_DEF10trampoline17h8aa38ba0ee4d94adE', symObjAddr: 0x169C, symBinAddr: 0x2B8C, symSize: 0x4C }
  - { offset: 0x4F5A, size: 0x8, addend: 0x0, symName: '__ZN9_translit9normalize65_$LT$impl$u20$_translit..normalize.._normalize_batch..MakeDef$GT$9_PYO3_DEF10trampoline17h2d8ab65fbb63e615E', symObjAddr: 0x16E8, symBinAddr: 0x2BD8, symSize: 0x4C }
  - { offset: 0x565A, size: 0x8, addend: 0x0, symName: '__ZN63_$LT$I$u20$as$u20$core..iter..traits..collect..IntoIterator$GT$9into_iter17h27b96fd782a67597E', symObjAddr: 0x0, symBinAddr: 0x2C24, symSize: 0x18 }
  - { offset: 0x56E7, size: 0x8, addend: 0x0, symName: '__ZN63_$LT$I$u20$as$u20$core..iter..traits..collect..IntoIterator$GT$9into_iter17h27b96fd782a67597E', symObjAddr: 0x0, symBinAddr: 0x2C24, symSize: 0x18 }
  - { offset: 0x59C9, size: 0x8, addend: 0x0, symName: _PyInit__translit, symObjAddr: 0x0, symBinAddr: 0x2C3C, symSize: 0x34 }
  - { offset: 0x59ED, size: 0x8, addend: 0x0, symName: __ZN9_translit9_translit9_PYO3_DEF17hbb59ac7660b763a8E, symObjAddr: 0xC8, symBinAddr: 0x6DC3F8, symSize: 0x0 }
  - { offset: 0x59FA, size: 0x8, addend: 0x0, symName: _PyInit__translit, symObjAddr: 0x0, symBinAddr: 0x2C3C, symSize: 0x34 }
  - { offset: 0x693B, size: 0x8, addend: 0x0, symName: '__ZN84_$LT$_translit..pipeline.._TextPipeline$u20$as$u20$pyo3..type_object..PyTypeInfo$GT$15type_object_raw17h9bf8be3b64d3c418E', symObjAddr: 0x0, symBinAddr: 0x2C70, symSize: 0x24 }
  - { offset: 0x6969, size: 0x8, addend: 0x0, symName: '__ZN88_$LT$_translit..pipeline.._TextPipeline$u20$as$u20$pyo3..impl_..pyclass..PyClassImpl$GT$10items_iter15INTRINSIC_ITEMS17h640be17f518eb7c6E', symObjAddr: 0x1ED0, symBinAddr: 0x33BBF0, symSize: 0x0 }
  - { offset: 0x6989, size: 0x8, addend: 0x0, symName: '__ZN88_$LT$_translit..pipeline.._TextPipeline$u20$as$u20$pyo3..impl_..pyclass..PyClassImpl$GT$16lazy_type_object11TYPE_OBJECT17hf8a93a00c7ead97eE', symObjAddr: 0x1F98, symBinAddr: 0x6DC488, symSize: 0x0 }
  - { offset: 0x69A9, size: 0x8, addend: 0x0, symName: '__ZN88_$LT$_translit..pipeline.._TextPipeline$u20$as$u20$pyo3..impl_..pyclass..PyClassImpl$GT$3doc3DOC17hee2abb8df40fc75bE', symObjAddr: 0x1FF0, symBinAddr: 0x6DC4E0, symSize: 0x0 }
  - { offset: 0x69B7, size: 0x8, addend: 0x0, symName: '__ZN88_$LT$_translit..pipeline.._TextPipeline$u20$as$u20$pyo3..impl_..pyclass..PyClassImpl$GT$10items_iter17h95e639bc73c62e5cE', symObjAddr: 0x24, symBinAddr: 0x2C94, symSize: 0x38 }
  - { offset: 0x69F2, size: 0x8, addend: 0x0, symName: '__ZN88_$LT$_translit..pipeline.._TextPipeline$u20$as$u20$pyo3..impl_..pyclass..PyClassImpl$GT$16lazy_type_object17hf33cac9ce7db9712E', symObjAddr: 0x5C, symBinAddr: 0x2CCC, symSize: 0xC }
  - { offset: 0x6A0F, size: 0x8, addend: 0x0, symName: '__ZN88_$LT$_translit..pipeline.._TextPipeline$u20$as$u20$pyo3..impl_..pyclass..PyClassImpl$GT$3doc17he43d966286cb1c7dE', symObjAddr: 0x68, symBinAddr: 0x2CD8, symSize: 0x3C }
  - { offset: 0x6C14, size: 0x8, addend: 0x0, symName: '__ZN9_translit8pipeline1_92_$LT$impl$u20$core..ops..bit..BitOrAssign$u20$for$u20$_translit..pipeline..PipelineSteps$GT$12bitor_assign17hb73155f374d26c4bE', symObjAddr: 0x1C64, symBinAddr: 0x48D4, symSize: 0x28 }
  - { offset: 0x6C66, size: 0x8, addend: 0x0, symName: '__ZN9_translit8pipeline188_$LT$impl$u20$pyo3..impl_..pyclass..PyMethods$LT$_translit..pipeline.._TextPipeline$GT$$u20$for$u20$pyo3..impl_..pyclass..PyClassImplCollector$LT$_translit..pipeline.._TextPipeline$GT$$GT$10py_methods5ITEMS17hfe3d13d99a6871dfE', symObjAddr: 0x23A8, symBinAddr: 0x563090, symSize: 0x0 }
  - { offset: 0x6C78, size: 0x8, addend: 0x0, symName: '__ZN9_translit8pipeline188_$LT$impl$u20$pyo3..impl_..pyclass..PyMethods$LT$_translit..pipeline.._TextPipeline$GT$$u20$for$u20$pyo3..impl_..pyclass..PyClassImplCollector$LT$_translit..pipeline.._TextPipeline$GT$$GT$10py_methods5ITEMS10trampoline17h32c9337a7c5b90ccE', symObjAddr: 0x1AE4, symBinAddr: 0x4754, symSize: 0x4C }
  - { offset: 0x6CC0, size: 0x8, addend: 0x0, symName: '__ZN9_translit8pipeline188_$LT$impl$u20$pyo3..impl_..pyclass..PyMethods$LT$_translit..pipeline.._TextPipeline$GT$$u20$for$u20$pyo3..impl_..pyclass..PyClassImplCollector$LT$_translit..pipeline.._TextPipeline$GT$$GT$10py_methods5ITEMS10trampoline17hd8bb76c61ee4fca2E', symObjAddr: 0x1B30, symBinAddr: 0x47A0, symSize: 0x4C }
  - { offset: 0x6D10, size: 0x8, addend: 0x0, symName: '__ZN84_$LT$_translit..pipeline.._TextPipeline$u20$as$u20$pyo3..type_object..PyTypeInfo$GT$15type_object_raw17h9bf8be3b64d3c418E', symObjAddr: 0x0, symBinAddr: 0x2C70, symSize: 0x24 }
  - { offset: 0x8B19, size: 0x8, addend: 0x0, symName: __ZN9_translit8pipeline13_TextPipeline20__pymethod___new____17h672ed312bf4031ccE, symObjAddr: 0xA4, symBinAddr: 0x2D14, symSize: 0xC04 }
  - { offset: 0x8E39, size: 0x8, addend: 0x0, symName: __ZN9_translit8pipeline13_TextPipeline20__pymethod_process__17h7dafca7f85931606E, symObjAddr: 0xCA8, symBinAddr: 0x3918, symSize: 0x454 }
  - { offset: 0x8FDB, size: 0x8, addend: 0x0, symName: __ZN9_translit8pipeline13_TextPipeline3new17hc4e77d4d6adad791E, symObjAddr: 0x10FC, symBinAddr: 0x3D6C, symSize: 0x378 }
  - { offset: 0x911D, size: 0x8, addend: 0x0, symName: __ZN9_translit8pipeline13_TextPipeline7process17hcf3c550dceca52a3E, symObjAddr: 0x1474, symBinAddr: 0x40E4, symSize: 0x670 }
  - { offset: 0x91A7, size: 0x8, addend: 0x0, symName: __ZN9_translit8pipeline1_16InternalBitFlags5empty17hc242c372a3fdf8aeE, symObjAddr: 0x1B7C, symBinAddr: 0x47EC, symSize: 0x8 }
  - { offset: 0x91BA, size: 0x8, addend: 0x0, symName: __ZN9_translit8pipeline1_16InternalBitFlags5union17ha4c3d640c364f38aE, symObjAddr: 0x1B84, symBinAddr: 0x47F4, symSize: 0x18 }
  - { offset: 0x91F9, size: 0x8, addend: 0x0, symName: __ZN9_translit8pipeline1_16InternalBitFlags6insert17hed857bc1c654ffa4E, symObjAddr: 0x1B9C, symBinAddr: 0x480C, symSize: 0x38 }
  - { offset: 0x9238, size: 0x8, addend: 0x0, symName: __ZN9_translit8pipeline1_16InternalBitFlags8contains17hed93eff90b8fccf1E, symObjAddr: 0x1BD4, symBinAddr: 0x4844, symSize: 0x2C }
  - { offset: 0x926A, size: 0x8, addend: 0x0, symName: '__ZN9_translit8pipeline1_52_$LT$impl$u20$_translit..pipeline..PipelineSteps$GT$5empty17hc4438e7fec01569bE', symObjAddr: 0x1C00, symBinAddr: 0x4870, symSize: 0x14 }
  - { offset: 0x928A, size: 0x8, addend: 0x0, symName: '__ZN9_translit8pipeline1_52_$LT$impl$u20$_translit..pipeline..PipelineSteps$GT$6insert17h5dbf03833435c3e3E', symObjAddr: 0x1C14, symBinAddr: 0x4884, symSize: 0x28 }
  - { offset: 0x92C9, size: 0x8, addend: 0x0, symName: '__ZN9_translit8pipeline1_52_$LT$impl$u20$_translit..pipeline..PipelineSteps$GT$8contains17h32e0389623ccf0b3E', symObjAddr: 0x1C3C, symBinAddr: 0x48AC, symSize: 0x28 }
  - { offset: 0x9487, size: 0x8, addend: 0x0, symName: __ZN4core9core_arch10arm_shared4neon9generated18vreinterpret_s8_u817h315001c71b143616E, symObjAddr: 0x0, symBinAddr: 0x48FC, symSize: 0xC }
  - { offset: 0x94AD, size: 0x8, addend: 0x0, symName: __ZN4core9core_arch10arm_shared4neon9generated18vreinterpret_s8_u817h315001c71b143616E, symObjAddr: 0x0, symBinAddr: 0x48FC, symSize: 0xC }
  - { offset: 0x94DB, size: 0x8, addend: 0x0, symName: __ZN4core9core_arch10arm_shared4neon9generated19vreinterpret_u64_u817h8e880c9722c276ddE, symObjAddr: 0xC, symBinAddr: 0x4908, symSize: 0xC }
  - { offset: 0x9509, size: 0x8, addend: 0x0, symName: __ZN4core9core_arch10arm_shared4neon9generated7vceq_u817hd902c5745940b1bbE, symObjAddr: 0x18, symBinAddr: 0x4914, symSize: 0x14 }
  - { offset: 0x9546, size: 0x8, addend: 0x0, symName: __ZN4core9core_arch10arm_shared4neon9generated7vorr_u817h7fa6b52ca24e36e3E, symObjAddr: 0x2C, symBinAddr: 0x4928, symSize: 0x14 }
  - { offset: 0x9583, size: 0x8, addend: 0x0, symName: __ZN4core9core_arch10arm_shared4neon9generated9vdup_n_u817hcd992801c552074dE, symObjAddr: 0x40, symBinAddr: 0x493C, symSize: 0x2C }
  - { offset: 0x96F1, size: 0x8, addend: 0x0, symName: '__ZN14regex_automata4util4pool17Pool$LT$T$C$F$GT$3get17h1ea7b92ee47b52f3E', symObjAddr: 0x0, symBinAddr: 0x4968, symSize: 0x90 }
  - { offset: 0xB1B2, size: 0x8, addend: 0x0, symName: '__ZN14regex_automata4util4pool17Pool$LT$T$C$F$GT$3get17h1ea7b92ee47b52f3E', symObjAddr: 0x0, symBinAddr: 0x4968, symSize: 0x90 }
  - { offset: 0xB204, size: 0x8, addend: 0x0, symName: '__ZN63_$LT$I$u20$as$u20$core..iter..traits..collect..IntoIterator$GT$9into_iter17h753006c06906c047E', symObjAddr: 0x0, symBinAddr: 0x49F8, symSize: 0x18 }
  - { offset: 0xB22A, size: 0x8, addend: 0x0, symName: '__ZN63_$LT$I$u20$as$u20$core..iter..traits..collect..IntoIterator$GT$9into_iter17h753006c06906c047E', symObjAddr: 0x0, symBinAddr: 0x49F8, symSize: 0x18 }
  - { offset: 0xB273, size: 0x8, addend: 0x0, symName: '__ZN98_$LT$core..iter..adapters..rev..Rev$LT$I$GT$$u20$as$u20$core..iter..traits..iterator..Iterator$GT$4next17hc357b80b9487570aE', symObjAddr: 0x18, symBinAddr: 0x4A10, symSize: 0x24 }
  - { offset: 0xB3B5, size: 0x8, addend: 0x0, symName: __ZN4pyo311type_object10PyTypeInfo10is_type_of17hcdc457781ae6e34cE, symObjAddr: 0x0, symBinAddr: 0x4A34, symSize: 0x50 }
  - { offset: 0xB438, size: 0x8, addend: 0x0, symName: __ZN4pyo311type_object10PyTypeInfo10is_type_of17hcdc457781ae6e34cE, symObjAddr: 0x0, symBinAddr: 0x4A34, symSize: 0x50 }
  - { offset: 0xB473, size: 0x8, addend: 0x0, symName: '__ZN52_$LT$T$u20$as$u20$pyo3..type_object..PyTypeCheck$GT$10type_check17h79601fb41dc1db73E', symObjAddr: 0xE0, symBinAddr: 0x4B14, symSize: 0x24 }
  - { offset: 0xB4B4, size: 0x8, addend: 0x0, symName: '__ZN4pyo312pyclass_init130_$LT$impl$u20$pyo3..impl_..callback..IntoPyCallbackOutput$LT$pyo3..pyclass_init..PyClassInitializer$LT$T$GT$$GT$$u20$for$u20$U$GT$7convert17hb2f67715b18add29E', symObjAddr: 0x50, symBinAddr: 0x4A84, symSize: 0x6C }
  - { offset: 0xB5BF, size: 0x8, addend: 0x0, symName: __ZN4pyo35impl_7pyclass11PyClassImpl11dict_offset17hef763b7d1ac86055E, symObjAddr: 0xBC, symBinAddr: 0x4AF0, symSize: 0x8 }
  - { offset: 0xB5E6, size: 0x8, addend: 0x0, symName: __ZN4pyo35impl_7pyclass11PyClassImpl15weaklist_offset17h5906e02ca6cdea00E, symObjAddr: 0xC4, symBinAddr: 0x4AF8, symSize: 0x8 }
  - { offset: 0xB936, size: 0x8, addend: 0x0, symName: '__ZN50_$LT$T$u20$as$u20$core..convert..Into$LT$U$GT$$GT$4into17hed9a243962955596E', symObjAddr: 0xCC, symBinAddr: 0x4B00, symSize: 0x14 }
  - { offset: 0xBFD1, size: 0x8, addend: 0x0, symName: '__ZN88_$LT$_translit..pipeline.._TextPipeline$u20$as$u20$pyo3..impl_..pyclass..PyClassImpl$GT$3doc28_$u7b$$u7b$closure$u7d$$u7d$17he54b90f4bd9bbec3E', symObjAddr: 0x104, symBinAddr: 0x4B38, symSize: 0x54 }
  - { offset: 0xC029, size: 0x8, addend: 0x0, symName: '__ZN9_translit8pipeline13_TextPipeline20__pymethod___new____28_$u7b$$u7b$closure$u7d$$u7d$17h05f61bff1b9508e6E', symObjAddr: 0x158, symBinAddr: 0x4B8C, symSize: 0x18 }
  - { offset: 0xC051, size: 0x8, addend: 0x0, symName: '__ZN9_translit8pipeline13_TextPipeline20__pymethod___new____28_$u7b$$u7b$closure$u7d$$u7d$17h20aa053b19e9cac7E', symObjAddr: 0x170, symBinAddr: 0x4BA4, symSize: 0x18 }
  - { offset: 0xC079, size: 0x8, addend: 0x0, symName: '__ZN9_translit8pipeline13_TextPipeline20__pymethod___new____28_$u7b$$u7b$closure$u7d$$u7d$17h3fe4d439f0b9fc73E', symObjAddr: 0x188, symBinAddr: 0x4BBC, symSize: 0x18 }
  - { offset: 0xC0A1, size: 0x8, addend: 0x0, symName: '__ZN9_translit8pipeline13_TextPipeline20__pymethod___new____28_$u7b$$u7b$closure$u7d$$u7d$17h4633919af9ac9700E', symObjAddr: 0x1A0, symBinAddr: 0x4BD4, symSize: 0x18 }
  - { offset: 0xC0C9, size: 0x8, addend: 0x0, symName: '__ZN9_translit8pipeline13_TextPipeline20__pymethod___new____28_$u7b$$u7b$closure$u7d$$u7d$17h561fcae08a7c6badE', symObjAddr: 0x1B8, symBinAddr: 0x4BEC, symSize: 0x18 }
  - { offset: 0xC0F1, size: 0x8, addend: 0x0, symName: '__ZN9_translit8pipeline13_TextPipeline20__pymethod___new____28_$u7b$$u7b$closure$u7d$$u7d$17h8748c5ed89254909E', symObjAddr: 0x1D0, symBinAddr: 0x4C04, symSize: 0x18 }
  - { offset: 0xC119, size: 0x8, addend: 0x0, symName: '__ZN9_translit8pipeline13_TextPipeline20__pymethod___new____28_$u7b$$u7b$closure$u7d$$u7d$17h8be3059808832df2E', symObjAddr: 0x1E8, symBinAddr: 0x4C1C, symSize: 0x18 }
  - { offset: 0xC141, size: 0x8, addend: 0x0, symName: '__ZN9_translit8pipeline13_TextPipeline20__pymethod___new____28_$u7b$$u7b$closure$u7d$$u7d$17h9953a83cc8583464E', symObjAddr: 0x200, symBinAddr: 0x4C34, symSize: 0x18 }
  - { offset: 0xC169, size: 0x8, addend: 0x0, symName: '__ZN9_translit8pipeline13_TextPipeline20__pymethod___new____28_$u7b$$u7b$closure$u7d$$u7d$17ha2673a6a4a26e407E', symObjAddr: 0x218, symBinAddr: 0x4C4C, symSize: 0x18 }
  - { offset: 0xC191, size: 0x8, addend: 0x0, symName: '__ZN9_translit8pipeline13_TextPipeline20__pymethod___new____28_$u7b$$u7b$closure$u7d$$u7d$17hdba934ca9aebcc01E', symObjAddr: 0x230, symBinAddr: 0x4C64, symSize: 0x24 }
  - { offset: 0xC1B9, size: 0x8, addend: 0x0, symName: '__ZN9_translit8pipeline13_TextPipeline20__pymethod___new____28_$u7b$$u7b$closure$u7d$$u7d$17heea85183820b8b66E', symObjAddr: 0x254, symBinAddr: 0x4C88, symSize: 0x24 }
  - { offset: 0xC23A, size: 0x8, addend: 0x0, symName: '__ZN9_translit8pipeline13_TextPipeline3new28_$u7b$$u7b$closure$u7d$$u7d$17hd08a20303b0b752fE', symObjAddr: 0x278, symBinAddr: 0x4CAC, symSize: 0x28 }
  - { offset: 0xC270, size: 0x8, addend: 0x0, symName: '__ZN9_translit8pipeline13_TextPipeline3new28_$u7b$$u7b$closure$u7d$$u7d$17he9c1dded9d9b4aa0E', symObjAddr: 0x2A0, symBinAddr: 0x4CD4, symSize: 0x28 }
  - { offset: 0xC863, size: 0x8, addend: 0x0, symName: '__ZN103_$LT$alloc..vec..into_iter..IntoIter$LT$T$C$A$GT$$u20$as$u20$core..iter..traits..iterator..Iterator$GT$4fold17h998ce412ca530e41E', symObjAddr: 0x0, symBinAddr: 0x4CFC, symSize: 0x10C }
  - { offset: 0xD5DE, size: 0x8, addend: 0x0, symName: __ZN4core4iter6traits10exact_size17ExactSizeIterator3len17h19d435924aab24b8E, symObjAddr: 0x644, symBinAddr: 0x5340, symSize: 0xB8 }
  - { offset: 0xD6AA, size: 0x8, addend: 0x0, symName: __ZN4core4iter6traits10exact_size17ExactSizeIterator3len17h7cd8372d1846753cE, symObjAddr: 0x6FC, symBinAddr: 0x53F8, symSize: 0xB8 }
  - { offset: 0xD8A0, size: 0x8, addend: 0x0, symName: __ZN4core4iter6traits8iterator8Iterator3map17h5a9bd6d279945d19E, symObjAddr: 0x7B4, symBinAddr: 0x54B0, symSize: 0x28 }
  - { offset: 0xD90D, size: 0x8, addend: 0x0, symName: __ZN4core4iter6traits8iterator8Iterator3map17h87f641e792911a76E, symObjAddr: 0x7DC, symBinAddr: 0x54D8, symSize: 0x1C }
  - { offset: 0xD97A, size: 0x8, addend: 0x0, symName: __ZN4core4iter6traits8iterator8Iterator3map17hf8a44e5990f68eeeE, symObjAddr: 0x7F8, symBinAddr: 0x54F4, symSize: 0x28 }
  - { offset: 0xE042, size: 0x8, addend: 0x0, symName: '__ZN103_$LT$alloc..vec..into_iter..IntoIter$LT$T$C$A$GT$$u20$as$u20$core..iter..traits..iterator..Iterator$GT$4fold17h998ce412ca530e41E', symObjAddr: 0x0, symBinAddr: 0x4CFC, symSize: 0x10C }
  - { offset: 0xE1F1, size: 0x8, addend: 0x0, symName: '__ZN103_$LT$alloc..vec..into_iter..IntoIter$LT$T$C$A$GT$$u20$as$u20$core..iter..traits..iterator..Iterator$GT$4next17h5e07d33b84b04021E', symObjAddr: 0x10C, symBinAddr: 0x4E08, symSize: 0xAC }
  - { offset: 0xE34F, size: 0x8, addend: 0x0, symName: '__ZN103_$LT$alloc..vec..into_iter..IntoIter$LT$T$C$A$GT$$u20$as$u20$core..iter..traits..iterator..Iterator$GT$4next17h8bf66b2757730315E', symObjAddr: 0x1B8, symBinAddr: 0x4EB4, symSize: 0x94 }
  - { offset: 0xE4A9, size: 0x8, addend: 0x0, symName: '__ZN103_$LT$alloc..vec..into_iter..IntoIter$LT$T$C$A$GT$$u20$as$u20$core..iter..traits..iterator..Iterator$GT$8try_fold17h8d050b1ef3845823E', symObjAddr: 0x24C, symBinAddr: 0x4F48, symSize: 0x1A4 }
  - { offset: 0xE689, size: 0x8, addend: 0x0, symName: '__ZN103_$LT$alloc..vec..into_iter..IntoIter$LT$T$C$A$GT$$u20$as$u20$core..iter..traits..iterator..Iterator$GT$8try_fold17hffc410b8eeb86df6E', symObjAddr: 0x3F0, symBinAddr: 0x50EC, symSize: 0x19C }
  - { offset: 0xE869, size: 0x8, addend: 0x0, symName: '__ZN103_$LT$alloc..vec..into_iter..IntoIter$LT$T$C$A$GT$$u20$as$u20$core..iter..traits..iterator..Iterator$GT$9size_hint17h1cf71499590bd00bE', symObjAddr: 0x58C, symBinAddr: 0x5288, symSize: 0x5C }
  - { offset: 0xE8C4, size: 0x8, addend: 0x0, symName: '__ZN103_$LT$alloc..vec..into_iter..IntoIter$LT$T$C$A$GT$$u20$as$u20$core..iter..traits..iterator..Iterator$GT$9size_hint17hcd045cbb899977f9E', symObjAddr: 0x5E8, symBinAddr: 0x52E4, symSize: 0x5C }
  - { offset: 0xF16A, size: 0x8, addend: 0x0, symName: '__ZN5alloc3vec9into_iter21IntoIter$LT$T$C$A$GT$16as_raw_mut_slice17h2ce01f8d72f36281E', symObjAddr: 0x820, symBinAddr: 0x551C, symSize: 0xCC }
  - { offset: 0xF324, size: 0x8, addend: 0x0, symName: '__ZN5alloc3vec9into_iter21IntoIter$LT$T$C$A$GT$16as_raw_mut_slice17hf22bf4095ebb27adE', symObjAddr: 0x8EC, symBinAddr: 0x55E8, symSize: 0xCC }
  - { offset: 0xF70F, size: 0x8, addend: 0x0, symName: '__ZN125_$LT$$RF$mut$u20$core..array..drain..Drain$LT$T$C$_$C$F$GT$$u20$as$u20$core..ops..function..FnMut$LT$$LP$usize$C$$RP$$GT$$GT$8call_mut17h0abd2a06ab837262E', symObjAddr: 0x0, symBinAddr: 0x56B4, symSize: 0x58 }
  - { offset: 0xF77E, size: 0x8, addend: 0x0, symName: '__ZN125_$LT$$RF$mut$u20$core..array..drain..Drain$LT$T$C$_$C$F$GT$$u20$as$u20$core..ops..function..FnMut$LT$$LP$usize$C$$RP$$GT$$GT$8call_mut17h0abd2a06ab837262E', symObjAddr: 0x0, symBinAddr: 0x56B4, symSize: 0x58 }
  - { offset: 0xF806, size: 0x8, addend: 0x0, symName: '__ZN125_$LT$$RF$mut$u20$core..array..drain..Drain$LT$T$C$_$C$F$GT$$u20$as$u20$core..ops..function..FnMut$LT$$LP$usize$C$$RP$$GT$$GT$8call_mut17h14c3287ff27e1d04E', symObjAddr: 0x58, symBinAddr: 0x570C, symSize: 0x60 }
  - { offset: 0xFBD2, size: 0x8, addend: 0x0, symName: '__ZN4core3str6traits108_$LT$impl$u20$core..slice..index..SliceIndex$LT$str$GT$$u20$for$u20$core..ops..range..Range$LT$usize$GT$$GT$13get_unchecked18precondition_check17heba07c2d15abab75E', symObjAddr: 0x0, symBinAddr: 0x576C, symSize: 0x80 }
  - { offset: 0xFBF8, size: 0x8, addend: 0x0, symName: '__ZN4core3str6traits108_$LT$impl$u20$core..slice..index..SliceIndex$LT$str$GT$$u20$for$u20$core..ops..range..Range$LT$usize$GT$$GT$13get_unchecked18precondition_check17heba07c2d15abab75E', symObjAddr: 0x0, symBinAddr: 0x576C, symSize: 0x80 }
  - { offset: 0xFC60, size: 0x8, addend: 0x0, symName: '__ZN4core3str6traits54_$LT$impl$u20$core..cmp..PartialEq$u20$for$u20$str$GT$2eq17h289bb32f6b020cceE', symObjAddr: 0x80, symBinAddr: 0x57EC, symSize: 0xA0 }
  - { offset: 0xFF2B, size: 0x8, addend: 0x0, symName: '__ZN9_translit5emoji12set_provider28_$u7b$$u7b$closure$u7d$$u7d$17had76a4a6a8a0c1d7E', symObjAddr: 0x0, symBinAddr: 0x588C, symSize: 0x2C }
  - { offset: 0xFFAE, size: 0x8, addend: 0x0, symName: '__ZN9_translit5emoji12set_provider28_$u7b$$u7b$closure$u7d$$u7d$17had76a4a6a8a0c1d7E', symObjAddr: 0x0, symBinAddr: 0x588C, symSize: 0x2C }
  - { offset: 0xFFF1, size: 0x8, addend: 0x0, symName: '__ZN9_translit5emoji15GLOBAL_PROVIDER28_$u7b$$u7b$closure$u7d$$u7d$17h4943754558552badE', symObjAddr: 0x2C, symBinAddr: 0x58B8, symSize: 0x24 }
  - { offset: 0x10026, size: 0x8, addend: 0x0, symName: '__ZN9_translit5emoji19try_python_provider28_$u7b$$u7b$closure$u7d$$u7d$17hf4ecf131621e8fdbE', symObjAddr: 0x50, symBinAddr: 0x58DC, symSize: 0x1C }
  - { offset: 0x10069, size: 0x8, addend: 0x0, symName: '__ZN9_translit5emoji22__pyfunction__demojize28_$u7b$$u7b$closure$u7d$$u7d$17h0a9dfea2a5c163dfE', symObjAddr: 0x6C, symBinAddr: 0x58F8, symSize: 0x20 }
  - { offset: 0x10092, size: 0x8, addend: 0x0, symName: '__ZN9_translit5emoji22__pyfunction__demojize28_$u7b$$u7b$closure$u7d$$u7d$17h5257f9d96bba557eE', symObjAddr: 0x8C, symBinAddr: 0x5918, symSize: 0x18 }
  - { offset: 0x100BA, size: 0x8, addend: 0x0, symName: '__ZN9_translit5emoji22__pyfunction__demojize28_$u7b$$u7b$closure$u7d$$u7d$17hb85e6296bcf28558E', symObjAddr: 0xA4, symBinAddr: 0x5930, symSize: 0x20 }
  - { offset: 0x100E3, size: 0x8, addend: 0x0, symName: '__ZN9_translit5emoji22__pyfunction__demojize28_$u7b$$u7b$closure$u7d$$u7d$17hdfd2f439b8213b64E', symObjAddr: 0xC4, symBinAddr: 0x5950, symSize: 0x24 }
  - { offset: 0x1012D, size: 0x8, addend: 0x0, symName: '__ZN9_translit5emoji32__pyfunction__set_emoji_provider28_$u7b$$u7b$closure$u7d$$u7d$17heb66adb06c286f76E', symObjAddr: 0xE8, symBinAddr: 0x5974, symSize: 0x24 }
  - { offset: 0x10164, size: 0x8, addend: 0x0, symName: '__ZN9_translit5emoji9_demojize28_$u7b$$u7b$closure$u7d$$u7d$17h536e99167475bb80E', symObjAddr: 0x10C, symBinAddr: 0x5998, symSize: 0x2C }
  - { offset: 0x1019D, size: 0x8, addend: 0x0, symName: '__ZN9_translit5emoji9_demojize28_$u7b$$u7b$closure$u7d$$u7d$17hf333df6de86506d3E', symObjAddr: 0x138, symBinAddr: 0x59C4, symSize: 0x30 }
  - { offset: 0x1075E, size: 0x8, addend: 0x0, symName: '__ZN4core5slice29_$LT$impl$u20$$u5b$T$u5d$$GT$18split_at_unchecked18precondition_check17haf492a4854c9d647E', symObjAddr: 0x0, symBinAddr: 0x59F4, symSize: 0x60 }
  - { offset: 0x1077F, size: 0x8, addend: 0x0, symName: '__ZN4core5slice29_$LT$impl$u20$$u5b$T$u5d$$GT$18split_at_unchecked18precondition_check17haf492a4854c9d647E', symObjAddr: 0x0, symBinAddr: 0x59F4, symSize: 0x60 }
  - { offset: 0x107D8, size: 0x8, addend: 0x0, symName: '__ZN4core5slice29_$LT$impl$u20$$u5b$T$u5d$$GT$22split_at_mut_unchecked18precondition_check17h3312813146d18bc6E', symObjAddr: 0x60, symBinAddr: 0x5A54, symSize: 0x60 }
  - { offset: 0x10882, size: 0x8, addend: 0x0, symName: __ZN4pyo33err5PyErr10from_state17hd77c11fbad1ea2faE, symObjAddr: 0x0, symBinAddr: 0x5AB4, symSize: 0x30 }
  - { offset: 0x11204, size: 0x8, addend: 0x0, symName: __ZN4pyo33err5PyErr10from_state17hd77c11fbad1ea2faE, symObjAddr: 0x0, symBinAddr: 0x5AB4, symSize: 0x30 }
  - { offset: 0x1126D, size: 0x8, addend: 0x0, symName: __ZN4pyo33err5PyErr16write_unraisable17he6b9eda256e97ab3E, symObjAddr: 0x30, symBinAddr: 0x5AE4, symSize: 0x58 }
  - { offset: 0x112BB, size: 0x8, addend: 0x0, symName: __ZN4pyo33err5PyErr7restore17hd668f7fe90da8152E, symObjAddr: 0x88, symBinAddr: 0x5B3C, symSize: 0x38 }
  - { offset: 0x11318, size: 0x8, addend: 0x0, symName: __ZN4core3cmp10PartialOrd2lt17h717d88243c80424dE, symObjAddr: 0x0, symBinAddr: 0x5B74, symSize: 0x70 }
  - { offset: 0x11368, size: 0x8, addend: 0x0, symName: __ZN4core3cmp10PartialOrd2lt17h717d88243c80424dE, symObjAddr: 0x0, symBinAddr: 0x5B74, symSize: 0x70 }
  - { offset: 0x11D32, size: 0x8, addend: 0x0, symName: '__ZN4core4hash5impls52_$LT$impl$u20$core..hash..Hash$u20$for$u20$$RF$T$GT$4hash17had5efe5235df6a57E', symObjAddr: 0x70, symBinAddr: 0x5BE4, symSize: 0x30 }
  - { offset: 0x11EB4, size: 0x8, addend: 0x0, symName: '__ZN4core5slice29_$LT$impl$u20$$u5b$T$u5d$$GT$12split_at_mut17h616bb19728b5342aE', symObjAddr: 0xA0, symBinAddr: 0x5C14, symSize: 0xAC }
  - { offset: 0x11F3F, size: 0x8, addend: 0x0, symName: '__ZN4core5slice29_$LT$impl$u20$$u5b$T$u5d$$GT$22split_at_mut_unchecked17hd25f81969d5cc2e4E', symObjAddr: 0x14C, symBinAddr: 0x5CC0, symSize: 0x104 }
  - { offset: 0x120E1, size: 0x8, addend: 0x0, symName: '__ZN4core5slice29_$LT$impl$u20$$u5b$T$u5d$$GT$7reverse17h95b4a7f0c8ea78caE', symObjAddr: 0x250, symBinAddr: 0x5DC4, symSize: 0x118 }
  - { offset: 0x12271, size: 0x8, addend: 0x0, symName: '__ZN4core5slice29_$LT$impl$u20$$u5b$T$u5d$$GT$8contains17h248058b786d58b7aE', symObjAddr: 0x368, symBinAddr: 0x5EDC, symSize: 0x48 }
  - { offset: 0x1245A, size: 0x8, addend: 0x0, symName: '__ZN4core5slice4iter87_$LT$impl$u20$core..iter..traits..collect..IntoIterator$u20$for$u20$$RF$$u5b$T$u5d$$GT$9into_iter17h71222be6d2ce84b4E', symObjAddr: 0x3B0, symBinAddr: 0x5F24, symSize: 0x58 }
  - { offset: 0x125D9, size: 0x8, addend: 0x0, symName: '__ZN53_$LT$T$u20$as$u20$core..slice..cmp..SliceContains$GT$14slice_contains17h3d85a360559cd3b0E', symObjAddr: 0x10E0, symBinAddr: 0x6C54, symSize: 0x80 }
  - { offset: 0x1273B, size: 0x8, addend: 0x0, symName: '__ZN68_$LT$T$u20$as$u20$core..slice..sort..stable..quicksort..IsFreeze$GT$9is_freeze17hff85d8c1a2defb52E', symObjAddr: 0x1278, symBinAddr: 0x6DEC, symSize: 0xC }
  - { offset: 0x12903, size: 0x8, addend: 0x0, symName: '__ZN51_$LT$T$u20$as$u20$core..borrow..Borrow$LT$T$GT$$GT$6borrow17hdaec989d3394e3f1E', symObjAddr: 0x108C, symBinAddr: 0x6C00, symSize: 0x14 }
  - { offset: 0x1341B, size: 0x8, addend: 0x0, symName: '__ZN58_$LT$alloc..string..String$u20$as$u20$core..hash..Hash$GT$4hash17hf62dabd2d432ed6cE', symObjAddr: 0x11C8, symBinAddr: 0x6D3C, symSize: 0x88 }
  - { offset: 0x135C9, size: 0x8, addend: 0x0, symName: '__ZN74_$LT$alloc..string..String$u20$as$u20$core..ops..index..Index$LT$I$GT$$GT$5index17h62c5b41cd06eb568E', symObjAddr: 0x1284, symBinAddr: 0x6DF8, symSize: 0x88 }
  - { offset: 0x13713, size: 0x8, addend: 0x0, symName: '__ZN74_$LT$alloc..string..String$u20$as$u20$core..ops..index..Index$LT$I$GT$$GT$5index17hb212294f37434c70E', symObjAddr: 0x130C, symBinAddr: 0x6E80, symSize: 0x88 }
  - { offset: 0x13863, size: 0x8, addend: 0x0, symName: '__ZN89_$LT$alloc..string..String$u20$as$u20$core..iter..traits..collect..Extend$LT$char$GT$$GT$6extend17h45eca544d4850c54E', symObjAddr: 0x1394, symBinAddr: 0x6F08, symSize: 0xB8 }
  - { offset: 0x138FF, size: 0x8, addend: 0x0, symName: '__ZN89_$LT$alloc..string..String$u20$as$u20$core..iter..traits..collect..Extend$LT$char$GT$$GT$6extend17h4d4d044334479487E', symObjAddr: 0x144C, symBinAddr: 0x6FC0, symSize: 0xC8 }
  - { offset: 0x1399C, size: 0x8, addend: 0x0, symName: '__ZN89_$LT$alloc..string..String$u20$as$u20$core..iter..traits..collect..Extend$LT$char$GT$$GT$6extend17h5f7661c476d03859E', symObjAddr: 0x1514, symBinAddr: 0x7088, symSize: 0xC8 }
  - { offset: 0x13A39, size: 0x8, addend: 0x0, symName: '__ZN89_$LT$alloc..string..String$u20$as$u20$core..iter..traits..collect..Extend$LT$char$GT$$GT$6extend17h6bc337e2897c44ccE', symObjAddr: 0x15DC, symBinAddr: 0x7150, symSize: 0xC8 }
  - { offset: 0x13AD6, size: 0x8, addend: 0x0, symName: '__ZN89_$LT$alloc..string..String$u20$as$u20$core..iter..traits..collect..Extend$LT$char$GT$$GT$6extend17h7bf120d29abc6c19E', symObjAddr: 0x16A4, symBinAddr: 0x7218, symSize: 0xC8 }
  - { offset: 0x13B78, size: 0x8, addend: 0x0, symName: '__ZN89_$LT$alloc..string..String$u20$as$u20$core..iter..traits..collect..Extend$LT$char$GT$$GT$6extend28_$u7b$$u7b$closure$u7d$$u7d$17h0158e859a90d8139E', symObjAddr: 0x176C, symBinAddr: 0x72E0, symSize: 0x2C }
  - { offset: 0x13BBC, size: 0x8, addend: 0x0, symName: '__ZN89_$LT$alloc..string..String$u20$as$u20$core..iter..traits..collect..Extend$LT$char$GT$$GT$6extend28_$u7b$$u7b$closure$u7d$$u7d$17h4bb0627da4415134E', symObjAddr: 0x1798, symBinAddr: 0x730C, symSize: 0x2C }
  - { offset: 0x13C00, size: 0x8, addend: 0x0, symName: '__ZN89_$LT$alloc..string..String$u20$as$u20$core..iter..traits..collect..Extend$LT$char$GT$$GT$6extend28_$u7b$$u7b$closure$u7d$$u7d$17ha09e4cd23bde4ffdE', symObjAddr: 0x17C4, symBinAddr: 0x7338, symSize: 0x2C }
  - { offset: 0x13C44, size: 0x8, addend: 0x0, symName: '__ZN89_$LT$alloc..string..String$u20$as$u20$core..iter..traits..collect..Extend$LT$char$GT$$GT$6extend28_$u7b$$u7b$closure$u7d$$u7d$17ha5403ed802de7be8E', symObjAddr: 0x17F0, symBinAddr: 0x7364, symSize: 0x2C }
  - { offset: 0x13C88, size: 0x8, addend: 0x0, symName: '__ZN89_$LT$alloc..string..String$u20$as$u20$core..iter..traits..collect..Extend$LT$char$GT$$GT$6extend28_$u7b$$u7b$closure$u7d$$u7d$17he9fab48006f68c52E', symObjAddr: 0x181C, symBinAddr: 0x7390, symSize: 0x2C }
  - { offset: 0x13CD3, size: 0x8, addend: 0x0, symName: '__ZN95_$LT$alloc..string..String$u20$as$u20$core..iter..traits..collect..FromIterator$LT$char$GT$$GT$9from_iter17h2169554e871a4edeE', symObjAddr: 0x1848, symBinAddr: 0x73BC, symSize: 0x88 }
  - { offset: 0x13D4C, size: 0x8, addend: 0x0, symName: '__ZN95_$LT$alloc..string..String$u20$as$u20$core..iter..traits..collect..FromIterator$LT$char$GT$$GT$9from_iter17h55e41a9b0f0b942bE', symObjAddr: 0x18D0, symBinAddr: 0x7444, symSize: 0x88 }
  - { offset: 0x13DC5, size: 0x8, addend: 0x0, symName: '__ZN95_$LT$alloc..string..String$u20$as$u20$core..iter..traits..collect..FromIterator$LT$char$GT$$GT$9from_iter17h82ba0a882064a132E', symObjAddr: 0x1958, symBinAddr: 0x74CC, symSize: 0x88 }
  - { offset: 0x13E3E, size: 0x8, addend: 0x0, symName: '__ZN95_$LT$alloc..string..String$u20$as$u20$core..iter..traits..collect..FromIterator$LT$char$GT$$GT$9from_iter17hc2ef10ebab6b8223E', symObjAddr: 0x19E0, symBinAddr: 0x7554, symSize: 0xA0 }
  - { offset: 0x13EB6, size: 0x8, addend: 0x0, symName: '__ZN95_$LT$alloc..string..String$u20$as$u20$core..iter..traits..collect..FromIterator$LT$char$GT$$GT$9from_iter17hd16f9bbc1bd79b7cE', symObjAddr: 0x1A80, symBinAddr: 0x75F4, symSize: 0x88 }
  - { offset: 0x1426E, size: 0x8, addend: 0x0, symName: '__ZN5alloc5slice29_$LT$impl$u20$$u5b$T$u5d$$GT$4sort17h4814819cd735d056E', symObjAddr: 0x1250, symBinAddr: 0x6DC4, symSize: 0x28 }
  - { offset: 0x144A8, size: 0x8, addend: 0x0, symName: __ZN4pyo310conversion12IntoPyObject28owned_sequence_into_pyobject17h981264810c247859E, symObjAddr: 0x408, symBinAddr: 0x5F7C, symSize: 0xDC }
  - { offset: 0x1453F, size: 0x8, addend: 0x0, symName: __ZN4pyo310conversion12IntoPyObject31borrowed_sequence_into_pyobject17h55a408b50cdc3290E, symObjAddr: 0x4E4, symBinAddr: 0x6058, symSize: 0x9C }
  - { offset: 0x14610, size: 0x8, addend: 0x0, symName: __ZN4pyo310conversion15IntoPyObjectExt17into_bound_py_any17h2fb1e75aa62ed2faE, symObjAddr: 0x580, symBinAddr: 0x60F4, symSize: 0xE0 }
  - { offset: 0x146A3, size: 0x8, addend: 0x0, symName: __ZN4pyo310conversion15IntoPyObjectExt17into_bound_py_any17h5d42094b8955d277E, symObjAddr: 0x660, symBinAddr: 0x61D4, symSize: 0x50 }
  - { offset: 0x14713, size: 0x8, addend: 0x0, symName: __ZN4pyo310conversion15IntoPyObjectExt17into_bound_py_any17ha1467911cef03ea0E, symObjAddr: 0x6B0, symBinAddr: 0x6224, symSize: 0xE0 }
  - { offset: 0x147AC, size: 0x8, addend: 0x0, symName: '__ZN57_$LT$T$u20$as$u20$pyo3..conversion..FromPyObjectBound$GT$20from_py_object_bound17h3e96583d3e5211e0E', symObjAddr: 0x1160, symBinAddr: 0x6CD4, symSize: 0x34 }
  - { offset: 0x147E3, size: 0x8, addend: 0x0, symName: '__ZN57_$LT$T$u20$as$u20$pyo3..conversion..FromPyObjectBound$GT$20from_py_object_bound17h718d65012068f0d7E', symObjAddr: 0x1194, symBinAddr: 0x6D08, symSize: 0x34 }
  - { offset: 0x1483E, size: 0x8, addend: 0x0, symName: '__ZN4pyo311conversions3std5slice76_$LT$impl$u20$pyo3..conversion..IntoPyObject$u20$for$u20$$RF$$u5b$T$u5d$$GT$13into_pyobject17hfdc8c071c1203a69E', symObjAddr: 0x790, symBinAddr: 0x6304, symSize: 0x28 }
  - { offset: 0x1489F, size: 0x8, addend: 0x0, symName: '__ZN4pyo35types5tuple74_$LT$impl$u20$pyo3..conversion..IntoPyObject$u20$for$u20$$LP$T0$C$$RP$$GT$13into_pyobject17h98262f9cae01102dE', symObjAddr: 0x7B8, symBinAddr: 0x632C, symSize: 0xC8 }
  - { offset: 0x14919, size: 0x8, addend: 0x0, symName: '__ZN4pyo35types5tuple76_$LT$impl$u20$pyo3..conversion..FromPyObject$u20$for$u20$$LP$T0$C$T1$RP$$GT$13extract_bound17h989ad858640a56efE', symObjAddr: 0x880, symBinAddr: 0x63F4, symSize: 0x3F8 }
  - { offset: 0x14A6F, size: 0x8, addend: 0x0, symName: '__ZN4pyo35types5tuple76_$LT$impl$u20$pyo3..conversion..IntoPyObject$u20$for$u20$$LP$T0$C$T1$RP$$GT$13into_pyobject17ha24d0c7213f8f74bE', symObjAddr: 0xC78, symBinAddr: 0x67EC, symSize: 0x208 }
  - { offset: 0x14B22, size: 0x8, addend: 0x0, symName: '__ZN4pyo35types5tuple76_$LT$impl$u20$pyo3..conversion..IntoPyObject$u20$for$u20$$LP$T0$C$T1$RP$$GT$13into_pyobject17ha3025f8ed1f922c0E', symObjAddr: 0xE80, symBinAddr: 0x69F4, symSize: 0x20C }
  - { offset: 0x15038, size: 0x8, addend: 0x0, symName: '__ZN52_$LT$Q$u20$as$u20$hashbrown..Equivalent$LT$K$GT$$GT$10equivalent17h2d50a152cedcaa08E', symObjAddr: 0x10A0, symBinAddr: 0x6C14, symSize: 0x40 }
  - { offset: 0x15A0B, size: 0x8, addend: 0x0, symName: __ZN9_translit8encoding15_decode_to_utf817h7ee11a85924c7264E, symObjAddr: 0x0, symBinAddr: 0x767C, symSize: 0x58 }
  - { offset: 0x16942, size: 0x8, addend: 0x0, symName: __ZN9_translit8encoding15_decode_to_utf817h7ee11a85924c7264E, symObjAddr: 0x0, symBinAddr: 0x767C, symSize: 0x58 }
  - { offset: 0x1697C, size: 0x8, addend: 0x0, symName: __ZN9_translit8encoding16_detect_encoding17h0ef053f3cdf0540aE, symObjAddr: 0x58, symBinAddr: 0x76D4, symSize: 0x30 }
  - { offset: 0x169A8, size: 0x8, addend: 0x0, symName: __ZN9_translit8encoding19decode_to_utf8_impl17h410dca18df653d9eE, symObjAddr: 0x88, symBinAddr: 0x7704, symSize: 0x23C }
  - { offset: 0x16AA0, size: 0x8, addend: 0x0, symName: __ZN9_translit8encoding20detect_encoding_impl17h8e89777e7d555643E, symObjAddr: 0x2C4, symBinAddr: 0x7940, symSize: 0xE0 }
  - { offset: 0x16B34, size: 0x8, addend: 0x0, symName: __ZN9_translit8encoding28__pyfunction__decode_to_utf817h2d15b45fe970fa0fE, symObjAddr: 0x3A4, symBinAddr: 0x7A20, symSize: 0x480 }
  - { offset: 0x16CC2, size: 0x8, addend: 0x0, symName: __ZN9_translit8encoding29__pyfunction__detect_encoding17h18e3cb2c27fd4d67E, symObjAddr: 0x824, symBinAddr: 0x7EA0, symSize: 0x30C }
  - { offset: 0x16E36, size: 0x8, addend: 0x0, symName: '__ZN9_translit8encoding63_$LT$impl$u20$_translit..encoding.._decode_to_utf8..MakeDef$GT$9_PYO3_DEF10trampoline17h7c5706adee25f2daE', symObjAddr: 0xB30, symBinAddr: 0x81AC, symSize: 0x4C }
  - { offset: 0x16E8A, size: 0x8, addend: 0x0, symName: '__ZN9_translit8encoding64_$LT$impl$u20$_translit..encoding.._detect_encoding..MakeDef$GT$9_PYO3_DEF10trampoline17h1253d39abc1f1965E', symObjAddr: 0xB7C, symBinAddr: 0x81F8, symSize: 0x4C }
  - { offset: 0x180CE, size: 0x8, addend: 0x0, symName: __ZN4core5slice5ascii8is_ascii7runtime17hc8e91073b532c800E, symObjAddr: 0x0, symBinAddr: 0x8244, symSize: 0x208 }
  - { offset: 0x18253, size: 0x8, addend: 0x0, symName: __ZN4core5slice5ascii8is_ascii7runtime17hc8e91073b532c800E, symObjAddr: 0x0, symBinAddr: 0x8244, symSize: 0x208 }
  - { offset: 0x1862A, size: 0x8, addend: 0x0, symName: '__ZN4core3cmp5impls69_$LT$impl$u20$core..cmp..PartialEq$LT$$RF$B$GT$$u20$for$u20$$RF$A$GT$2eq17h367c2b5cb336838dE', symObjAddr: 0x0, symBinAddr: 0x844C, symSize: 0x34 }
  - { offset: 0x1864B, size: 0x8, addend: 0x0, symName: '__ZN4core3cmp5impls69_$LT$impl$u20$core..cmp..PartialEq$LT$$RF$B$GT$$u20$for$u20$$RF$A$GT$2eq17h367c2b5cb336838dE', symObjAddr: 0x0, symBinAddr: 0x844C, symSize: 0x34 }
  - { offset: 0x1869A, size: 0x8, addend: 0x0, symName: '__ZN4core3cmp5impls69_$LT$impl$u20$core..cmp..PartialEq$LT$$RF$B$GT$$u20$for$u20$$RF$A$GT$2ne17h44d3984c294beb5fE', symObjAddr: 0x34, symBinAddr: 0x8480, symSize: 0x44 }
  - { offset: 0x18775, size: 0x8, addend: 0x0, symName: '__ZN52_$LT$char$u20$as$u20$core..str..pattern..Pattern$GT$13into_searcher17h68517d2187fd425aE', symObjAddr: 0x0, symBinAddr: 0x84C4, symSize: 0x114 }
  - { offset: 0x18B82, size: 0x8, addend: 0x0, symName: '__ZN52_$LT$char$u20$as$u20$core..str..pattern..Pattern$GT$13into_searcher17h68517d2187fd425aE', symObjAddr: 0x0, symBinAddr: 0x84C4, symSize: 0x114 }
  - { offset: 0x18CA0, size: 0x8, addend: 0x0, symName: '__ZN55_$LT$$RF$str$u20$as$u20$core..str..pattern..Pattern$GT$12is_suffix_of17h0e42adfa2d0b096eE', symObjAddr: 0x114, symBinAddr: 0x85D8, symSize: 0x4C }
  - { offset: 0x18CDD, size: 0x8, addend: 0x0, symName: '__ZN55_$LT$$RF$str$u20$as$u20$core..str..pattern..Pattern$GT$13into_searcher17h6dca4740741bdf2fE', symObjAddr: 0x160, symBinAddr: 0x8624, symSize: 0x4C }
  - { offset: 0x18D1A, size: 0x8, addend: 0x0, symName: '__ZN55_$LT$$RF$str$u20$as$u20$core..str..pattern..Pattern$GT$15as_utf8_pattern17h2e19bd2bc35315f1E', symObjAddr: 0x1AC, symBinAddr: 0x8670, symSize: 0x38 }
  - { offset: 0x18D72, size: 0x8, addend: 0x0, symName: '__ZN55_$LT$$RF$str$u20$as$u20$core..str..pattern..Pattern$GT$15is_contained_in17hff52e35758f98eeeE', symObjAddr: 0x1E4, symBinAddr: 0x86A8, symSize: 0x1A8 }
  - { offset: 0x190CD, size: 0x8, addend: 0x0, symName: '__ZN80_$LT$core..str..pattern..StrSearcher$u20$as$u20$core..str..pattern..Searcher$GT$10next_match17h66700246d40086fcE', symObjAddr: 0x38C, symBinAddr: 0x8850, symSize: 0x148 }
  - { offset: 0x19159, size: 0x8, addend: 0x0, symName: '__ZN80_$LT$core..str..pattern..StrSearcher$u20$as$u20$core..str..pattern..Searcher$GT$4next17hb7bc7453aeade1a7E', symObjAddr: 0x4D4, symBinAddr: 0x8998, symSize: 0x434 }
  - { offset: 0x19447, size: 0x8, addend: 0x0, symName: '__ZN80_$LT$core..str..pattern..StrSearcher$u20$as$u20$core..str..pattern..Searcher$GT$8haystack17h4a7b5bfd83fd9e48E', symObjAddr: 0x908, symBinAddr: 0x8DCC, symSize: 0x20 }
  - { offset: 0x1947B, size: 0x8, addend: 0x0, symName: '__ZN84_$LT$core..str..pattern..MatchOnly$u20$as$u20$core..str..pattern..TwoWayStrategy$GT$16use_early_reject17hf18d81475812b581E', symObjAddr: 0x928, symBinAddr: 0x8DEC, symSize: 0xC }
  - { offset: 0x19499, size: 0x8, addend: 0x0, symName: '__ZN84_$LT$core..str..pattern..MatchOnly$u20$as$u20$core..str..pattern..TwoWayStrategy$GT$8matching17hfeeea4ecacbc6bd0E', symObjAddr: 0x934, symBinAddr: 0x8DF8, symSize: 0x28 }
  - { offset: 0x194D6, size: 0x8, addend: 0x0, symName: '__ZN84_$LT$core..str..pattern..MatchOnly$u20$as$u20$core..str..pattern..TwoWayStrategy$GT$9rejecting17hffa2efed6a46ecfbE', symObjAddr: 0x95C, symBinAddr: 0x8E20, symSize: 0x18 }
  - { offset: 0x19519, size: 0x8, addend: 0x0, symName: '__ZN87_$LT$core..str..pattern..StrSearcher$u20$as$u20$core..str..pattern..ReverseSearcher$GT$15next_match_back17h198ad2776428ab53E', symObjAddr: 0x974, symBinAddr: 0x8E38, symSize: 0x148 }
  - { offset: 0x195A5, size: 0x8, addend: 0x0, symName: '__ZN87_$LT$core..str..pattern..StrSearcher$u20$as$u20$core..str..pattern..ReverseSearcher$GT$9next_back17he82001aefdf5f101E', symObjAddr: 0xABC, symBinAddr: 0x8F80, symSize: 0x418 }
  - { offset: 0x198D8, size: 0x8, addend: 0x0, symName: '__ZN88_$LT$core..str..pattern..CharSearcher$u20$as$u20$core..str..pattern..ReverseSearcher$GT$15next_match_back17h1613eb6a8fe96186E', symObjAddr: 0xED4, symBinAddr: 0x9398, symSize: 0x3B0 }
  - { offset: 0x19E2F, size: 0x8, addend: 0x0, symName: '__ZN89_$LT$core..str..pattern..RejectAndMatch$u20$as$u20$core..str..pattern..TwoWayStrategy$GT$16use_early_reject17h9840c04d82aa7ab1E', symObjAddr: 0x1284, symBinAddr: 0x9748, symSize: 0xC }
  - { offset: 0x19E4D, size: 0x8, addend: 0x0, symName: '__ZN89_$LT$core..str..pattern..RejectAndMatch$u20$as$u20$core..str..pattern..TwoWayStrategy$GT$8matching17hbf70b7525f8575d7E', symObjAddr: 0x1290, symBinAddr: 0x9754, symSize: 0x20 }
  - { offset: 0x19E8A, size: 0x8, addend: 0x0, symName: '__ZN89_$LT$core..str..pattern..RejectAndMatch$u20$as$u20$core..str..pattern..TwoWayStrategy$GT$9rejecting17h98b5bec58ee174c8E', symObjAddr: 0x12B0, symBinAddr: 0x9774, symSize: 0x28 }
  - { offset: 0x1B02F, size: 0x8, addend: 0x0, symName: '__ZN3std4sync6poison6rwlock15RwLock$LT$T$GT$3new17h34b5da61a6602575E', symObjAddr: 0x0, symBinAddr: 0x979C, symSize: 0x74 }
  - { offset: 0x1C3D0, size: 0x8, addend: 0x0, symName: '__ZN3std4sync6poison6rwlock24RwLockReadGuard$LT$T$GT$3new28_$u7b$$u7b$closure$u7d$$u7d$17h0b8a6f0995914a24E', symObjAddr: 0x838, symBinAddr: 0x9FD4, symSize: 0x50 }
  - { offset: 0x1C441, size: 0x8, addend: 0x0, symName: '__ZN3std4sync6poison6rwlock24RwLockReadGuard$LT$T$GT$3new28_$u7b$$u7b$closure$u7d$$u7d$17h86751429e9bcdf17E', symObjAddr: 0x888, symBinAddr: 0xA024, symSize: 0x50 }
  - { offset: 0x1C4B2, size: 0x8, addend: 0x0, symName: '__ZN3std4sync6poison6rwlock24RwLockReadGuard$LT$T$GT$3new28_$u7b$$u7b$closure$u7d$$u7d$17h991888e34ec9e3bcE', symObjAddr: 0x8D8, symBinAddr: 0xA074, symSize: 0x50 }
  - { offset: 0x1C523, size: 0x8, addend: 0x0, symName: '__ZN3std4sync6poison6rwlock24RwLockReadGuard$LT$T$GT$3new28_$u7b$$u7b$closure$u7d$$u7d$17he8584670bf1ae17cE', symObjAddr: 0x928, symBinAddr: 0xA0C4, symSize: 0x50 }
  - { offset: 0x1C5A0, size: 0x8, addend: 0x0, symName: '__ZN3std4sync6poison6rwlock25RwLockWriteGuard$LT$T$GT$3new28_$u7b$$u7b$closure$u7d$$u7d$17h5276c407c2f58956E', symObjAddr: 0x978, symBinAddr: 0xA114, symSize: 0x18 }
  - { offset: 0x1C5E8, size: 0x8, addend: 0x0, symName: '__ZN3std4sync6poison6rwlock25RwLockWriteGuard$LT$T$GT$3new28_$u7b$$u7b$closure$u7d$$u7d$17h8326f74c821c18c0E', symObjAddr: 0x990, symBinAddr: 0xA12C, symSize: 0x18 }
  - { offset: 0x1C630, size: 0x8, addend: 0x0, symName: '__ZN3std4sync6poison6rwlock25RwLockWriteGuard$LT$T$GT$3new28_$u7b$$u7b$closure$u7d$$u7d$17h9d899c08a7cafecaE', symObjAddr: 0x9A8, symBinAddr: 0xA144, symSize: 0x18 }
  - { offset: 0x1C678, size: 0x8, addend: 0x0, symName: '__ZN3std4sync6poison6rwlock25RwLockWriteGuard$LT$T$GT$3new28_$u7b$$u7b$closure$u7d$$u7d$17hf0191f8bd8aed864E', symObjAddr: 0x9C0, symBinAddr: 0xA15C, symSize: 0x18 }
  - { offset: 0x1C6C0, size: 0x8, addend: 0x0, symName: '__ZN3std4sync6poison6rwlock25RwLockWriteGuard$LT$T$GT$3new28_$u7b$$u7b$closure$u7d$$u7d$17hf07b02a8cfd7b7bcE', symObjAddr: 0x9D8, symBinAddr: 0xA174, symSize: 0x18 }
  - { offset: 0x1C70F, size: 0x8, addend: 0x0, symName: '__ZN95_$LT$std..sync..poison..rwlock..RwLockReadGuard$LT$T$GT$$u20$as$u20$core..ops..deref..Deref$GT$5deref17h27c135f057c8a110E', symObjAddr: 0x9F0, symBinAddr: 0xA18C, symSize: 0x18 }
  - { offset: 0x1C75B, size: 0x8, addend: 0x0, symName: '__ZN95_$LT$std..sync..poison..rwlock..RwLockReadGuard$LT$T$GT$$u20$as$u20$core..ops..deref..Deref$GT$5deref17h3e97d4723a9d614dE', symObjAddr: 0xA08, symBinAddr: 0xA1A4, symSize: 0x18 }
  - { offset: 0x1C7A7, size: 0x8, addend: 0x0, symName: '__ZN95_$LT$std..sync..poison..rwlock..RwLockReadGuard$LT$T$GT$$u20$as$u20$core..ops..deref..Deref$GT$5deref17hebf155b7d4585f57E', symObjAddr: 0xA20, symBinAddr: 0xA1BC, symSize: 0x18 }
  - { offset: 0x1C7F3, size: 0x8, addend: 0x0, symName: '__ZN95_$LT$std..sync..poison..rwlock..RwLockReadGuard$LT$T$GT$$u20$as$u20$core..ops..deref..Deref$GT$5deref17hfa8692c6dd3833e1E', symObjAddr: 0xA38, symBinAddr: 0xA1D4, symSize: 0x18 }
  - { offset: 0x1C845, size: 0x8, addend: 0x0, symName: '__ZN96_$LT$std..sync..poison..rwlock..RwLockWriteGuard$LT$T$GT$$u20$as$u20$core..ops..deref..Deref$GT$5deref17h159053a855379cc7E', symObjAddr: 0xA50, symBinAddr: 0xA1EC, symSize: 0x1C }
  - { offset: 0x1C897, size: 0x8, addend: 0x0, symName: '__ZN99_$LT$std..sync..poison..rwlock..RwLockWriteGuard$LT$T$GT$$u20$as$u20$core..ops..deref..DerefMut$GT$9deref_mut17h05a97a6cb5ad93b7E', symObjAddr: 0xA6C, symBinAddr: 0xA208, symSize: 0x1C }
  - { offset: 0x1C8E3, size: 0x8, addend: 0x0, symName: '__ZN99_$LT$std..sync..poison..rwlock..RwLockWriteGuard$LT$T$GT$$u20$as$u20$core..ops..deref..DerefMut$GT$9deref_mut17h073f9faa28e9b7c3E', symObjAddr: 0xA88, symBinAddr: 0xA224, symSize: 0x1C }
  - { offset: 0x1C92F, size: 0x8, addend: 0x0, symName: '__ZN99_$LT$std..sync..poison..rwlock..RwLockWriteGuard$LT$T$GT$$u20$as$u20$core..ops..deref..DerefMut$GT$9deref_mut17h59982f4a8988ef54E', symObjAddr: 0xAA4, symBinAddr: 0xA240, symSize: 0x1C }
  - { offset: 0x1C97B, size: 0x8, addend: 0x0, symName: '__ZN99_$LT$std..sync..poison..rwlock..RwLockWriteGuard$LT$T$GT$$u20$as$u20$core..ops..deref..DerefMut$GT$9deref_mut17hcfa57b71ee46fa9dE', symObjAddr: 0xAC0, symBinAddr: 0xA25C, symSize: 0x1C }
  - { offset: 0x1C9C7, size: 0x8, addend: 0x0, symName: '__ZN99_$LT$std..sync..poison..rwlock..RwLockWriteGuard$LT$T$GT$$u20$as$u20$core..ops..deref..DerefMut$GT$9deref_mut17hdccee72a8cdb3996E', symObjAddr: 0xADC, symBinAddr: 0xA278, symSize: 0x1C }
  - { offset: 0x1D0C5, size: 0x8, addend: 0x0, symName: '__ZN3std4sync6poison6rwlock15RwLock$LT$T$GT$3new17h34b5da61a6602575E', symObjAddr: 0x0, symBinAddr: 0x979C, symSize: 0x74 }
  - { offset: 0x1D1CF, size: 0x8, addend: 0x0, symName: '__ZN3std4sync6poison6rwlock15RwLock$LT$T$GT$3new17h50dae7cdd4908113E', symObjAddr: 0x74, symBinAddr: 0x9810, symSize: 0x74 }
  - { offset: 0x1D352, size: 0x8, addend: 0x0, symName: '__ZN3std4sync6poison6rwlock15RwLock$LT$T$GT$3new17h733b9089d55549bfE', symObjAddr: 0xE8, symBinAddr: 0x9884, symSize: 0x40 }
  - { offset: 0x1D420, size: 0x8, addend: 0x0, symName: '__ZN3std4sync6poison6rwlock15RwLock$LT$T$GT$3new17hd25647e9648aa848E', symObjAddr: 0x128, symBinAddr: 0x98C4, symSize: 0x74 }
  - { offset: 0x1D503, size: 0x8, addend: 0x0, symName: '__ZN3std4sync6poison6rwlock15RwLock$LT$T$GT$3new17he4cd2a5bf069d7baE', symObjAddr: 0x19C, symBinAddr: 0x9938, symSize: 0x74 }
  - { offset: 0x1D5E3, size: 0x8, addend: 0x0, symName: '__ZN3std4sync6poison6rwlock15RwLock$LT$T$GT$4read17h02012beb4506dab6E', symObjAddr: 0x210, symBinAddr: 0x99AC, symSize: 0x64 }
  - { offset: 0x1D68B, size: 0x8, addend: 0x0, symName: '__ZN3std4sync6poison6rwlock15RwLock$LT$T$GT$4read17h4eee77adb10adffbE', symObjAddr: 0x274, symBinAddr: 0x9A10, symSize: 0x64 }
  - { offset: 0x1D733, size: 0x8, addend: 0x0, symName: '__ZN3std4sync6poison6rwlock15RwLock$LT$T$GT$4read17h6769ff7a82fa4861E', symObjAddr: 0x2D8, symBinAddr: 0x9A74, symSize: 0x64 }
  - { offset: 0x1D7DB, size: 0x8, addend: 0x0, symName: '__ZN3std4sync6poison6rwlock15RwLock$LT$T$GT$4read17h69aed3aa29001d73E', symObjAddr: 0x33C, symBinAddr: 0x9AD8, symSize: 0x64 }
  - { offset: 0x1D8FE, size: 0x8, addend: 0x0, symName: '__ZN3std4sync6poison6rwlock15RwLock$LT$T$GT$5write17h128a89b9fea0a5b6E', symObjAddr: 0x3A0, symBinAddr: 0x9B3C, symSize: 0x98 }
  - { offset: 0x1DA74, size: 0x8, addend: 0x0, symName: '__ZN3std4sync6poison6rwlock15RwLock$LT$T$GT$5write17h25c5bfb6c5827d34E', symObjAddr: 0x438, symBinAddr: 0x9BD4, symSize: 0x98 }
  - { offset: 0x1DBEA, size: 0x8, addend: 0x0, symName: '__ZN3std4sync6poison6rwlock15RwLock$LT$T$GT$5write17h2ef0564e49a8bbf3E', symObjAddr: 0x4D0, symBinAddr: 0x9C6C, symSize: 0x98 }
  - { offset: 0x1DD6D, size: 0x8, addend: 0x0, symName: '__ZN3std4sync6poison6rwlock15RwLock$LT$T$GT$5write17ha71184bdd343107dE', symObjAddr: 0x568, symBinAddr: 0x9D04, symSize: 0x98 }
  - { offset: 0x1DEE3, size: 0x8, addend: 0x0, symName: '__ZN3std4sync6poison6rwlock15RwLock$LT$T$GT$5write17hcc20f43406adea09E', symObjAddr: 0x600, symBinAddr: 0x9D9C, symSize: 0x98 }
  - { offset: 0x1E059, size: 0x8, addend: 0x0, symName: '__ZN3std4sync6poison6rwlock24RwLockReadGuard$LT$T$GT$3new17h9b29f835e86c6a56E', symObjAddr: 0x698, symBinAddr: 0x9E34, symSize: 0x68 }
  - { offset: 0x1E167, size: 0x8, addend: 0x0, symName: '__ZN3std4sync6poison6rwlock24RwLockReadGuard$LT$T$GT$3new17hbb496a4fa4d71570E', symObjAddr: 0x700, symBinAddr: 0x9E9C, symSize: 0x68 }
  - { offset: 0x1E275, size: 0x8, addend: 0x0, symName: '__ZN3std4sync6poison6rwlock24RwLockReadGuard$LT$T$GT$3new17hd9d42d97e9d25ca2E', symObjAddr: 0x768, symBinAddr: 0x9F04, symSize: 0x68 }
  - { offset: 0x1E383, size: 0x8, addend: 0x0, symName: '__ZN3std4sync6poison6rwlock24RwLockReadGuard$LT$T$GT$3new17heb208a811ae8cf4fE', symObjAddr: 0x7D0, symBinAddr: 0x9F6C, symSize: 0x68 }
  - { offset: 0x1E7AA, size: 0x8, addend: 0x0, symName: '__ZN4core3str21_$LT$impl$u20$str$GT$16is_char_boundary17h41a55e06205fdb79E', symObjAddr: 0x0, symBinAddr: 0xA294, symSize: 0xCC }
  - { offset: 0x1E846, size: 0x8, addend: 0x0, symName: '__ZN4core3str21_$LT$impl$u20$str$GT$16is_char_boundary17h41a55e06205fdb79E', symObjAddr: 0x0, symBinAddr: 0xA294, symSize: 0xCC }
  - { offset: 0x1E8BF, size: 0x8, addend: 0x0, symName: '__ZN4core3str21_$LT$impl$u20$str$GT$20make_ascii_lowercase17h545393e31c50bb7aE', symObjAddr: 0xCC, symBinAddr: 0xA360, symSize: 0xF0 }
  - { offset: 0x1E998, size: 0x8, addend: 0x0, symName: '__ZN4core3str21_$LT$impl$u20$str$GT$3len17had3d15cab1e4d6a2E', symObjAddr: 0x1BC, symBinAddr: 0xA450, symSize: 0x1C }
  - { offset: 0x1E9C4, size: 0x8, addend: 0x0, symName: '__ZN4core3str21_$LT$impl$u20$str$GT$4trim17hebcfffb8b512b2dcE', symObjAddr: 0x1D8, symBinAddr: 0xA46C, symSize: 0x28 }
  - { offset: 0x1E9F2, size: 0x8, addend: 0x0, symName: '__ZN4core3str21_$LT$impl$u20$str$GT$5chars17h065b89b514d576e4E', symObjAddr: 0x200, symBinAddr: 0xA494, symSize: 0x20 }
  - { offset: 0x1EA7E, size: 0x8, addend: 0x0, symName: '__ZN4core3str21_$LT$impl$u20$str$GT$8is_ascii17hfa445a3dbb7fbed0E', symObjAddr: 0x220, symBinAddr: 0xA4B4, symSize: 0x34 }
  - { offset: 0x1EB05, size: 0x8, addend: 0x0, symName: '__ZN4core3str21_$LT$impl$u20$str$GT$8is_empty17h947b91ab6973996fE', symObjAddr: 0x254, symBinAddr: 0xA4E8, symSize: 0x1C }
  - { offset: 0x1EB37, size: 0x8, addend: 0x0, symName: '__ZN4core3str74_$LT$impl$u20$core..convert..AsRef$LT$$u5b$u8$u5d$$GT$$u20$for$u20$str$GT$6as_ref17ha0752a516637fe8bE', symObjAddr: 0x270, symBinAddr: 0xA504, symSize: 0x18 }
  - { offset: 0x1EDDF, size: 0x8, addend: 0x0, symName: __ZN4pyo35types10typeobject6PyType22from_borrowed_type_ptr17h5bbbc743f35bb8f4E, symObjAddr: 0x0, symBinAddr: 0xA51C, symSize: 0x34 }
  - { offset: 0x1F0C7, size: 0x8, addend: 0x0, symName: __ZN4pyo35types10typeobject6PyType22from_borrowed_type_ptr17h5bbbc743f35bb8f4E, symObjAddr: 0x0, symBinAddr: 0xA51C, symSize: 0x34 }
  - { offset: 0x1F120, size: 0x8, addend: 0x0, symName: '__ZN9_translit6tables15transliteration11lookup_lang28_$u7b$$u7b$closure$u7d$$u7d$17hae4107825a098028E', symObjAddr: 0x0, symBinAddr: 0xA550, symSize: 0x3C }
  - { offset: 0x1F141, size: 0x8, addend: 0x0, symName: '__ZN9_translit6tables15transliteration11lookup_lang28_$u7b$$u7b$closure$u7d$$u7d$17hae4107825a098028E', symObjAddr: 0x0, symBinAddr: 0xA550, symSize: 0x3C }
  - { offset: 0x1F338, size: 0x8, addend: 0x0, symName: __ZN4core3cmp9PartialEq2ne17hf8eb3bade2f4f503E, symObjAddr: 0x0, symBinAddr: 0xA58C, symSize: 0x38 }
  - { offset: 0x1F354, size: 0x8, addend: 0x0, symName: __ZN4core3cmp9PartialEq2ne17hf8eb3bade2f4f503E, symObjAddr: 0x0, symBinAddr: 0xA58C, symSize: 0x38 }
  - { offset: 0x1F400, size: 0x8, addend: 0x0, symName: '__ZN9_translit6tables10list_langs28_$u7b$$u7b$closure$u7d$$u7d$17h588c4c55e7188c51E', symObjAddr: 0x0, symBinAddr: 0xA5C4, symSize: 0x30 }
  - { offset: 0x1F41C, size: 0x8, addend: 0x0, symName: '__ZN9_translit6tables10list_langs28_$u7b$$u7b$closure$u7d$$u7d$17h588c4c55e7188c51E', symObjAddr: 0x0, symBinAddr: 0xA5C4, symSize: 0x30 }
  - { offset: 0x1F452, size: 0x8, addend: 0x0, symName: '__ZN9_translit6tables10list_langs28_$u7b$$u7b$closure$u7d$$u7d$17hd77de4736a32d7edE', symObjAddr: 0x30, symBinAddr: 0xA5F4, symSize: 0x2C }
  - { offset: 0x1F49C, size: 0x8, addend: 0x0, symName: '__ZN9_translit6tables11LANG_TABLES28_$u7b$$u7b$closure$u7d$$u7d$17h1aa162ad43e3f0ecE', symObjAddr: 0x5C, symBinAddr: 0xA620, symSize: 0x38 }
  - { offset: 0x1F4D1, size: 0x8, addend: 0x0, symName: '__ZN9_translit6tables11lookup_lang28_$u7b$$u7b$closure$u7d$$u7d$17h57ecbbb2d0f39e7dE', symObjAddr: 0x94, symBinAddr: 0xA658, symSize: 0x2C }
  - { offset: 0x1F507, size: 0x8, addend: 0x0, symName: '__ZN9_translit6tables11lookup_lang28_$u7b$$u7b$closure$u7d$$u7d$17h7bb794acbf7b781aE', symObjAddr: 0xC0, symBinAddr: 0xA684, symSize: 0x2C }
  - { offset: 0x1F53D, size: 0x8, addend: 0x0, symName: '__ZN9_translit6tables11lookup_lang28_$u7b$$u7b$closure$u7d$$u7d$17hc8776016418ee7bcE', symObjAddr: 0xEC, symBinAddr: 0xA6B0, symSize: 0x2C }
  - { offset: 0x1F573, size: 0x8, addend: 0x0, symName: '__ZN9_translit6tables11lookup_lang28_$u7b$$u7b$closure$u7d$$u7d$17hd022207c00e202a3E', symObjAddr: 0x118, symBinAddr: 0xA6DC, symSize: 0x38 }
  - { offset: 0x1F5AF, size: 0x8, addend: 0x0, symName: '__ZN9_translit6tables11lookup_lang28_$u7b$$u7b$closure$u7d$$u7d$17hda5d0c83b0b1c070E', symObjAddr: 0x150, symBinAddr: 0xA714, symSize: 0x44 }
  - { offset: 0x1F606, size: 0x8, addend: 0x0, symName: '__ZN9_translit6tables12HANGUL_CACHE28_$u7b$$u7b$closure$u7d$$u7d$17ha2a5e3aae4047a95E', symObjAddr: 0x194, symBinAddr: 0xA758, symSize: 0x40 }
  - { offset: 0x1F63B, size: 0x8, addend: 0x0, symName: '__ZN9_translit6tables13register_lang28_$u7b$$u7b$closure$u7d$$u7d$17h5a345b8b01750acaE', symObjAddr: 0x1D4, symBinAddr: 0xA798, symSize: 0x2C }
  - { offset: 0x1F671, size: 0x8, addend: 0x0, symName: '__ZN9_translit6tables13register_lang28_$u7b$$u7b$closure$u7d$$u7d$17h9fb2b951fe745effE', symObjAddr: 0x200, symBinAddr: 0xA7C4, symSize: 0x2C }
  - { offset: 0x1F6BB, size: 0x8, addend: 0x0, symName: '__ZN9_translit6tables14lookup_default28_$u7b$$u7b$closure$u7d$$u7d$17h1499e312024e531eE', symObjAddr: 0x22C, symBinAddr: 0xA7F0, symSize: 0x28 }
  - { offset: 0x1F6E9, size: 0x8, addend: 0x0, symName: '__ZN9_translit6tables14lookup_default28_$u7b$$u7b$closure$u7d$$u7d$17hec8f5d5a8d04f865E', symObjAddr: 0x254, symBinAddr: 0xA818, symSize: 0x28 }
  - { offset: 0x1F71D, size: 0x8, addend: 0x0, symName: '__ZN9_translit6tables15LANG_LEAK_CACHE28_$u7b$$u7b$closure$u7d$$u7d$17h0040b9d4381c8882E', symObjAddr: 0x27C, symBinAddr: 0xA840, symSize: 0x38 }
  - { offset: 0x1F752, size: 0x8, addend: 0x0, symName: '__ZN9_translit6tables18clear_replacements28_$u7b$$u7b$closure$u7d$$u7d$17h8d49fed02e5ddbd7E', symObjAddr: 0x2B4, symBinAddr: 0xA878, symSize: 0x2C }
  - { offset: 0x1F798, size: 0x8, addend: 0x0, symName: '__ZN9_translit6tables18remove_replacement28_$u7b$$u7b$closure$u7d$$u7d$17h331d83f09e75b66bE', symObjAddr: 0x2E0, symBinAddr: 0xA8A4, symSize: 0x2C }
  - { offset: 0x1F7DE, size: 0x8, addend: 0x0, symName: '__ZN9_translit6tables19GLOBAL_REPLACEMENTS28_$u7b$$u7b$closure$u7d$$u7d$17h1b8f2b6e9b361f0fE', symObjAddr: 0x30C, symBinAddr: 0xA8D0, symSize: 0x38 }
  - { offset: 0x1F813, size: 0x8, addend: 0x0, symName: '__ZN9_translit6tables20lookup_hangul_static28_$u7b$$u7b$closure$u7d$$u7d$17hb3ba6c060f9c1c6bE', symObjAddr: 0x344, symBinAddr: 0xA908, symSize: 0x2C }
  - { offset: 0x1F849, size: 0x8, addend: 0x0, symName: '__ZN9_translit6tables20lookup_hangul_static28_$u7b$$u7b$closure$u7d$$u7d$17hbfa533e39f03106dE', symObjAddr: 0x370, symBinAddr: 0xA934, symSize: 0xE8 }
  - { offset: 0x1F8BE, size: 0x8, addend: 0x0, symName: '__ZN9_translit6tables20lookup_hangul_static28_$u7b$$u7b$closure$u7d$$u7d$28_$u7b$$u7b$closure$u7d$$u7d$17ha7d3a018798a17b4E', symObjAddr: 0x458, symBinAddr: 0xAA1C, symSize: 0x2C }
  - { offset: 0x1F909, size: 0x8, addend: 0x0, symName: '__ZN9_translit6tables21register_replacements28_$u7b$$u7b$closure$u7d$$u7d$17h1376b55ca61e4edbE', symObjAddr: 0x484, symBinAddr: 0xAA48, symSize: 0x2C }
  - { offset: 0x206D2, size: 0x8, addend: 0x0, symName: __ZN4pyo35impl_9pymethods11tp_new_impl17h171ee977f596aaf9E, symObjAddr: 0x0, symBinAddr: 0xAA74, symSize: 0x64 }
  - { offset: 0x20F6C, size: 0x8, addend: 0x0, symName: __ZN4pyo35impl_9pymethods11tp_new_impl17h171ee977f596aaf9E, symObjAddr: 0x0, symBinAddr: 0xAA74, symSize: 0x64 }
  - { offset: 0x20FD0, size: 0x8, addend: 0x0, symName: __ZN4pyo35impl_9pymethods11tp_new_impl17h85941fcc337a5f32E, symObjAddr: 0x64, symBinAddr: 0xAAD8, symSize: 0x6C }
  - { offset: 0x21035, size: 0x8, addend: 0x0, symName: __ZN4pyo35impl_9pymethods11tp_new_impl17hdd0e4198bc536671E, symObjAddr: 0xD0, symBinAddr: 0xAB44, symSize: 0x6C }
  - { offset: 0x210FA, size: 0x8, addend: 0x0, symName: '__ZN85_$LT$pyo3..impl_..pymethods..BoundRef$LT$T$GT$$u20$as$u20$core..ops..deref..Deref$GT$5deref17h1929621dda716a9eE', symObjAddr: 0x184, symBinAddr: 0xABF8, symSize: 0x18 }
  - { offset: 0x21D73, size: 0x8, addend: 0x0, symName: '__ZN50_$LT$T$u20$as$u20$core..convert..Into$LT$U$GT$$GT$4into17h6fdb99efb4d330f1E', symObjAddr: 0x160, symBinAddr: 0xABD4, symSize: 0x24 }
  - { offset: 0x234CD, size: 0x8, addend: 0x0, symName: '__ZN4pyo35impl_9pymethods39BoundRef$LT$pyo3..types..any..PyAny$GT$18downcast_unchecked17hce97e3284dc460f4E', symObjAddr: 0x13C, symBinAddr: 0xABB0, symSize: 0x24 }
  - { offset: 0x23D5B, size: 0x8, addend: 0x0, symName: '__ZN4pyo311conversions3std6string68_$LT$impl$u20$pyo3..conversion..IntoPyObject$u20$for$u20$$RF$str$GT$13into_pyobject17h5bd990c9e661fe3dE', symObjAddr: 0x0, symBinAddr: 0xAC10, symSize: 0x28 }
  - { offset: 0x23DE8, size: 0x8, addend: 0x0, symName: '__ZN4pyo311conversions3std6string68_$LT$impl$u20$pyo3..conversion..IntoPyObject$u20$for$u20$$RF$str$GT$13into_pyobject17h5bd990c9e661fe3dE', symObjAddr: 0x0, symBinAddr: 0xAC10, symSize: 0x28 }
  - { offset: 0x2415B, size: 0x8, addend: 0x0, symName: '__ZN111_$LT$T$u20$as$u20$pyo3..impl_..callback..IntoPyCallbackOutput$LT$$BP$mut$u20$pyo3_ffi..object..PyObject$GT$$GT$7convert17hb9efda67d7df14afE', symObjAddr: 0x0, symBinAddr: 0xAC38, symSize: 0x38 }
  - { offset: 0x24217, size: 0x8, addend: 0x0, symName: '__ZN145_$LT$core..option..Option$LT$T$GT$$u20$as$u20$core..ops..try_trait..FromResidual$LT$core..option..Option$LT$core..convert..Infallible$GT$$GT$$GT$13from_residual17haedec148b645b761E', symObjAddr: 0x38, symBinAddr: 0xAC70, symSize: 0x18 }
  - { offset: 0x274DF, size: 0x8, addend: 0x0, symName: __ZN4core6option6Option4Some17h08f47c28ae5aa2a8E, symObjAddr: 0x21EC, symBinAddr: 0xCE24, symSize: 0x14 }
  - { offset: 0x27512, size: 0x8, addend: 0x0, symName: __ZN4core6option6Option4Some17hab6e549e9fa86483E, symObjAddr: 0x2200, symBinAddr: 0xCE38, symSize: 0x18 }
  - { offset: 0x2754C, size: 0x8, addend: 0x0, symName: '__ZN70_$LT$core..option..Option$LT$T$GT$$u20$as$u20$core..cmp..PartialEq$GT$2eq17hf5641c645aa76063E', symObjAddr: 0x2248, symBinAddr: 0xCE80, symSize: 0xAC }
  - { offset: 0x275C6, size: 0x8, addend: 0x0, symName: '__ZN72_$LT$core..option..Option$LT$T$GT$$u20$as$u20$core..default..Default$GT$7default17h15e7a20b52ef7cc7E', symObjAddr: 0x22F4, symBinAddr: 0xCF2C, symSize: 0x8 }
  - { offset: 0x275EE, size: 0x8, addend: 0x0, symName: '__ZN72_$LT$core..option..Option$LT$T$GT$$u20$as$u20$core..default..Default$GT$7default17h743beef4bb22e820E', symObjAddr: 0x22FC, symBinAddr: 0xCF34, symSize: 0x8 }
  - { offset: 0x27616, size: 0x8, addend: 0x0, symName: '__ZN72_$LT$core..option..Option$LT$T$GT$$u20$as$u20$core..default..Default$GT$7default17h84e546c73a05a24fE', symObjAddr: 0x2304, symBinAddr: 0xCF3C, symSize: 0x8 }
  - { offset: 0x2763E, size: 0x8, addend: 0x0, symName: '__ZN72_$LT$core..option..Option$LT$T$GT$$u20$as$u20$core..default..Default$GT$7default17hcb31fdd7909a3a99E', symObjAddr: 0x230C, symBinAddr: 0xCF44, symSize: 0x8 }
  - { offset: 0x27666, size: 0x8, addend: 0x0, symName: '__ZN72_$LT$core..option..Option$LT$T$GT$$u20$as$u20$core..default..Default$GT$7default17hf91442e1b40b111eE', symObjAddr: 0x2314, symBinAddr: 0xCF4C, symSize: 0x8 }
  - { offset: 0x27694, size: 0x8, addend: 0x0, symName: '__ZN75_$LT$core..option..Option$LT$T$GT$$u20$as$u20$core..ops..try_trait..Try$GT$6branch17h19e99b5907bdcf50E', symObjAddr: 0x231C, symBinAddr: 0xCF54, symSize: 0x68 }
  - { offset: 0x276EA, size: 0x8, addend: 0x0, symName: '__ZN75_$LT$core..option..Option$LT$T$GT$$u20$as$u20$core..ops..try_trait..Try$GT$6branch17h5b3c5a08ae32abd5E', symObjAddr: 0x2384, symBinAddr: 0xCFBC, symSize: 0x40 }
  - { offset: 0x2773F, size: 0x8, addend: 0x0, symName: '__ZN75_$LT$core..option..Option$LT$T$GT$$u20$as$u20$core..ops..try_trait..Try$GT$6branch17h882e2b164059c784E', symObjAddr: 0x23C4, symBinAddr: 0xCFFC, symSize: 0x40 }
  - { offset: 0x29778, size: 0x8, addend: 0x0, symName: '__ZN111_$LT$T$u20$as$u20$pyo3..impl_..callback..IntoPyCallbackOutput$LT$$BP$mut$u20$pyo3_ffi..object..PyObject$GT$$GT$7convert17hb9efda67d7df14afE', symObjAddr: 0x0, symBinAddr: 0xAC38, symSize: 0x38 }
  - { offset: 0x29806, size: 0x8, addend: 0x0, symName: '__ZN86_$LT$core..option..Option$LT$T$GT$$u20$as$u20$pyo3..impl_..wrap..SomeWrap$LT$T$GT$$GT$4wrap17h483ea8d0d3160810E', symObjAddr: 0x2404, symBinAddr: 0xD03C, symSize: 0x18 }
  - { offset: 0x2983B, size: 0x8, addend: 0x0, symName: '__ZN86_$LT$core..option..Option$LT$T$GT$$u20$as$u20$pyo3..impl_..wrap..SomeWrap$LT$T$GT$$GT$4wrap17ha7d22c6b822ee79eE', symObjAddr: 0x241C, symBinAddr: 0xD054, symSize: 0x14 }
  - { offset: 0x29C8C, size: 0x8, addend: 0x0, symName: '__ZN4pyo311conversions3std6option90_$LT$impl$u20$pyo3..conversion..IntoPyObject$u20$for$u20$core..option..Option$LT$T$GT$$GT$13into_pyobject17h997c8eda962599d1E', symObjAddr: 0x2218, symBinAddr: 0xCE50, symSize: 0x30 }
  - { offset: 0x2ADC3, size: 0x8, addend: 0x0, symName: '__ZN87_$LT$T$u20$as$u20$alloc..slice..$LT$impl$u20$$u5b$T$u5d$$GT$..to_vec_in..ConvertVec$GT$6to_vec17hf43b269a5804203cE', symObjAddr: 0x2430, symBinAddr: 0xD068, symSize: 0xF4 }
  - { offset: 0x2B306, size: 0x8, addend: 0x0, symName: '__ZN4core6option15Option$LT$T$GT$10ok_or_else17h09ef0f52cb96fbceE', symObjAddr: 0x50, symBinAddr: 0xAC88, symSize: 0x7C }
  - { offset: 0x2B3E4, size: 0x8, addend: 0x0, symName: '__ZN4core6option15Option$LT$T$GT$11map_or_else17h8baa4b37a1e8959cE', symObjAddr: 0xCC, symBinAddr: 0xAD04, symSize: 0xDC }
  - { offset: 0x2C26C, size: 0x8, addend: 0x0, symName: '__ZN4core6option15Option$LT$T$GT$16unwrap_unchecked17h0c118dfe2b33e4b1E', symObjAddr: 0x1A8, symBinAddr: 0xADE0, symSize: 0x4C }
  - { offset: 0x2C2BA, size: 0x8, addend: 0x0, symName: '__ZN4core6option15Option$LT$T$GT$16unwrap_unchecked17h47cc8c6825a581a8E', symObjAddr: 0x1F4, symBinAddr: 0xAE2C, symSize: 0x4C }
  - { offset: 0x2C326, size: 0x8, addend: 0x0, symName: '__ZN4core6option15Option$LT$T$GT$16unwrap_unchecked17h4a5fd75821a37636E', symObjAddr: 0x240, symBinAddr: 0xAE78, symSize: 0x4C }
  - { offset: 0x2C3C2, size: 0x8, addend: 0x0, symName: '__ZN4core6option15Option$LT$T$GT$16unwrap_unchecked17h96edb567b00e5f9fE', symObjAddr: 0x28C, symBinAddr: 0xAEC4, symSize: 0x4C }
  - { offset: 0x2C422, size: 0x8, addend: 0x0, symName: '__ZN4core6option15Option$LT$T$GT$16unwrap_unchecked17ha8c02c0de37be6d1E', symObjAddr: 0x2D8, symBinAddr: 0xAF10, symSize: 0x4C }
  - { offset: 0x2C470, size: 0x8, addend: 0x0, symName: '__ZN4core6option15Option$LT$T$GT$16unwrap_unchecked17hb25d7447d10d3dbbE', symObjAddr: 0x324, symBinAddr: 0xAF5C, symSize: 0x4C }
  - { offset: 0x2C4D0, size: 0x8, addend: 0x0, symName: '__ZN4core6option15Option$LT$T$GT$16unwrap_unchecked17hc7fabfef7e5b5381E', symObjAddr: 0x370, symBinAddr: 0xAFA8, symSize: 0x4C }
  - { offset: 0x2C51E, size: 0x8, addend: 0x0, symName: '__ZN4core6option15Option$LT$T$GT$16unwrap_unchecked17he3118d89a9b33fe8E', symObjAddr: 0x3BC, symBinAddr: 0xAFF4, symSize: 0x4C }
  - { offset: 0x2C57E, size: 0x8, addend: 0x0, symName: '__ZN4core6option15Option$LT$T$GT$16unwrap_unchecked17hf3ad352e7607624aE', symObjAddr: 0x408, symBinAddr: 0xB040, symSize: 0x4C }
  - { offset: 0x2C5CC, size: 0x8, addend: 0x0, symName: '__ZN4core6option15Option$LT$T$GT$16unwrap_unchecked17hfb1b432f16689372E', symObjAddr: 0x454, symBinAddr: 0xB08C, symSize: 0x4C }
  - { offset: 0x2C697, size: 0x8, addend: 0x0, symName: '__ZN4core6option15Option$LT$T$GT$18get_or_insert_with17h584b25a23c73b2dfE', symObjAddr: 0x4A0, symBinAddr: 0xB0D8, symSize: 0x12C }
  - { offset: 0x2CC7F, size: 0x8, addend: 0x0, symName: '__ZN4core6option15Option$LT$T$GT$18get_or_insert_with17h8048ddda6a752304E', symObjAddr: 0x5CC, symBinAddr: 0xB204, symSize: 0x134 }
  - { offset: 0x2CDB1, size: 0x8, addend: 0x0, symName: '__ZN4core6option15Option$LT$T$GT$18get_or_insert_with17hed587d3a3d949429E', symObjAddr: 0x700, symBinAddr: 0xB338, symSize: 0x170 }
  - { offset: 0x2CE56, size: 0x8, addend: 0x0, symName: '__ZN4core6option15Option$LT$T$GT$3map17h02905e6e07971933E', symObjAddr: 0x870, symBinAddr: 0xB4A8, symSize: 0x5C }
  - { offset: 0x2CED9, size: 0x8, addend: 0x0, symName: '__ZN4core6option15Option$LT$T$GT$3map17h136c8a131c2aca0cE', symObjAddr: 0x8CC, symBinAddr: 0xB504, symSize: 0x7C }
  - { offset: 0x2CF44, size: 0x8, addend: 0x0, symName: '__ZN4core6option15Option$LT$T$GT$3map17h26619ac7f84764ecE', symObjAddr: 0x948, symBinAddr: 0xB580, symSize: 0x58 }
  - { offset: 0x2CFBC, size: 0x8, addend: 0x0, symName: '__ZN4core6option15Option$LT$T$GT$3map17h3046613486914580E', symObjAddr: 0x9A0, symBinAddr: 0xB5D8, symSize: 0x50 }
  - { offset: 0x2D03F, size: 0x8, addend: 0x0, symName: '__ZN4core6option15Option$LT$T$GT$3map17h3a4e1e5e61ec0bb4E', symObjAddr: 0x9F0, symBinAddr: 0xB628, symSize: 0x78 }
  - { offset: 0x2D141, size: 0x8, addend: 0x0, symName: '__ZN4core6option15Option$LT$T$GT$3map17h4e5cfe6c032029cbE', symObjAddr: 0xA68, symBinAddr: 0xB6A0, symSize: 0x5C }
  - { offset: 0x2D1AC, size: 0x8, addend: 0x0, symName: '__ZN4core6option15Option$LT$T$GT$3map17h565279f0e155885cE', symObjAddr: 0xAC4, symBinAddr: 0xB6FC, symSize: 0x78 }
  - { offset: 0x2D217, size: 0x8, addend: 0x0, symName: '__ZN4core6option15Option$LT$T$GT$3map17h5b6afd3c32b764fdE', symObjAddr: 0xB3C, symBinAddr: 0xB774, symSize: 0x78 }
  - { offset: 0x2D282, size: 0x8, addend: 0x0, symName: '__ZN4core6option15Option$LT$T$GT$3map17h5e9fae85117e90fcE', symObjAddr: 0xBB4, symBinAddr: 0xB7EC, symSize: 0x88 }
  - { offset: 0x2D315, size: 0x8, addend: 0x0, symName: '__ZN4core6option15Option$LT$T$GT$3map17h65ba6a40df6d3934E', symObjAddr: 0xC3C, symBinAddr: 0xB874, symSize: 0x90 }
  - { offset: 0x2D380, size: 0x8, addend: 0x0, symName: '__ZN4core6option15Option$LT$T$GT$3map17h695fa87b8ed25852E', symObjAddr: 0xCCC, symBinAddr: 0xB904, symSize: 0x78 }
  - { offset: 0x2D3EB, size: 0x8, addend: 0x0, symName: '__ZN4core6option15Option$LT$T$GT$3map17h9409633b5638884fE', symObjAddr: 0xD44, symBinAddr: 0xB97C, symSize: 0x78 }
  - { offset: 0x2D456, size: 0x8, addend: 0x0, symName: '__ZN4core6option15Option$LT$T$GT$3map17h95b0219f14552f98E', symObjAddr: 0xDBC, symBinAddr: 0xB9F4, symSize: 0x98 }
  - { offset: 0x2D4CF, size: 0x8, addend: 0x0, symName: '__ZN4core6option15Option$LT$T$GT$3map17h9ecfac6331cb0e29E', symObjAddr: 0xE54, symBinAddr: 0xBA8C, symSize: 0xCC }
  - { offset: 0x2D568, size: 0x8, addend: 0x0, symName: '__ZN4core6option15Option$LT$T$GT$3map17ha541d57c7e856994E', symObjAddr: 0xF20, symBinAddr: 0xBB58, symSize: 0x5C }
  - { offset: 0x2D5D3, size: 0x8, addend: 0x0, symName: '__ZN4core6option15Option$LT$T$GT$3map17hae77044a6bda73ffE', symObjAddr: 0xF7C, symBinAddr: 0xBBB4, symSize: 0x5C }
  - { offset: 0x2D65C, size: 0x8, addend: 0x0, symName: '__ZN4core6option15Option$LT$T$GT$3map17hb9ad485b689cfa0cE', symObjAddr: 0xFD8, symBinAddr: 0xBC10, symSize: 0x5C }
  - { offset: 0x2D6ED, size: 0x8, addend: 0x0, symName: '__ZN4core6option15Option$LT$T$GT$3map17he86abbad7de278e6E', symObjAddr: 0x1034, symBinAddr: 0xBC6C, symSize: 0x58 }
  - { offset: 0x2D765, size: 0x8, addend: 0x0, symName: '__ZN4core6option15Option$LT$T$GT$4take17h156cb167fe2b5645E', symObjAddr: 0x108C, symBinAddr: 0xBCC4, symSize: 0x20 }
  - { offset: 0x2D7E3, size: 0x8, addend: 0x0, symName: '__ZN4core6option15Option$LT$T$GT$4take17h164f86f173c326f2E', symObjAddr: 0x10AC, symBinAddr: 0xBCE4, symSize: 0x40 }
  - { offset: 0x2D83A, size: 0x8, addend: 0x0, symName: '__ZN4core6option15Option$LT$T$GT$4take17h8fdb02045589ba49E', symObjAddr: 0x10EC, symBinAddr: 0xBD24, symSize: 0x20 }
  - { offset: 0x2D891, size: 0x8, addend: 0x0, symName: '__ZN4core6option15Option$LT$T$GT$4take17h98aaaa04ddb211f1E', symObjAddr: 0x110C, symBinAddr: 0xBD44, symSize: 0x20 }
  - { offset: 0x2D8E8, size: 0x8, addend: 0x0, symName: '__ZN4core6option15Option$LT$T$GT$4take17hd9f85e96ebf87b28E', symObjAddr: 0x112C, symBinAddr: 0xBD64, symSize: 0x20 }
  - { offset: 0x2D93F, size: 0x8, addend: 0x0, symName: '__ZN4core6option15Option$LT$T$GT$4take17he7c3e726fc44a4c1E', symObjAddr: 0x114C, symBinAddr: 0xBD84, symSize: 0x20 }
  - { offset: 0x2D996, size: 0x8, addend: 0x0, symName: '__ZN4core6option15Option$LT$T$GT$6as_ref17h0b4b14636ac35453E', symObjAddr: 0x116C, symBinAddr: 0xBDA4, symSize: 0x4C }
  - { offset: 0x2D9ED, size: 0x8, addend: 0x0, symName: '__ZN4core6option15Option$LT$T$GT$6as_ref17h1b6a82eb522039f8E', symObjAddr: 0x11B8, symBinAddr: 0xBDF0, symSize: 0x48 }
  - { offset: 0x2DA44, size: 0x8, addend: 0x0, symName: '__ZN4core6option15Option$LT$T$GT$6as_ref17h4c48b8bbf646cc97E', symObjAddr: 0x1200, symBinAddr: 0xBE38, symSize: 0x48 }
  - { offset: 0x2DA9B, size: 0x8, addend: 0x0, symName: '__ZN4core6option15Option$LT$T$GT$6as_ref17h6afe56d4140599e6E', symObjAddr: 0x1248, symBinAddr: 0xBE80, symSize: 0x48 }
  - { offset: 0x2DAF2, size: 0x8, addend: 0x0, symName: '__ZN4core6option15Option$LT$T$GT$6as_ref17h9c221080cb92976aE', symObjAddr: 0x1290, symBinAddr: 0xBEC8, symSize: 0x48 }
  - { offset: 0x2DB49, size: 0x8, addend: 0x0, symName: '__ZN4core6option15Option$LT$T$GT$6as_ref17haade0fb7c646b651E', symObjAddr: 0x12D8, symBinAddr: 0xBF10, symSize: 0x48 }
  - { offset: 0x2DBA7, size: 0x8, addend: 0x0, symName: '__ZN4core6option15Option$LT$T$GT$6expect17hc6aafbd183f08821E', symObjAddr: 0x1320, symBinAddr: 0xBF58, symSize: 0x5C }
  - { offset: 0x2DC52, size: 0x8, addend: 0x0, symName: '__ZN4core6option15Option$LT$T$GT$6insert17h9f5ddc48225035c4E', symObjAddr: 0x137C, symBinAddr: 0xBFB4, symSize: 0xA8 }
  - { offset: 0x2DD58, size: 0x8, addend: 0x0, symName: '__ZN4core6option15Option$LT$T$GT$6insert17haae94cb62ca52b75E', symObjAddr: 0x1424, symBinAddr: 0xC05C, symSize: 0xA8 }
  - { offset: 0x2DE5E, size: 0x8, addend: 0x0, symName: '__ZN4core6option15Option$LT$T$GT$6insert17hb9e073b050ecd616E', symObjAddr: 0x14CC, symBinAddr: 0xC104, symSize: 0xC4 }
  - { offset: 0x2DF83, size: 0x8, addend: 0x0, symName: '__ZN4core6option15Option$LT$T$GT$6insert17heabfad3f218f96daE', symObjAddr: 0x1590, symBinAddr: 0xC1C8, symSize: 0xA8 }
  - { offset: 0x2E019, size: 0x8, addend: 0x0, symName: '__ZN4core6option15Option$LT$T$GT$6map_or17h8836506e7cf9eb0dE', symObjAddr: 0x1638, symBinAddr: 0xC270, symSize: 0x9C }
  - { offset: 0x2E08B, size: 0x8, addend: 0x0, symName: '__ZN4core6option15Option$LT$T$GT$6map_or17hdb015a0d2fa46226E', symObjAddr: 0x16D4, symBinAddr: 0xC30C, symSize: 0x98 }
  - { offset: 0x2E16E, size: 0x8, addend: 0x0, symName: '__ZN4core6option15Option$LT$T$GT$7is_none17h3c46f99de105d757E', symObjAddr: 0x176C, symBinAddr: 0xC3A4, symSize: 0x28 }
  - { offset: 0x2E1EE, size: 0x8, addend: 0x0, symName: '__ZN4core6option15Option$LT$T$GT$7is_none17hc8cdec8cd7308557E', symObjAddr: 0x1794, symBinAddr: 0xC3CC, symSize: 0x28 }
  - { offset: 0x2E26E, size: 0x8, addend: 0x0, symName: '__ZN4core6option15Option$LT$T$GT$7is_none17heca8e7baa27e9547E', symObjAddr: 0x17BC, symBinAddr: 0xC3F4, symSize: 0x28 }
  - { offset: 0x2E2C5, size: 0x8, addend: 0x0, symName: '__ZN4core6option15Option$LT$T$GT$7is_some17h0d96c61d3a5b07fbE', symObjAddr: 0x17E4, symBinAddr: 0xC41C, symSize: 0x2C }
  - { offset: 0x2E2F1, size: 0x8, addend: 0x0, symName: '__ZN4core6option15Option$LT$T$GT$7is_some17h6c4af875a9aebe76E', symObjAddr: 0x1810, symBinAddr: 0xC448, symSize: 0x28 }
  - { offset: 0x2E32A, size: 0x8, addend: 0x0, symName: '__ZN4core6option15Option$LT$T$GT$7is_some17hc0672c519e0bc40fE', symObjAddr: 0x1838, symBinAddr: 0xC470, symSize: 0x28 }
  - { offset: 0x2E356, size: 0x8, addend: 0x0, symName: '__ZN4core6option15Option$LT$T$GT$7or_else17h461389f8e516103fE', symObjAddr: 0x1860, symBinAddr: 0xC498, symSize: 0xB8 }
  - { offset: 0x2E39A, size: 0x8, addend: 0x0, symName: '__ZN4core6option15Option$LT$T$GT$7or_else17h4eddf92c2d9d9b2dE', symObjAddr: 0x1918, symBinAddr: 0xC550, symSize: 0xB8 }
  - { offset: 0x2E3DE, size: 0x8, addend: 0x0, symName: '__ZN4core6option15Option$LT$T$GT$7or_else17h8d880dec3b72a0feE', symObjAddr: 0x19D0, symBinAddr: 0xC608, symSize: 0xB8 }
  - { offset: 0x2E473, size: 0x8, addend: 0x0, symName: '__ZN4core6option15Option$LT$T$GT$7or_else17h947250a1dcab5026E', symObjAddr: 0x1A88, symBinAddr: 0xC6C0, symSize: 0xB8 }
  - { offset: 0x2E4B7, size: 0x8, addend: 0x0, symName: '__ZN4core6option15Option$LT$T$GT$7or_else17ha9c2cfc50580e337E', symObjAddr: 0x1B40, symBinAddr: 0xC778, symSize: 0xB8 }
  - { offset: 0x2E4FB, size: 0x8, addend: 0x0, symName: '__ZN4core6option15Option$LT$T$GT$7or_else17haf24fa22784aafa0E', symObjAddr: 0x1BF8, symBinAddr: 0xC830, symSize: 0xB8 }
  - { offset: 0x2E53F, size: 0x8, addend: 0x0, symName: '__ZN4core6option15Option$LT$T$GT$7or_else17hd73d536009d7272dE', symObjAddr: 0x1CB0, symBinAddr: 0xC8E8, symSize: 0xB8 }
  - { offset: 0x2E590, size: 0x8, addend: 0x0, symName: '__ZN4core6option15Option$LT$T$GT$7replace17h3f3328039dcfb33cE', symObjAddr: 0x1D68, symBinAddr: 0xC9A0, symSize: 0x28 }
  - { offset: 0x2E5E9, size: 0x8, addend: 0x0, symName: '__ZN4core6option15Option$LT$T$GT$8and_then17h10752f5bf5b76986E', symObjAddr: 0x1D90, symBinAddr: 0xC9C8, symSize: 0x70 }
  - { offset: 0x2E6CD, size: 0x8, addend: 0x0, symName: '__ZN4core6option15Option$LT$T$GT$8and_then17h10fa8ba31742dbceE', symObjAddr: 0x1E00, symBinAddr: 0xCA38, symSize: 0x64 }
  - { offset: 0x2E745, size: 0x8, addend: 0x0, symName: '__ZN4core6option15Option$LT$T$GT$8and_then17h34ed2219113be4c7E', symObjAddr: 0x1E64, symBinAddr: 0xCA9C, symSize: 0x5C }
  - { offset: 0x2E7BD, size: 0x8, addend: 0x0, symName: '__ZN4core6option15Option$LT$T$GT$8and_then17h4585636a50ef4e36E', symObjAddr: 0x1EC0, symBinAddr: 0xCAF8, symSize: 0x64 }
  - { offset: 0x2E8D5, size: 0x8, addend: 0x0, symName: '__ZN4core6option15Option$LT$T$GT$8as_deref17h858ff43a7261659eE', symObjAddr: 0x1F24, symBinAddr: 0xCB5C, symSize: 0x78 }
  - { offset: 0x2EA38, size: 0x8, addend: 0x0, symName: '__ZN4core6option15Option$LT$T$GT$8as_deref17hedcf186dea50f8d4E', symObjAddr: 0x1F9C, symBinAddr: 0xCBD4, symSize: 0x6C }
  - { offset: 0x2EAE1, size: 0x8, addend: 0x0, symName: '__ZN4core6option19Option$LT$$RF$T$GT$6cloned17hc3d5f505348ffb9eE', symObjAddr: 0x2008, symBinAddr: 0xCC40, symSize: 0x6C }
  - { offset: 0x2EB2B, size: 0x8, addend: 0x0, symName: '__ZN4core6option19Option$LT$$RF$T$GT$6cloned17hcd4d5934deca6d2aE', symObjAddr: 0x2074, symBinAddr: 0xCCAC, symSize: 0x54 }
  - { offset: 0x2EB93, size: 0x8, addend: 0x0, symName: '__ZN4core6option19Option$LT$$RF$T$GT$6copied17h5183311560ac3457E', symObjAddr: 0x20C8, symBinAddr: 0xCD00, symSize: 0x54 }
  - { offset: 0x2EBDD, size: 0x8, addend: 0x0, symName: '__ZN4core6option47Option$LT$core..result..Result$LT$T$C$E$GT$$GT$9transpose17h8bf0c95507e26d1fE', symObjAddr: 0x211C, symBinAddr: 0xCD54, symSize: 0xD0 }
  - { offset: 0x2EEBE, size: 0x8, addend: 0x0, symName: '__ZN53_$LT$T$u20$as$u20$core..slice..cmp..SliceContains$GT$14slice_contains28_$u7b$$u7b$closure$u7d$$u7d$17had43c60a55ce95cdE', symObjAddr: 0x0, symBinAddr: 0xD15C, symSize: 0x38 }
  - { offset: 0x2EEE4, size: 0x8, addend: 0x0, symName: '__ZN53_$LT$T$u20$as$u20$core..slice..cmp..SliceContains$GT$14slice_contains28_$u7b$$u7b$closure$u7d$$u7d$17had43c60a55ce95cdE', symObjAddr: 0x0, symBinAddr: 0xD15C, symSize: 0x38 }
  - { offset: 0x2EF39, size: 0x8, addend: 0x0, symName: '__ZN56_$LT$char$u20$as$u20$core..slice..cmp..SliceContains$GT$14slice_contains28_$u7b$$u7b$closure$u7d$$u7d$17haed00f0e857c09bcE', symObjAddr: 0x38, symBinAddr: 0xD194, symSize: 0x30 }
  - { offset: 0x2EF79, size: 0x8, addend: 0x0, symName: '__ZN56_$LT$char$u20$as$u20$core..slice..cmp..SliceContains$GT$14slice_contains28_$u7b$$u7b$closure$u7d$$u7d$17hecf28557201f4f41E', symObjAddr: 0x68, symBinAddr: 0xD1C4, symSize: 0x38 }
  - { offset: 0x2F198, size: 0x8, addend: 0x0, symName: '__ZN5alloc7raw_vec19RawVec$LT$T$C$A$GT$8grow_one17h09826196bc643b1aE', symObjAddr: 0x0, symBinAddr: 0xD1FC, symSize: 0x88 }
  - { offset: 0x304E0, size: 0x8, addend: 0x0, symName: '__ZN5alloc7raw_vec19RawVec$LT$T$C$A$GT$8grow_one17h09826196bc643b1aE', symObjAddr: 0x0, symBinAddr: 0xD1FC, symSize: 0x88 }
  - { offset: 0x30E04, size: 0x8, addend: 0x0, symName: '__ZN5alloc7raw_vec19RawVec$LT$T$C$A$GT$8grow_one17h0f23e98887eb841fE', symObjAddr: 0x88, symBinAddr: 0xD284, symSize: 0x84 }
  - { offset: 0x30FD2, size: 0x8, addend: 0x0, symName: '__ZN5alloc7raw_vec19RawVec$LT$T$C$A$GT$8grow_one17h1231df9ec3c396ceE', symObjAddr: 0x10C, symBinAddr: 0xD308, symSize: 0x88 }
  - { offset: 0x310A9, size: 0x8, addend: 0x0, symName: '__ZN5alloc7raw_vec19RawVec$LT$T$C$A$GT$8grow_one17h1f181d50c1409c4eE', symObjAddr: 0x194, symBinAddr: 0xD390, symSize: 0x88 }
  - { offset: 0x31179, size: 0x8, addend: 0x0, symName: '__ZN5alloc7raw_vec19RawVec$LT$T$C$A$GT$8grow_one17hbbdc6c0985483c63E', symObjAddr: 0x21C, symBinAddr: 0xD418, symSize: 0x88 }
  - { offset: 0x31204, size: 0x8, addend: 0x0, symName: __ZN3std4sync4once4Once12is_completed17hd9f89739914456cbE, symObjAddr: 0x0, symBinAddr: 0xD4A0, symSize: 0x38 }
  - { offset: 0x313B6, size: 0x8, addend: 0x0, symName: __ZN3std4sync4once4Once12is_completed17hd9f89739914456cbE, symObjAddr: 0x0, symBinAddr: 0xD4A0, symSize: 0x38 }
  - { offset: 0x3143C, size: 0x8, addend: 0x0, symName: '__ZN69_$LT$siphasher..sip128..SipHasher13$u20$as$u20$core..hash..Hasher$GT$5write17h76c9365ed41b4173E', symObjAddr: 0x0, symBinAddr: 0xD4D8, symSize: 0x30 }
  - { offset: 0x31458, size: 0x8, addend: 0x0, symName: '__ZN69_$LT$siphasher..sip128..SipHasher13$u20$as$u20$core..hash..Hasher$GT$5write17h76c9365ed41b4173E', symObjAddr: 0x0, symBinAddr: 0xD4D8, symSize: 0x30 }
  - { offset: 0x31491, size: 0x8, addend: 0x0, symName: '__ZN69_$LT$siphasher..sip128..SipHasher13$u20$as$u20$core..hash..Hasher$GT$9write_u3217h6c5b26bbcc7f3cd7E', symObjAddr: 0x30, symBinAddr: 0xD508, symSize: 0x28 }
  - { offset: 0x314D0, size: 0x8, addend: 0x0, symName: '__ZN73_$LT$siphasher..sip128..Sip13Rounds$u20$as$u20$siphasher..sip128..Sip$GT$8c_rounds17h783d87259d6e7975E', symObjAddr: 0x58, symBinAddr: 0xD530, symSize: 0x184 }
  - { offset: 0x31674, size: 0x8, addend: 0x0, symName: '__ZN73_$LT$siphasher..sip128..Sip13Rounds$u20$as$u20$siphasher..sip128..Sip$GT$8d_rounds17h4592af2d0ae07764E', symObjAddr: 0x1DC, symBinAddr: 0xD6B4, symSize: 0x45C }
  - { offset: 0x31B2E, size: 0x8, addend: 0x0, symName: '__ZN79_$LT$siphasher..sip128..SipHasher13$u20$as$u20$siphasher..sip128..Hasher128$GT$9finish12817h971c1cad0c17a188E', symObjAddr: 0x638, symBinAddr: 0xDB10, symSize: 0x24 }
  - { offset: 0x31CE7, size: 0x8, addend: 0x0, symName: __ZN9siphasher6sip12811SipHasher1313new_with_keys17h38ee3a4898caa90cE, symObjAddr: 0x65C, symBinAddr: 0xDB34, symSize: 0x44 }
  - { offset: 0x31D8A, size: 0x8, addend: 0x0, symName: '__ZN7tinyvec5array18const_generic_impl74_$LT$impl$u20$tinyvec..array..Array$u20$for$u20$$u5b$T$u3b$$u20$N$u5d$$GT$7default28_$u7b$$u7b$closure$u7d$$u7d$17h7f632e5abde0d934E', symObjAddr: 0x0, symBinAddr: 0xDB78, symSize: 0x20 }
  - { offset: 0x31DB0, size: 0x8, addend: 0x0, symName: '__ZN7tinyvec5array18const_generic_impl74_$LT$impl$u20$tinyvec..array..Array$u20$for$u20$$u5b$T$u3b$$u20$N$u5d$$GT$7default28_$u7b$$u7b$closure$u7d$$u7d$17h7f632e5abde0d934E', symObjAddr: 0x0, symBinAddr: 0xDB78, symSize: 0x20 }
  - { offset: 0x31DEB, size: 0x8, addend: 0x0, symName: '__ZN7tinyvec5array18const_generic_impl74_$LT$impl$u20$tinyvec..array..Array$u20$for$u20$$u5b$T$u3b$$u20$N$u5d$$GT$7default28_$u7b$$u7b$closure$u7d$$u7d$17hb40815ddc38c8a58E', symObjAddr: 0x20, symBinAddr: 0xDB98, symSize: 0x14 }
  - { offset: 0x31EA4, size: 0x8, addend: 0x0, symName: '__ZN59_$LT$alloc..alloc..Global$u20$as$u20$core..clone..Clone$GT$5clone17ha9647d9ee405acebE', symObjAddr: 0x0, symBinAddr: 0xDBAC, symSize: 0x10 }
  - { offset: 0x3281A, size: 0x8, addend: 0x0, symName: '__ZN59_$LT$alloc..alloc..Global$u20$as$u20$core..clone..Clone$GT$5clone17ha9647d9ee405acebE', symObjAddr: 0x0, symBinAddr: 0xDBAC, symSize: 0x10 }
  - { offset: 0x32870, size: 0x8, addend: 0x0, symName: '__ZN63_$LT$alloc..alloc..Global$u20$as$u20$core..alloc..Allocator$GT$10deallocate17h1d82a32cdfcb21a0E', symObjAddr: 0x254, symBinAddr: 0xDE00, symSize: 0x58 }
  - { offset: 0x32925, size: 0x8, addend: 0x0, symName: __ZN5alloc5alloc15exchange_malloc17h0283259fa2058341E, symObjAddr: 0x10, symBinAddr: 0xDBBC, symSize: 0xAC }
  - { offset: 0x32A1C, size: 0x8, addend: 0x0, symName: '__ZN63_$LT$alloc..alloc..Global$u20$as$u20$core..default..Default$GT$7default17h1d879634708109a5E', symObjAddr: 0x2AC, symBinAddr: 0xDE58, symSize: 0x4 }
  - { offset: 0x32C4B, size: 0x8, addend: 0x0, symName: __ZN5alloc5alloc6Global10alloc_impl17h27bf41622b1a4efcE, symObjAddr: 0xBC, symBinAddr: 0xDC68, symSize: 0x198 }
  - { offset: 0x3301F, size: 0x8, addend: 0x0, symName: '__ZN5alloc5boxed16Box$LT$T$C$A$GT$4leak17h84f52f6895dec241E', symObjAddr: 0x0, symBinAddr: 0xDE5C, symSize: 0x18 }
  - { offset: 0x3303B, size: 0x8, addend: 0x0, symName: '__ZN5alloc5boxed16Box$LT$T$C$A$GT$4leak17h84f52f6895dec241E', symObjAddr: 0x0, symBinAddr: 0xDE5C, symSize: 0x18 }
  - { offset: 0x33081, size: 0x8, addend: 0x0, symName: '__ZN86_$LT$alloc..boxed..Box$LT$F$C$A$GT$$u20$as$u20$core..ops..function..Fn$LT$Args$GT$$GT$4call17h39adaaf8441745eaE', symObjAddr: 0x18, symBinAddr: 0xDE74, symSize: 0x34 }
  - { offset: 0x346C3, size: 0x8, addend: 0x0, symName: '__ZN105_$LT$hashbrown..set..HashSet$LT$T$C$S$C$A$GT$$u20$as$u20$core..iter..traits..collect..Extend$LT$T$GT$$GT$6extend17h3c025bb8e0774b5cE', symObjAddr: 0x0, symBinAddr: 0xDEA8, symSize: 0x5C }
  - { offset: 0x346DF, size: 0x8, addend: 0x0, symName: '__ZN105_$LT$hashbrown..set..HashSet$LT$T$C$S$C$A$GT$$u20$as$u20$core..iter..traits..collect..Extend$LT$T$GT$$GT$6extend17h3c025bb8e0774b5cE', symObjAddr: 0x0, symBinAddr: 0xDEA8, symSize: 0x5C }
  - { offset: 0x3473C, size: 0x8, addend: 0x0, symName: '__ZN105_$LT$hashbrown..set..HashSet$LT$T$C$S$C$A$GT$$u20$as$u20$core..iter..traits..collect..Extend$LT$T$GT$$GT$6extend17h552ca0ac6d9ffcbbE', symObjAddr: 0x5C, symBinAddr: 0xDF04, symSize: 0x5C }
  - { offset: 0x3479E, size: 0x8, addend: 0x0, symName: '__ZN105_$LT$hashbrown..set..HashSet$LT$T$C$S$C$A$GT$$u20$as$u20$core..iter..traits..collect..Extend$LT$T$GT$$GT$6extend28_$u7b$$u7b$closure$u7d$$u7d$17h2e7af0ddbdd596f5E', symObjAddr: 0xB8, symBinAddr: 0xDF60, symSize: 0x28 }
  - { offset: 0x347FB, size: 0x8, addend: 0x0, symName: '__ZN105_$LT$hashbrown..set..HashSet$LT$T$C$S$C$A$GT$$u20$as$u20$core..iter..traits..collect..Extend$LT$T$GT$$GT$6extend28_$u7b$$u7b$closure$u7d$$u7d$17hca24828994df81ffE', symObjAddr: 0xE0, symBinAddr: 0xDF88, symSize: 0x28 }
  - { offset: 0x34D58, size: 0x8, addend: 0x0, symName: '__ZN4core3num21_$LT$impl$u20$u32$GT$14from_str_radix17hd36bd94776d9bd10E', symObjAddr: 0x0, symBinAddr: 0xDFB0, symSize: 0x3C }
  - { offset: 0x34DB9, size: 0x8, addend: 0x0, symName: '__ZN4core3num21_$LT$impl$u20$u32$GT$14from_str_radix17hd36bd94776d9bd10E', symObjAddr: 0x0, symBinAddr: 0xDFB0, symSize: 0x3C }
  - { offset: 0x34DF6, size: 0x8, addend: 0x0, symName: '__ZN4core3num21_$LT$impl$u20$u32$GT$16from_ascii_radix17hfd4999ab724cf3afE', symObjAddr: 0x3C, symBinAddr: 0xDFEC, symSize: 0x46C }
  - { offset: 0x3518D, size: 0x8, addend: 0x0, symName: '__ZN4core3num23_$LT$impl$u20$usize$GT$11checked_add17hf861055b2d99ddcfE', symObjAddr: 0x4A8, symBinAddr: 0xE458, symSize: 0x7C }
  - { offset: 0x35212, size: 0x8, addend: 0x0, symName: '__ZN4core3num23_$LT$impl$u20$usize$GT$11checked_mul17he8d40f99a4d6fc2fE', symObjAddr: 0x524, symBinAddr: 0xE4D4, symSize: 0x74 }
  - { offset: 0x352F0, size: 0x8, addend: 0x0, symName: '__ZN4core3num23_$LT$impl$u20$usize$GT$13unchecked_add18precondition_check17h328f81007cb83bb1E', symObjAddr: 0x598, symBinAddr: 0xE548, symSize: 0x64 }
  - { offset: 0x3536F, size: 0x8, addend: 0x0, symName: '__ZN4core3num23_$LT$impl$u20$usize$GT$13unchecked_sub18precondition_check17h4c00639117a3c1c6E', symObjAddr: 0x5FC, symBinAddr: 0xE5AC, symSize: 0x60 }
  - { offset: 0x353C9, size: 0x8, addend: 0x0, symName: '__ZN4core3num60_$LT$impl$u20$core..str..traits..FromStr$u20$for$u20$u32$GT$8from_str17h490226370056da5eE', symObjAddr: 0x65C, symBinAddr: 0xE60C, symSize: 0x40 }
  - { offset: 0x356D0, size: 0x8, addend: 0x0, symName: __ZN4core4iter6traits8iterator8Iterator4fold17hb257eebd1791965aE, symObjAddr: 0x0, symBinAddr: 0xE64C, symSize: 0xEC }
  - { offset: 0x356FF, size: 0x8, addend: 0x0, symName: '__ZN9hashbrown3raw21RawTable$LT$T$C$A$GT$14reserve_rehash28_$u7b$$u7b$closure$u7d$$u7d$17h10ba8b1cb4319f14E', symObjAddr: 0x55EC, symBinAddr: 0x105B4, symSize: 0xC0 }
  - { offset: 0x358DD, size: 0x8, addend: 0x0, symName: '__ZN9hashbrown3raw21RawTable$LT$T$C$A$GT$14reserve_rehash28_$u7b$$u7b$closure$u7d$$u7d$17h1645b93ec7927b69E', symObjAddr: 0x56AC, symBinAddr: 0x10674, symSize: 0xC0 }
  - { offset: 0x35ABB, size: 0x8, addend: 0x0, symName: '__ZN9hashbrown3raw21RawTable$LT$T$C$A$GT$14reserve_rehash28_$u7b$$u7b$closure$u7d$$u7d$17h361ad5c61d6b0cc1E', symObjAddr: 0x576C, symBinAddr: 0x10734, symSize: 0x30 }
  - { offset: 0x35B0B, size: 0x8, addend: 0x0, symName: '__ZN9hashbrown3raw21RawTable$LT$T$C$A$GT$14reserve_rehash28_$u7b$$u7b$closure$u7d$$u7d$17h3690fcf8c2299aedE', symObjAddr: 0x579C, symBinAddr: 0x10764, symSize: 0x30 }
  - { offset: 0x35B5B, size: 0x8, addend: 0x0, symName: '__ZN9hashbrown3raw21RawTable$LT$T$C$A$GT$14reserve_rehash28_$u7b$$u7b$closure$u7d$$u7d$17h423d10c88448d433E', symObjAddr: 0x57CC, symBinAddr: 0x10794, symSize: 0xC0 }
  - { offset: 0x35D39, size: 0x8, addend: 0x0, symName: '__ZN9hashbrown3raw21RawTable$LT$T$C$A$GT$14reserve_rehash28_$u7b$$u7b$closure$u7d$$u7d$17h5e2b864e5b559e33E', symObjAddr: 0x588C, symBinAddr: 0x10854, symSize: 0xC0 }
  - { offset: 0x35F17, size: 0x8, addend: 0x0, symName: '__ZN9hashbrown3raw21RawTable$LT$T$C$A$GT$14reserve_rehash28_$u7b$$u7b$closure$u7d$$u7d$17h62dee05d45294193E', symObjAddr: 0x594C, symBinAddr: 0x10914, symSize: 0xC0 }
  - { offset: 0x360F5, size: 0x8, addend: 0x0, symName: '__ZN9hashbrown3raw21RawTable$LT$T$C$A$GT$14reserve_rehash28_$u7b$$u7b$closure$u7d$$u7d$17h8a4703628cc04416E', symObjAddr: 0x5A0C, symBinAddr: 0x109D4, symSize: 0x30 }
  - { offset: 0x36145, size: 0x8, addend: 0x0, symName: '__ZN9hashbrown3raw21RawTable$LT$T$C$A$GT$14reserve_rehash28_$u7b$$u7b$closure$u7d$$u7d$17h8ed1fb17c7b6ba88E', symObjAddr: 0x5A3C, symBinAddr: 0x10A04, symSize: 0xC0 }
  - { offset: 0x36323, size: 0x8, addend: 0x0, symName: '__ZN9hashbrown3raw21RawTable$LT$T$C$A$GT$14reserve_rehash28_$u7b$$u7b$closure$u7d$$u7d$17had2875d8c8fd3530E', symObjAddr: 0x5AFC, symBinAddr: 0x10AC4, symSize: 0x30 }
  - { offset: 0x36373, size: 0x8, addend: 0x0, symName: '__ZN9hashbrown3raw21RawTable$LT$T$C$A$GT$14reserve_rehash28_$u7b$$u7b$closure$u7d$$u7d$17hcd8ac56b9dd068d1E', symObjAddr: 0x5B2C, symBinAddr: 0x10AF4, symSize: 0x30 }
  - { offset: 0x363C3, size: 0x8, addend: 0x0, symName: '__ZN9hashbrown3raw21RawTable$LT$T$C$A$GT$14reserve_rehash28_$u7b$$u7b$closure$u7d$$u7d$17hebcf66c741b1731fE', symObjAddr: 0x5B5C, symBinAddr: 0x10B24, symSize: 0xC0 }
  - { offset: 0x365CA, size: 0x8, addend: 0x0, symName: '__ZN9hashbrown3raw21RawTable$LT$T$C$A$GT$25find_or_find_insert_index28_$u7b$$u7b$closure$u7d$$u7d$17h08375d954ed80a27E', symObjAddr: 0x6C64, symBinAddr: 0x11C2C, symSize: 0xC4 }
  - { offset: 0x367B7, size: 0x8, addend: 0x0, symName: '__ZN9hashbrown3raw21RawTable$LT$T$C$A$GT$25find_or_find_insert_index28_$u7b$$u7b$closure$u7d$$u7d$17h0bcc720c7d720072E', symObjAddr: 0x6D28, symBinAddr: 0x11CF0, symSize: 0xC4 }
  - { offset: 0x369A4, size: 0x8, addend: 0x0, symName: '__ZN9hashbrown3raw21RawTable$LT$T$C$A$GT$25find_or_find_insert_index28_$u7b$$u7b$closure$u7d$$u7d$17h1c6b665aeb51bfceE', symObjAddr: 0x6DEC, symBinAddr: 0x11DB4, symSize: 0xC4 }
  - { offset: 0x36B91, size: 0x8, addend: 0x0, symName: '__ZN9hashbrown3raw21RawTable$LT$T$C$A$GT$25find_or_find_insert_index28_$u7b$$u7b$closure$u7d$$u7d$17h68b8cb0a7542e061E', symObjAddr: 0x6EB0, symBinAddr: 0x11E78, symSize: 0xC4 }
  - { offset: 0x36D7E, size: 0x8, addend: 0x0, symName: '__ZN9hashbrown3raw21RawTable$LT$T$C$A$GT$25find_or_find_insert_index28_$u7b$$u7b$closure$u7d$$u7d$17h74fd03b6ef403eeaE', symObjAddr: 0x6F74, symBinAddr: 0x11F3C, symSize: 0xC4 }
  - { offset: 0x36F6B, size: 0x8, addend: 0x0, symName: '__ZN9hashbrown3raw21RawTable$LT$T$C$A$GT$25find_or_find_insert_index28_$u7b$$u7b$closure$u7d$$u7d$17hf487a5dcd49af493E', symObjAddr: 0x7038, symBinAddr: 0x12000, symSize: 0xC4 }
  - { offset: 0x3715E, size: 0x8, addend: 0x0, symName: '__ZN9hashbrown3raw21RawTable$LT$T$C$A$GT$4find28_$u7b$$u7b$closure$u7d$$u7d$17h13793f79b42a3ebfE', symObjAddr: 0x8CC0, symBinAddr: 0x13C88, symSize: 0xC4 }
  - { offset: 0x37342, size: 0x8, addend: 0x0, symName: '__ZN9hashbrown3raw21RawTable$LT$T$C$A$GT$4find28_$u7b$$u7b$closure$u7d$$u7d$17h193a4cceac771500E', symObjAddr: 0x8D84, symBinAddr: 0x13D4C, symSize: 0xC4 }
  - { offset: 0x37526, size: 0x8, addend: 0x0, symName: '__ZN9hashbrown3raw21RawTable$LT$T$C$A$GT$4find28_$u7b$$u7b$closure$u7d$$u7d$17h1b57723642e44262E', symObjAddr: 0x8E48, symBinAddr: 0x13E10, symSize: 0xC4 }
  - { offset: 0x3770A, size: 0x8, addend: 0x0, symName: '__ZN9hashbrown3raw21RawTable$LT$T$C$A$GT$4find28_$u7b$$u7b$closure$u7d$$u7d$17h45d3dcb9030c8c2dE', symObjAddr: 0x8F0C, symBinAddr: 0x13ED4, symSize: 0xC4 }
  - { offset: 0x378EE, size: 0x8, addend: 0x0, symName: '__ZN9hashbrown3raw21RawTable$LT$T$C$A$GT$4find28_$u7b$$u7b$closure$u7d$$u7d$17h568c5c6863fb38a9E', symObjAddr: 0x8FD0, symBinAddr: 0x13F98, symSize: 0xC4 }
  - { offset: 0x37AD2, size: 0x8, addend: 0x0, symName: '__ZN9hashbrown3raw21RawTable$LT$T$C$A$GT$4find28_$u7b$$u7b$closure$u7d$$u7d$17h59608ffaab9c48a6E', symObjAddr: 0x9094, symBinAddr: 0x1405C, symSize: 0xC4 }
  - { offset: 0x37CB6, size: 0x8, addend: 0x0, symName: '__ZN9hashbrown3raw21RawTable$LT$T$C$A$GT$4find28_$u7b$$u7b$closure$u7d$$u7d$17h8b20b8bb5bfe2a61E', symObjAddr: 0x9158, symBinAddr: 0x14120, symSize: 0xC4 }
  - { offset: 0x37E9A, size: 0x8, addend: 0x0, symName: '__ZN9hashbrown3raw21RawTable$LT$T$C$A$GT$4find28_$u7b$$u7b$closure$u7d$$u7d$17h9e5c34207623c192E', symObjAddr: 0x921C, symBinAddr: 0x141E4, symSize: 0xC4 }
  - { offset: 0x3807E, size: 0x8, addend: 0x0, symName: '__ZN9hashbrown3raw21RawTable$LT$T$C$A$GT$4find28_$u7b$$u7b$closure$u7d$$u7d$17ha689df287939d421E', symObjAddr: 0x92E0, symBinAddr: 0x142A8, symSize: 0xC4 }
  - { offset: 0x38276, size: 0x8, addend: 0x0, symName: '__ZN9hashbrown3raw21RawTable$LT$T$C$A$GT$5clear28_$u7b$$u7b$closure$u7d$$u7d$17h34183826fa30d2a1E', symObjAddr: 0x949C, symBinAddr: 0x14464, symSize: 0xD4 }
  - { offset: 0x38434, size: 0x8, addend: 0x0, symName: '__ZN9hashbrown3raw21RawTable$LT$T$C$A$GT$5clear28_$u7b$$u7b$closure$u7d$$u7d$17hbac095b60696ecbfE', symObjAddr: 0x9570, symBinAddr: 0x14538, symSize: 0xD4 }
  - { offset: 0x3A117, size: 0x8, addend: 0x0, symName: '__ZN99_$LT$hashbrown..raw..RawIntoIter$LT$T$C$A$GT$$u20$as$u20$core..iter..traits..iterator..Iterator$GT$4next17h429754c63e1e2b0dE', symObjAddr: 0xEC, symBinAddr: 0xE738, symSize: 0x100 }
  - { offset: 0x3A2DD, size: 0x8, addend: 0x0, symName: '__ZN99_$LT$hashbrown..raw..RawTable$LT$T$C$A$GT$$u20$as$u20$core..iter..traits..collect..IntoIterator$GT$9into_iter17h88176399eb67e843E', symObjAddr: 0x1EC, symBinAddr: 0xE838, symSize: 0x128 }
  - { offset: 0x3E78C, size: 0x8, addend: 0x0, symName: __ZN4core4iter6traits8iterator8Iterator4fold17hb257eebd1791965aE, symObjAddr: 0x0, symBinAddr: 0xE64C, symSize: 0xEC }
  - { offset: 0x4008C, size: 0x8, addend: 0x0, symName: __ZN9hashbrown3raw13RawTableInner13drop_elements17h1643d574386b5097E, symObjAddr: 0x314, symBinAddr: 0xE960, symSize: 0x30 }
  - { offset: 0x402F6, size: 0x8, addend: 0x0, symName: __ZN9hashbrown3raw13RawTableInner13drop_elements17h27a2f1b8371d0331E, symObjAddr: 0x344, symBinAddr: 0xE990, symSize: 0x15C }
  - { offset: 0x406A7, size: 0x8, addend: 0x0, symName: __ZN9hashbrown3raw13RawTableInner13drop_elements17h35f51b28d7551972E, symObjAddr: 0x4A0, symBinAddr: 0xEAEC, symSize: 0x15C }
  - { offset: 0x40A58, size: 0x8, addend: 0x0, symName: __ZN9hashbrown3raw13RawTableInner13drop_elements17h598e156cb03e43e7E, symObjAddr: 0x5FC, symBinAddr: 0xEC48, symSize: 0x15C }
  - { offset: 0x40E09, size: 0x8, addend: 0x0, symName: __ZN9hashbrown3raw13RawTableInner13drop_elements17hc6b64447e823cc4eE, symObjAddr: 0x758, symBinAddr: 0xEDA4, symSize: 0x15C }
  - { offset: 0x41121, size: 0x8, addend: 0x0, symName: __ZN9hashbrown3raw13RawTableInner13drop_elements17he07235ac93947211E, symObjAddr: 0x8B4, symBinAddr: 0xEF00, symSize: 0x30 }
  - { offset: 0x413BF, size: 0x8, addend: 0x0, symName: __ZN9hashbrown3raw13RawTableInner13drop_elements17he3cbe0b314826ef2E, symObjAddr: 0x8E4, symBinAddr: 0xEF30, symSize: 0x15C }
  - { offset: 0x41768, size: 0x8, addend: 0x0, symName: __ZN9hashbrown3raw13RawTableInner16drop_inner_table17h146d59bc7a4bc843E, symObjAddr: 0xA40, symBinAddr: 0xF08C, symSize: 0xAC }
  - { offset: 0x419ED, size: 0x8, addend: 0x0, symName: __ZN9hashbrown3raw13RawTableInner16drop_inner_table17h49ccc2f41a786fa6E, symObjAddr: 0xAEC, symBinAddr: 0xF138, symSize: 0xAC }
  - { offset: 0x41C72, size: 0x8, addend: 0x0, symName: __ZN9hashbrown3raw13RawTableInner16drop_inner_table17h5da1526d237d61b0E, symObjAddr: 0xB98, symBinAddr: 0xF1E4, symSize: 0xAC }
  - { offset: 0x41EF7, size: 0x8, addend: 0x0, symName: __ZN9hashbrown3raw13RawTableInner16drop_inner_table17hcfbdf408cbcab3e7E, symObjAddr: 0xC44, symBinAddr: 0xF290, symSize: 0xAC }
  - { offset: 0x4217C, size: 0x8, addend: 0x0, symName: __ZN9hashbrown3raw13RawTableInner16drop_inner_table17he1dc34a97892f027E, symObjAddr: 0xCF0, symBinAddr: 0xF33C, symSize: 0xAC }
  - { offset: 0x42401, size: 0x8, addend: 0x0, symName: __ZN9hashbrown3raw13RawTableInner16drop_inner_table17he6b0f3885b866b52E, symObjAddr: 0xD9C, symBinAddr: 0xF3E8, symSize: 0xAC }
  - { offset: 0x42686, size: 0x8, addend: 0x0, symName: __ZN9hashbrown3raw13RawTableInner16drop_inner_table17hed6735a9c846a018E, symObjAddr: 0xE48, symBinAddr: 0xF494, symSize: 0xAC }
  - { offset: 0x42875, size: 0x8, addend: 0x0, symName: '__ZN9hashbrown3raw16RawIter$LT$T$GT$13drop_elements17h761f2bbda4d787c3E', symObjAddr: 0xEF4, symBinAddr: 0xF540, symSize: 0xDC }
  - { offset: 0x429FB, size: 0x8, addend: 0x0, symName: '__ZN9hashbrown3raw21RawIterRange$LT$T$GT$3new17h1e1ff09ad5829718E', symObjAddr: 0xFD0, symBinAddr: 0xF61C, symSize: 0x98 }
  - { offset: 0x42B68, size: 0x8, addend: 0x0, symName: '__ZN9hashbrown3raw21RawIterRange$LT$T$GT$3new17h502321a46b11f4eaE', symObjAddr: 0x1068, symBinAddr: 0xF6B4, symSize: 0x98 }
  - { offset: 0x42CD5, size: 0x8, addend: 0x0, symName: '__ZN9hashbrown3raw21RawIterRange$LT$T$GT$3new17ha4475beaffb56307E', symObjAddr: 0x1100, symBinAddr: 0xF74C, symSize: 0x98 }
  - { offset: 0x42E42, size: 0x8, addend: 0x0, symName: '__ZN9hashbrown3raw21RawIterRange$LT$T$GT$3new17hc0fe3f62d6eb4c57E', symObjAddr: 0x1198, symBinAddr: 0xF7E4, symSize: 0x98 }
  - { offset: 0x42FAF, size: 0x8, addend: 0x0, symName: '__ZN9hashbrown3raw21RawIterRange$LT$T$GT$3new17hca9f578529430fdaE', symObjAddr: 0x1230, symBinAddr: 0xF87C, symSize: 0x98 }
  - { offset: 0x43243, size: 0x8, addend: 0x0, symName: '__ZN9hashbrown3raw21RawIterRange$LT$T$GT$9next_impl17h0831821062df9db2E', symObjAddr: 0x12C8, symBinAddr: 0xF914, symSize: 0x1B4 }
  - { offset: 0x4368E, size: 0x8, addend: 0x0, symName: '__ZN9hashbrown3raw21RawIterRange$LT$T$GT$9next_impl17h5f27c9828518abf4E', symObjAddr: 0x147C, symBinAddr: 0xFAC8, symSize: 0x1B4 }
  - { offset: 0x43AD9, size: 0x8, addend: 0x0, symName: '__ZN9hashbrown3raw21RawIterRange$LT$T$GT$9next_impl17ha2c07120028f91dbE', symObjAddr: 0x1630, symBinAddr: 0xFC7C, symSize: 0x1B4 }
  - { offset: 0x43F24, size: 0x8, addend: 0x0, symName: '__ZN9hashbrown3raw21RawIterRange$LT$T$GT$9next_impl17hc22eece5e8ebc241E', symObjAddr: 0x17E4, symBinAddr: 0xFE30, symSize: 0x1B4 }
  - { offset: 0x4436F, size: 0x8, addend: 0x0, symName: '__ZN9hashbrown3raw21RawIterRange$LT$T$GT$9next_impl17hd412044a8442740eE', symObjAddr: 0x1998, symBinAddr: 0xFFE4, symSize: 0x1B4 }
  - { offset: 0x44673, size: 0x8, addend: 0x0, symName: '__ZN9hashbrown3raw21RawTable$LT$T$C$A$GT$12remove_entry17hb9e160ab84ffd089E', symObjAddr: 0x1B4C, symBinAddr: 0x10198, symSize: 0xAC }
  - { offset: 0x446FA, size: 0x8, addend: 0x0, symName: '__ZN9hashbrown3raw21RawTable$LT$T$C$A$GT$12remove_entry17hd77708e327d7ee62E', symObjAddr: 0x1BF8, symBinAddr: 0x10244, symSize: 0xB4 }
  - { offset: 0x44813, size: 0x8, addend: 0x0, symName: '__ZN9hashbrown3raw21RawTable$LT$T$C$A$GT$13erase_no_drop17hb8b2bfc2e36f07faE', symObjAddr: 0x1CAC, symBinAddr: 0x102F8, symSize: 0x90 }
  - { offset: 0x44A06, size: 0x8, addend: 0x0, symName: '__ZN9hashbrown3raw21RawTable$LT$T$C$A$GT$13erase_no_drop17he01cdb860b5003aeE', symObjAddr: 0x1D3C, symBinAddr: 0x10388, symSize: 0x90 }
  - { offset: 0x44D87, size: 0x8, addend: 0x0, symName: '__ZN9hashbrown3raw21RawTable$LT$T$C$A$GT$14insert_no_grow17h812cdc7a5ee1c7d1E', symObjAddr: 0x1DCC, symBinAddr: 0x10418, symSize: 0x19C }
  - { offset: 0x455FB, size: 0x8, addend: 0x0, symName: '__ZN9hashbrown3raw21RawTable$LT$T$C$A$GT$14reserve_rehash17h1a904bbfae82e9fbE', symObjAddr: 0x1F68, symBinAddr: 0x30D2F0, symSize: 0x7C4 }
  - { offset: 0x45EBF, size: 0x8, addend: 0x0, symName: '__ZN9hashbrown3raw21RawTable$LT$T$C$A$GT$14reserve_rehash17h3282cd4b9c66d3dbE', symObjAddr: 0x272C, symBinAddr: 0x30DAB4, symSize: 0x7D4 }
  - { offset: 0x46776, size: 0x8, addend: 0x0, symName: '__ZN9hashbrown3raw21RawTable$LT$T$C$A$GT$14reserve_rehash17h498b4937e6812e82E', symObjAddr: 0x2F00, symBinAddr: 0x30E288, symSize: 0x7C4 }
  - { offset: 0x4703A, size: 0x8, addend: 0x0, symName: '__ZN9hashbrown3raw21RawTable$LT$T$C$A$GT$14reserve_rehash17h5f4745aadd07932aE', symObjAddr: 0x36C4, symBinAddr: 0x30EA4C, symSize: 0x7C4 }
  - { offset: 0x478FE, size: 0x8, addend: 0x0, symName: '__ZN9hashbrown3raw21RawTable$LT$T$C$A$GT$14reserve_rehash17h64ca8bd3f7233b5aE', symObjAddr: 0x3E88, symBinAddr: 0x30F210, symSize: 0x7D4 }
  - { offset: 0x481C2, size: 0x8, addend: 0x0, symName: '__ZN9hashbrown3raw21RawTable$LT$T$C$A$GT$14reserve_rehash17h71423f0c6aad599dE', symObjAddr: 0x465C, symBinAddr: 0x30F9E4, symSize: 0x7C4 }
  - { offset: 0x48A86, size: 0x8, addend: 0x0, symName: '__ZN9hashbrown3raw21RawTable$LT$T$C$A$GT$14reserve_rehash17hb48fdf6fadf28fd8E', symObjAddr: 0x4E20, symBinAddr: 0x3101A8, symSize: 0x7CC }
  - { offset: 0x49C7E, size: 0x8, addend: 0x0, symName: '__ZN9hashbrown3raw21RawTable$LT$T$C$A$GT$15into_allocation17h0dc4429a0cab2ceeE', symObjAddr: 0x5C1C, symBinAddr: 0x10BE4, symSize: 0x120 }
  - { offset: 0x49DC5, size: 0x8, addend: 0x0, symName: '__ZN9hashbrown3raw21RawTable$LT$T$C$A$GT$16with_capacity_in17h3a9756b6a0946dccE', symObjAddr: 0x5D3C, symBinAddr: 0x10D04, symSize: 0x98 }
  - { offset: 0x49E73, size: 0x8, addend: 0x0, symName: '__ZN9hashbrown3raw21RawTable$LT$T$C$A$GT$16with_capacity_in17h827529ee4a7e8782E', symObjAddr: 0x5DD4, symBinAddr: 0x10D9C, symSize: 0x98 }
  - { offset: 0x4A0A7, size: 0x8, addend: 0x0, symName: '__ZN9hashbrown3raw21RawTable$LT$T$C$A$GT$22insert_tagged_at_index17h4be58550ace227b3E', symObjAddr: 0x5E6C, symBinAddr: 0x10E34, symSize: 0x124 }
  - { offset: 0x4A5E5, size: 0x8, addend: 0x0, symName: '__ZN9hashbrown3raw21RawTable$LT$T$C$A$GT$22insert_tagged_at_index17h9ef7eee8ee7eef9dE', symObjAddr: 0x5F90, symBinAddr: 0x10F58, symSize: 0x124 }
  - { offset: 0x4AB0B, size: 0x8, addend: 0x0, symName: '__ZN9hashbrown3raw21RawTable$LT$T$C$A$GT$22insert_tagged_at_index17h9f8d49de0525a497E', symObjAddr: 0x60B4, symBinAddr: 0x1107C, symSize: 0x11C }
  - { offset: 0x4B03B, size: 0x8, addend: 0x0, symName: '__ZN9hashbrown3raw21RawTable$LT$T$C$A$GT$22insert_tagged_at_index17hcad85d3531d1d2d7E', symObjAddr: 0x61D0, symBinAddr: 0x11198, symSize: 0x11C }
  - { offset: 0x4B56B, size: 0x8, addend: 0x0, symName: '__ZN9hashbrown3raw21RawTable$LT$T$C$A$GT$22insert_tagged_at_index17hf39cd35205347231E', symObjAddr: 0x62EC, symBinAddr: 0x112B4, symSize: 0x11C }
  - { offset: 0x4BA9B, size: 0x8, addend: 0x0, symName: '__ZN9hashbrown3raw21RawTable$LT$T$C$A$GT$22insert_tagged_at_index17hf6a5136db928589cE', symObjAddr: 0x6408, symBinAddr: 0x113D0, symSize: 0x124 }
  - { offset: 0x4BF01, size: 0x8, addend: 0x0, symName: '__ZN9hashbrown3raw21RawTable$LT$T$C$A$GT$25find_or_find_insert_index17h41084e352a34dca6E', symObjAddr: 0x652C, symBinAddr: 0x114F4, symSize: 0x134 }
  - { offset: 0x4C1BB, size: 0x8, addend: 0x0, symName: '__ZN9hashbrown3raw21RawTable$LT$T$C$A$GT$25find_or_find_insert_index17h5bb2a91928baa2bcE', symObjAddr: 0x6660, symBinAddr: 0x11628, symSize: 0x134 }
  - { offset: 0x4C475, size: 0x8, addend: 0x0, symName: '__ZN9hashbrown3raw21RawTable$LT$T$C$A$GT$25find_or_find_insert_index17h832c3101a907b0e2E', symObjAddr: 0x6794, symBinAddr: 0x1175C, symSize: 0x134 }
  - { offset: 0x4C72F, size: 0x8, addend: 0x0, symName: '__ZN9hashbrown3raw21RawTable$LT$T$C$A$GT$25find_or_find_insert_index17ha094e9629ed57907E', symObjAddr: 0x68C8, symBinAddr: 0x11890, symSize: 0x134 }
  - { offset: 0x4C9E9, size: 0x8, addend: 0x0, symName: '__ZN9hashbrown3raw21RawTable$LT$T$C$A$GT$25find_or_find_insert_index17hc5953fc36cae65d9E', symObjAddr: 0x69FC, symBinAddr: 0x119C4, symSize: 0x134 }
  - { offset: 0x4CCA3, size: 0x8, addend: 0x0, symName: '__ZN9hashbrown3raw21RawTable$LT$T$C$A$GT$25find_or_find_insert_index17hf898a4bf7efb29d2E', symObjAddr: 0x6B30, symBinAddr: 0x11AF8, symSize: 0x134 }
  - { offset: 0x4D931, size: 0x8, addend: 0x0, symName: '__ZN9hashbrown3raw21RawTable$LT$T$C$A$GT$4find17h25f810f18ffd76a0E', symObjAddr: 0x70FC, symBinAddr: 0x120C4, symSize: 0x314 }
  - { offset: 0x4DEB9, size: 0x8, addend: 0x0, symName: '__ZN9hashbrown3raw21RawTable$LT$T$C$A$GT$4find17h2b6cc123ab8ea1c8E', symObjAddr: 0x7410, symBinAddr: 0x123D8, symSize: 0x314 }
  - { offset: 0x4E441, size: 0x8, addend: 0x0, symName: '__ZN9hashbrown3raw21RawTable$LT$T$C$A$GT$4find17h4ae49c3568d81661E', symObjAddr: 0x7724, symBinAddr: 0x126EC, symSize: 0x318 }
  - { offset: 0x4E9C9, size: 0x8, addend: 0x0, symName: '__ZN9hashbrown3raw21RawTable$LT$T$C$A$GT$4find17h8e2a177349b99392E', symObjAddr: 0x7A3C, symBinAddr: 0x12A04, symSize: 0x314 }
  - { offset: 0x4EF51, size: 0x8, addend: 0x0, symName: '__ZN9hashbrown3raw21RawTable$LT$T$C$A$GT$4find17h9f23d312b6eb5085E', symObjAddr: 0x7D50, symBinAddr: 0x12D18, symSize: 0x318 }
  - { offset: 0x4F4D9, size: 0x8, addend: 0x0, symName: '__ZN9hashbrown3raw21RawTable$LT$T$C$A$GT$4find17hb6f59203be8efbbfE', symObjAddr: 0x8068, symBinAddr: 0x13030, symSize: 0x314 }
  - { offset: 0x4FA61, size: 0x8, addend: 0x0, symName: '__ZN9hashbrown3raw21RawTable$LT$T$C$A$GT$4find17hb967498666bfef76E', symObjAddr: 0x837C, symBinAddr: 0x13344, symSize: 0x314 }
  - { offset: 0x4FFE9, size: 0x8, addend: 0x0, symName: '__ZN9hashbrown3raw21RawTable$LT$T$C$A$GT$4find17hbf8a23fdda3fbc89E', symObjAddr: 0x8690, symBinAddr: 0x13658, symSize: 0x318 }
  - { offset: 0x50571, size: 0x8, addend: 0x0, symName: '__ZN9hashbrown3raw21RawTable$LT$T$C$A$GT$4find17hcd72e404d051a577E', symObjAddr: 0x89A8, symBinAddr: 0x13970, symSize: 0x318 }
  - { offset: 0x515F7, size: 0x8, addend: 0x0, symName: '__ZN9hashbrown3raw21RawTable$LT$T$C$A$GT$5clear17h94ea2cac3410effcE', symObjAddr: 0x93A4, symBinAddr: 0x1436C, symSize: 0x7C }
  - { offset: 0x516F6, size: 0x8, addend: 0x0, symName: '__ZN9hashbrown3raw21RawTable$LT$T$C$A$GT$5clear17hcd4d13065c55d784E', symObjAddr: 0x9420, symBinAddr: 0x143E8, symSize: 0x7C }
  - { offset: 0x519E9, size: 0x8, addend: 0x0, symName: '__ZN9hashbrown3raw21RawTable$LT$T$C$A$GT$6remove17haa4062d9d86c585eE', symObjAddr: 0x9644, symBinAddr: 0x1460C, symSize: 0x108 }
  - { offset: 0x51CE1, size: 0x8, addend: 0x0, symName: '__ZN9hashbrown3raw21RawTable$LT$T$C$A$GT$6remove17hb8d0bfeda9856cd7E', symObjAddr: 0x974C, symBinAddr: 0x14714, symSize: 0x100 }
  - { offset: 0x51F15, size: 0x8, addend: 0x0, symName: '__ZN9hashbrown3raw21RawTable$LT$T$C$A$GT$7reserve17h775ad301470ae06dE', symObjAddr: 0x984C, symBinAddr: 0x14814, symSize: 0xB0 }
  - { offset: 0x52019, size: 0x8, addend: 0x0, symName: '__ZN9hashbrown3raw21RawTable$LT$T$C$A$GT$7reserve17h7ac212e288f5953cE', symObjAddr: 0x98FC, symBinAddr: 0x148C4, symSize: 0xB0 }
  - { offset: 0x5211D, size: 0x8, addend: 0x0, symName: '__ZN9hashbrown3raw21RawTable$LT$T$C$A$GT$7reserve17ha14bb11295f4da67E', symObjAddr: 0x99AC, symBinAddr: 0x14974, symSize: 0xB0 }
  - { offset: 0x52221, size: 0x8, addend: 0x0, symName: '__ZN9hashbrown3raw21RawTable$LT$T$C$A$GT$7reserve17ha53e89239457f840E', symObjAddr: 0x9A5C, symBinAddr: 0x14A24, symSize: 0xB0 }
  - { offset: 0x52325, size: 0x8, addend: 0x0, symName: '__ZN9hashbrown3raw21RawTable$LT$T$C$A$GT$7reserve17hcbb232dc878ba44bE', symObjAddr: 0x9B0C, symBinAddr: 0x14AD4, symSize: 0xB0 }
  - { offset: 0x52429, size: 0x8, addend: 0x0, symName: '__ZN9hashbrown3raw21RawTable$LT$T$C$A$GT$7reserve17hdcf037ef170c44d8E', symObjAddr: 0x9BBC, symBinAddr: 0x14B84, symSize: 0xB0 }
  - { offset: 0x5252D, size: 0x8, addend: 0x0, symName: '__ZN9hashbrown3raw21RawTable$LT$T$C$A$GT$7reserve17hf48e59deca39b46bE', symObjAddr: 0x9C6C, symBinAddr: 0x14C34, symSize: 0xB0 }
  - { offset: 0x52694, size: 0x8, addend: 0x0, symName: __ZN9_translit7presets10strip_bidi17h610a5c12530b5415E, symObjAddr: 0x0, symBinAddr: 0x14CE4, symSize: 0x38 }
  - { offset: 0x52712, size: 0x8, addend: 0x0, symName: __ZN9_translit7presets10strip_bidi17h610a5c12530b5415E, symObjAddr: 0x0, symBinAddr: 0x14CE4, symSize: 0x38 }
  - { offset: 0x5273E, size: 0x8, addend: 0x0, symName: __ZN9_translit7presets11_strip_bidi17h86c9f89cbd6c6eb6E, symObjAddr: 0x38, symBinAddr: 0x14D1C, symSize: 0x28 }
  - { offset: 0x5276A, size: 0x8, addend: 0x0, symName: __ZN9_translit7presets12_catalog_key17h3a57f9efdc3c919fE, symObjAddr: 0x60, symBinAddr: 0x14D44, symSize: 0x360 }
  - { offset: 0x5287D, size: 0x8, addend: 0x0, symName: __ZN9_translit7presets13_ml_normalize17h9281411ca5980174E, symObjAddr: 0x3C0, symBinAddr: 0x150A4, symSize: 0x364 }
  - { offset: 0x528DD, size: 0x8, addend: 0x0, symName: __ZN9_translit7presets14_display_clean17hd6703dbbe05c5fdfE, symObjAddr: 0x724, symBinAddr: 0x15408, symSize: 0x34 }
  - { offset: 0x52909, size: 0x8, addend: 0x0, symName: __ZN9_translit7presets15_security_clean17h27acf0a090b2f048E, symObjAddr: 0x758, symBinAddr: 0x1543C, symSize: 0x214 }
  - { offset: 0x529B4, size: 0x8, addend: 0x0, symName: __ZN9_translit7presets17is_bidi_or_format17hb063d80e2d1bc662E, symObjAddr: 0x96C, symBinAddr: 0x15650, symSize: 0xA0 }
  - { offset: 0x529E0, size: 0x8, addend: 0x0, symName: __ZN9_translit7presets24__pyfunction__strip_bidi17h4fda91fcac5cd15bE, symObjAddr: 0xA0C, symBinAddr: 0x156F0, symSize: 0x37C }
  - { offset: 0x52B4A, size: 0x8, addend: 0x0, symName: __ZN9_translit7presets25__pyfunction__catalog_key17hff309a66a5b83343E, symObjAddr: 0xD88, symBinAddr: 0x15A6C, symSize: 0x5B0 }
  - { offset: 0x52D04, size: 0x8, addend: 0x0, symName: __ZN9_translit7presets26__pyfunction__ml_normalize17h40be521f72721035E, symObjAddr: 0x1338, symBinAddr: 0x1601C, symSize: 0x5F0 }
  - { offset: 0x52EBE, size: 0x8, addend: 0x0, symName: __ZN9_translit7presets27__pyfunction__display_clean17h4f29050b320c3a8eE, symObjAddr: 0x1928, symBinAddr: 0x1660C, symSize: 0x37C }
  - { offset: 0x53028, size: 0x8, addend: 0x0, symName: __ZN9_translit7presets28__pyfunction__security_clean17h8da9cb8d7e147ff7E, symObjAddr: 0x1CA4, symBinAddr: 0x16988, symSize: 0x378 }
  - { offset: 0x5319C, size: 0x8, addend: 0x0, symName: '__ZN9_translit7presets58_$LT$impl$u20$_translit..presets.._strip_bidi..MakeDef$GT$9_PYO3_DEF10trampoline17he33fe6d68fdf78c7E', symObjAddr: 0x201C, symBinAddr: 0x16D00, symSize: 0x4C }
  - { offset: 0x531F0, size: 0x8, addend: 0x0, symName: '__ZN9_translit7presets59_$LT$impl$u20$_translit..presets.._catalog_key..MakeDef$GT$9_PYO3_DEF10trampoline17hd496eb8ac9a6b080E', symObjAddr: 0x2068, symBinAddr: 0x16D4C, symSize: 0x4C }
  - { offset: 0x53244, size: 0x8, addend: 0x0, symName: '__ZN9_translit7presets60_$LT$impl$u20$_translit..presets.._ml_normalize..MakeDef$GT$9_PYO3_DEF10trampoline17hab599036a2b958bbE', symObjAddr: 0x20B4, symBinAddr: 0x16D98, symSize: 0x4C }
  - { offset: 0x53298, size: 0x8, addend: 0x0, symName: '__ZN9_translit7presets61_$LT$impl$u20$_translit..presets.._display_clean..MakeDef$GT$9_PYO3_DEF10trampoline17h78e392b3c808033eE', symObjAddr: 0x2100, symBinAddr: 0x16DE4, symSize: 0x4C }
  - { offset: 0x532EC, size: 0x8, addend: 0x0, symName: '__ZN9_translit7presets62_$LT$impl$u20$_translit..presets.._security_clean..MakeDef$GT$9_PYO3_DEF10trampoline17h0f4c4c0d2671ddbbE', symObjAddr: 0x214C, symBinAddr: 0x16E30, symSize: 0x4C }
  - { offset: 0x54149, size: 0x8, addend: 0x0, symName: __ZN4core4iter6traits8iterator12iter_compare17h590d6e0614c40a7dE, symObjAddr: 0x0, symBinAddr: 0x16E7C, symSize: 0xFC }
  - { offset: 0x541B6, size: 0x8, addend: 0x0, symName: __ZN4core4iter6traits8iterator12iter_compare17h590d6e0614c40a7dE, symObjAddr: 0x0, symBinAddr: 0x16E7C, symSize: 0xFC }
  - { offset: 0x54227, size: 0x8, addend: 0x0, symName: __ZN4core4iter6traits8iterator12iter_compare17hda63bfd1d48c450fE, symObjAddr: 0xFC, symBinAddr: 0x16F78, symSize: 0xFC }
  - { offset: 0x542A2, size: 0x8, addend: 0x0, symName: '__ZN4core4iter6traits8iterator12iter_compare7compare28_$u7b$$u7b$closure$u7d$$u7d$17h150a36f53cf5d4a0E', symObjAddr: 0x1F8, symBinAddr: 0x17074, symSize: 0xEC }
  - { offset: 0x54388, size: 0x8, addend: 0x0, symName: '__ZN4core4iter6traits8iterator12iter_compare7compare28_$u7b$$u7b$closure$u7d$$u7d$17h9f5c582d929ce4c7E', symObjAddr: 0x2E4, symBinAddr: 0x17160, symSize: 0xEC }
  - { offset: 0x54567, size: 0x8, addend: 0x0, symName: '__ZN4core4iter6traits8iterator8Iterator5eq_by7compare28_$u7b$$u7b$closure$u7d$$u7d$17h772443a8977ec665E', symObjAddr: 0x840, symBinAddr: 0x176BC, symSize: 0x50 }
  - { offset: 0x545D0, size: 0x8, addend: 0x0, symName: '__ZN4core4iter6traits8iterator8Iterator5eq_by7compare28_$u7b$$u7b$closure$u7d$$u7d$17had42a514ecb64edeE', symObjAddr: 0x890, symBinAddr: 0x1770C, symSize: 0x50 }
  - { offset: 0x5464E, size: 0x8, addend: 0x0, symName: '__ZN4core4iter6traits8iterator8Iterator2eq28_$u7b$$u7b$closure$u7d$$u7d$17h0abfd32340bd1275E', symObjAddr: 0x528, symBinAddr: 0x173A4, symSize: 0x60 }
  - { offset: 0x546A8, size: 0x8, addend: 0x0, symName: '__ZN4core4iter6traits8iterator8Iterator2eq28_$u7b$$u7b$closure$u7d$$u7d$17hcdd1aba4ce076e50E', symObjAddr: 0x588, symBinAddr: 0x17404, symSize: 0x60 }
  - { offset: 0x5470D, size: 0x8, addend: 0x0, symName: '__ZN4core4iter6traits8iterator8Iterator12try_for_each4call28_$u7b$$u7b$closure$u7d$$u7d$17h713bbbb673ed2210E', symObjAddr: 0x4D8, symBinAddr: 0x17354, symSize: 0x28 }
  - { offset: 0x54772, size: 0x8, addend: 0x0, symName: '__ZN4core4iter6traits8iterator8Iterator12try_for_each4call28_$u7b$$u7b$closure$u7d$$u7d$17he20e0054a33df0e4E', symObjAddr: 0x500, symBinAddr: 0x1737C, symSize: 0x28 }
  - { offset: 0x547E3, size: 0x8, addend: 0x0, symName: '__ZN4core4iter6traits8iterator8Iterator4find5check28_$u7b$$u7b$closure$u7d$$u7d$17h05d928f4098686c3E', symObjAddr: 0x5E8, symBinAddr: 0x17464, symSize: 0x78 }
  - { offset: 0x5483F, size: 0x8, addend: 0x0, symName: '__ZN4core4iter6traits8iterator8Iterator4find5check28_$u7b$$u7b$closure$u7d$$u7d$17h28d8cfffb5b0f584E', symObjAddr: 0x660, symBinAddr: 0x174DC, symSize: 0x78 }
  - { offset: 0x5489B, size: 0x8, addend: 0x0, symName: '__ZN4core4iter6traits8iterator8Iterator4find5check28_$u7b$$u7b$closure$u7d$$u7d$17h930168ed87d6f807E', symObjAddr: 0x6D8, symBinAddr: 0x17554, symSize: 0x84 }
  - { offset: 0x548F7, size: 0x8, addend: 0x0, symName: '__ZN4core4iter6traits8iterator8Iterator4find5check28_$u7b$$u7b$closure$u7d$$u7d$17h9aa7a09a7d080baeE', symObjAddr: 0x75C, symBinAddr: 0x175D8, symSize: 0x78 }
  - { offset: 0x5495A, size: 0x8, addend: 0x0, symName: '__ZN4core4iter6traits8iterator8Iterator5count28_$u7b$$u7b$closure$u7d$$u7d$17h03969faa39b79038E', symObjAddr: 0x7D4, symBinAddr: 0x17650, symSize: 0x6C }
  - { offset: 0x549B5, size: 0x8, addend: 0x0, symName: '__ZN4core4iter6traits8iterator8Iterator8for_each4call28_$u7b$$u7b$closure$u7d$$u7d$17h019e373539f43e41E', symObjAddr: 0x8E0, symBinAddr: 0x1775C, symSize: 0x3C }
  - { offset: 0x54A0E, size: 0x8, addend: 0x0, symName: '__ZN4core4iter6traits8iterator8Iterator8for_each4call28_$u7b$$u7b$closure$u7d$$u7d$17h09732229d40519e1E', symObjAddr: 0x91C, symBinAddr: 0x17798, symSize: 0x28 }
  - { offset: 0x54A66, size: 0x8, addend: 0x0, symName: '__ZN4core4iter6traits8iterator8Iterator8for_each4call28_$u7b$$u7b$closure$u7d$$u7d$17h0dbfaa8992c5ccb7E', symObjAddr: 0x944, symBinAddr: 0x177C0, symSize: 0x2C }
  - { offset: 0x54ABE, size: 0x8, addend: 0x0, symName: '__ZN4core4iter6traits8iterator8Iterator8for_each4call28_$u7b$$u7b$closure$u7d$$u7d$17h13bccc1a447b9922E', symObjAddr: 0x970, symBinAddr: 0x177EC, symSize: 0x28 }
  - { offset: 0x54B16, size: 0x8, addend: 0x0, symName: '__ZN4core4iter6traits8iterator8Iterator8for_each4call28_$u7b$$u7b$closure$u7d$$u7d$17h193d291056210a5fE', symObjAddr: 0x998, symBinAddr: 0x17814, symSize: 0x3C }
  - { offset: 0x54B6F, size: 0x8, addend: 0x0, symName: '__ZN4core4iter6traits8iterator8Iterator8for_each4call28_$u7b$$u7b$closure$u7d$$u7d$17h1c53b8d463cd207cE', symObjAddr: 0x9D4, symBinAddr: 0x17850, symSize: 0x3C }
  - { offset: 0x54BC8, size: 0x8, addend: 0x0, symName: '__ZN4core4iter6traits8iterator8Iterator8for_each4call28_$u7b$$u7b$closure$u7d$$u7d$17h22c6a01c1b34499fE', symObjAddr: 0xA10, symBinAddr: 0x1788C, symSize: 0x3C }
  - { offset: 0x54C21, size: 0x8, addend: 0x0, symName: '__ZN4core4iter6traits8iterator8Iterator8for_each4call28_$u7b$$u7b$closure$u7d$$u7d$17h3d5b88e77074a768E', symObjAddr: 0xA4C, symBinAddr: 0x178C8, symSize: 0x40 }
  - { offset: 0x54C7A, size: 0x8, addend: 0x0, symName: '__ZN4core4iter6traits8iterator8Iterator8for_each4call28_$u7b$$u7b$closure$u7d$$u7d$17h437387b802dfc65cE', symObjAddr: 0xA8C, symBinAddr: 0x17908, symSize: 0x30 }
  - { offset: 0x54CD2, size: 0x8, addend: 0x0, symName: '__ZN4core4iter6traits8iterator8Iterator8for_each4call28_$u7b$$u7b$closure$u7d$$u7d$17h4c6c848a9446ece7E', symObjAddr: 0xABC, symBinAddr: 0x17938, symSize: 0x28 }
  - { offset: 0x54D2A, size: 0x8, addend: 0x0, symName: '__ZN4core4iter6traits8iterator8Iterator8for_each4call28_$u7b$$u7b$closure$u7d$$u7d$17h620e2a2eeb137aacE', symObjAddr: 0xAE4, symBinAddr: 0x17960, symSize: 0x3C }
  - { offset: 0x54D83, size: 0x8, addend: 0x0, symName: '__ZN4core4iter6traits8iterator8Iterator8for_each4call28_$u7b$$u7b$closure$u7d$$u7d$17h64cbdefd2421268aE', symObjAddr: 0xB20, symBinAddr: 0x1799C, symSize: 0x3C }
  - { offset: 0x54DDC, size: 0x8, addend: 0x0, symName: '__ZN4core4iter6traits8iterator8Iterator8for_each4call28_$u7b$$u7b$closure$u7d$$u7d$17h6a3d0966581eaab0E', symObjAddr: 0xB5C, symBinAddr: 0x179D8, symSize: 0x30 }
  - { offset: 0x54E34, size: 0x8, addend: 0x0, symName: '__ZN4core4iter6traits8iterator8Iterator8for_each4call28_$u7b$$u7b$closure$u7d$$u7d$17h756de51c81d7b446E', symObjAddr: 0xB8C, symBinAddr: 0x17A08, symSize: 0x30 }
  - { offset: 0x54E8C, size: 0x8, addend: 0x0, symName: '__ZN4core4iter6traits8iterator8Iterator8for_each4call28_$u7b$$u7b$closure$u7d$$u7d$17h814cbb52edaf7470E', symObjAddr: 0xBBC, symBinAddr: 0x17A38, symSize: 0x3C }
  - { offset: 0x54EE5, size: 0x8, addend: 0x0, symName: '__ZN4core4iter6traits8iterator8Iterator8for_each4call28_$u7b$$u7b$closure$u7d$$u7d$17h8a94bff9e78276c2E', symObjAddr: 0xBF8, symBinAddr: 0x17A74, symSize: 0x3C }
  - { offset: 0x54F3E, size: 0x8, addend: 0x0, symName: '__ZN4core4iter6traits8iterator8Iterator8for_each4call28_$u7b$$u7b$closure$u7d$$u7d$17h8aff39f2a0e062d4E', symObjAddr: 0xC34, symBinAddr: 0x17AB0, symSize: 0x28 }
  - { offset: 0x54F96, size: 0x8, addend: 0x0, symName: '__ZN4core4iter6traits8iterator8Iterator8for_each4call28_$u7b$$u7b$closure$u7d$$u7d$17h97ad5c296f51032fE', symObjAddr: 0xC5C, symBinAddr: 0x17AD8, symSize: 0x28 }
  - { offset: 0x54FEE, size: 0x8, addend: 0x0, symName: '__ZN4core4iter6traits8iterator8Iterator8for_each4call28_$u7b$$u7b$closure$u7d$$u7d$17h9a4529beffc612beE', symObjAddr: 0xC84, symBinAddr: 0x17B00, symSize: 0x3C }
  - { offset: 0x55047, size: 0x8, addend: 0x0, symName: '__ZN4core4iter6traits8iterator8Iterator8for_each4call28_$u7b$$u7b$closure$u7d$$u7d$17hb08c4dd6e10f0685E', symObjAddr: 0xCC0, symBinAddr: 0x17B3C, symSize: 0x2C }
  - { offset: 0x5509F, size: 0x8, addend: 0x0, symName: '__ZN4core4iter6traits8iterator8Iterator8for_each4call28_$u7b$$u7b$closure$u7d$$u7d$17hb2fb83841048dd5aE', symObjAddr: 0xCEC, symBinAddr: 0x17B68, symSize: 0x28 }
  - { offset: 0x550F7, size: 0x8, addend: 0x0, symName: '__ZN4core4iter6traits8iterator8Iterator8for_each4call28_$u7b$$u7b$closure$u7d$$u7d$17hb89faa4b4b795719E', symObjAddr: 0xD14, symBinAddr: 0x17B90, symSize: 0x28 }
  - { offset: 0x5514F, size: 0x8, addend: 0x0, symName: '__ZN4core4iter6traits8iterator8Iterator8for_each4call28_$u7b$$u7b$closure$u7d$$u7d$17hcd0ee3bc86b5079aE', symObjAddr: 0xD3C, symBinAddr: 0x17BB8, symSize: 0x28 }
  - { offset: 0x551A7, size: 0x8, addend: 0x0, symName: '__ZN4core4iter6traits8iterator8Iterator8for_each4call28_$u7b$$u7b$closure$u7d$$u7d$17hec077eb41550ae1eE', symObjAddr: 0xD64, symBinAddr: 0x17BE0, symSize: 0x28 }
  - { offset: 0x55202, size: 0x8, addend: 0x0, symName: __ZN4core4iter6traits8iterator7iter_eq17h81d0a3d61597a176E, symObjAddr: 0x3D0, symBinAddr: 0x1724C, symSize: 0x84 }
  - { offset: 0x55305, size: 0x8, addend: 0x0, symName: __ZN4core4iter6traits8iterator7iter_eq17h9dc765b75f8f0485E, symObjAddr: 0x454, symBinAddr: 0x172D0, symSize: 0x84 }
  - { offset: 0x569CD, size: 0x8, addend: 0x0, symName: '__ZN4core4cell13Cell$LT$T$GT$4take17h285c21c769712473E', symObjAddr: 0x0, symBinAddr: 0x17C08, symSize: 0x3C }
  - { offset: 0x5789C, size: 0x8, addend: 0x0, symName: '__ZN4core4cell13Cell$LT$T$GT$4take17h285c21c769712473E', symObjAddr: 0x0, symBinAddr: 0x17C08, symSize: 0x3C }
  - { offset: 0x57A18, size: 0x8, addend: 0x0, symName: '__ZN4core4cell13Cell$LT$T$GT$4take17h50ed0504243434efE', symObjAddr: 0x3C, symBinAddr: 0x17C44, symSize: 0x3C }
  - { offset: 0x57AE4, size: 0x8, addend: 0x0, symName: '__ZN4core4cell13Cell$LT$T$GT$4take17hb9d3294898134209E', symObjAddr: 0x78, symBinAddr: 0x17C80, symSize: 0x3C }
  - { offset: 0x57BB0, size: 0x8, addend: 0x0, symName: '__ZN4core4cell13Cell$LT$T$GT$4take17head74e4d51d75581E', symObjAddr: 0xB4, symBinAddr: 0x17CBC, symSize: 0x3C }
  - { offset: 0x57C9A, size: 0x8, addend: 0x0, symName: '__ZN4core4cell13Cell$LT$T$GT$4take17hfb26b69610e9d864E', symObjAddr: 0xF0, symBinAddr: 0x17CF8, symSize: 0x3C }
  - { offset: 0x57D1F, size: 0x8, addend: 0x0, symName: '__ZN80_$LT$_translit..slugify.._Slugifier$u20$as$u20$pyo3..type_object..PyTypeInfo$GT$15type_object_raw17h54fbdfea8c7b9245E', symObjAddr: 0x0, symBinAddr: 0x17D34, symSize: 0x24 }
  - { offset: 0x57D4E, size: 0x8, addend: 0x0, symName: '__ZN84_$LT$_translit..slugify.._Slugifier$u20$as$u20$pyo3..impl_..pyclass..PyClassImpl$GT$10items_iter15INTRINSIC_ITEMS17hed5aa0b372afb2e1E', symObjAddr: 0x9898, symBinAddr: 0x33C228, symSize: 0x0 }
  - { offset: 0x57D6F, size: 0x8, addend: 0x0, symName: '__ZN84_$LT$_translit..slugify.._Slugifier$u20$as$u20$pyo3..impl_..pyclass..PyClassImpl$GT$16lazy_type_object11TYPE_OBJECT17hc8a5213ac301cd57E', symObjAddr: 0x99B0, symBinAddr: 0x6DC500, symSize: 0x0 }
  - { offset: 0x57D90, size: 0x8, addend: 0x0, symName: '__ZN84_$LT$_translit..slugify.._Slugifier$u20$as$u20$pyo3..impl_..pyclass..PyClassImpl$GT$3doc3DOC17h7de0fed8f18b1eb9E', symObjAddr: 0x9A08, symBinAddr: 0x6DC558, symSize: 0x0 }
  - { offset: 0x57D9E, size: 0x8, addend: 0x0, symName: '__ZN84_$LT$_translit..slugify.._Slugifier$u20$as$u20$pyo3..impl_..pyclass..PyClassImpl$GT$10items_iter17h8e0a617a9ae1d24aE', symObjAddr: 0x24, symBinAddr: 0x17D58, symSize: 0x38 }
  - { offset: 0x57DDB, size: 0x8, addend: 0x0, symName: '__ZN84_$LT$_translit..slugify.._Slugifier$u20$as$u20$pyo3..impl_..pyclass..PyClassImpl$GT$16lazy_type_object17hc7659c723be68ab6E', symObjAddr: 0x5C, symBinAddr: 0x17D90, symSize: 0xC }
  - { offset: 0x57DF9, size: 0x8, addend: 0x0, symName: '__ZN84_$LT$_translit..slugify.._Slugifier$u20$as$u20$pyo3..impl_..pyclass..PyClassImpl$GT$3doc17h62e642b776f238dfE', symObjAddr: 0x68, symBinAddr: 0x17D9C, symSize: 0x3C }
  - { offset: 0x5801F, size: 0x8, addend: 0x0, symName: '__ZN90_$LT$_translit..slugify.._UniqueSlugifier$u20$as$u20$pyo3..impl_..pyclass..PyClassImpl$GT$10items_iter15INTRINSIC_ITEMS17h1a6c3c40f0db924bE', symObjAddr: 0x98B8, symBinAddr: 0x33C248, symSize: 0x0 }
  - { offset: 0x58040, size: 0x8, addend: 0x0, symName: '__ZN90_$LT$_translit..slugify.._UniqueSlugifier$u20$as$u20$pyo3..impl_..pyclass..PyClassImpl$GT$16lazy_type_object11TYPE_OBJECT17h7a25311a064e4f95E', symObjAddr: 0x9A28, symBinAddr: 0x6DC578, symSize: 0x0 }
  - { offset: 0x58061, size: 0x8, addend: 0x0, symName: '__ZN90_$LT$_translit..slugify.._UniqueSlugifier$u20$as$u20$pyo3..impl_..pyclass..PyClassImpl$GT$3doc3DOC17h42c0fbd0eb49512cE', symObjAddr: 0x9A80, symBinAddr: 0x6DC5D0, symSize: 0x0 }
  - { offset: 0x5806F, size: 0x8, addend: 0x0, symName: '__ZN90_$LT$_translit..slugify.._UniqueSlugifier$u20$as$u20$pyo3..impl_..pyclass..PyClassImpl$GT$10items_iter17h93254db868d040a7E', symObjAddr: 0xC8, symBinAddr: 0x17DFC, symSize: 0x38 }
  - { offset: 0x580AC, size: 0x8, addend: 0x0, symName: '__ZN90_$LT$_translit..slugify.._UniqueSlugifier$u20$as$u20$pyo3..impl_..pyclass..PyClassImpl$GT$16lazy_type_object17h42d9af4b2dfe33c3E', symObjAddr: 0x100, symBinAddr: 0x17E34, symSize: 0xC }
  - { offset: 0x580CA, size: 0x8, addend: 0x0, symName: '__ZN90_$LT$_translit..slugify.._UniqueSlugifier$u20$as$u20$pyo3..impl_..pyclass..PyClassImpl$GT$3doc17h41be12fce2c6364cE', symObjAddr: 0x10C, symBinAddr: 0x17E40, symSize: 0x3C }
  - { offset: 0x58238, size: 0x8, addend: 0x0, symName: '__ZN9_translit7slugify180_$LT$impl$u20$pyo3..impl_..pyclass..PyMethods$LT$_translit..slugify.._Slugifier$GT$$u20$for$u20$pyo3..impl_..pyclass..PyClassImplCollector$LT$_translit..slugify.._Slugifier$GT$$GT$10py_methods5ITEMS17h586899cc9839d6f0E', symObjAddr: 0xA358, symBinAddr: 0x564510, symSize: 0x0 }
  - { offset: 0x5824A, size: 0x8, addend: 0x0, symName: '__ZN9_translit7slugify180_$LT$impl$u20$pyo3..impl_..pyclass..PyMethods$LT$_translit..slugify.._Slugifier$GT$$u20$for$u20$pyo3..impl_..pyclass..PyClassImplCollector$LT$_translit..slugify.._Slugifier$GT$$GT$10py_methods5ITEMS10trampoline17h2ba6cf040f3d24e5E', symObjAddr: 0x5448, symBinAddr: 0x1D17C, symSize: 0x4C }
  - { offset: 0x58296, size: 0x8, addend: 0x0, symName: '__ZN9_translit7slugify180_$LT$impl$u20$pyo3..impl_..pyclass..PyMethods$LT$_translit..slugify.._Slugifier$GT$$u20$for$u20$pyo3..impl_..pyclass..PyClassImplCollector$LT$_translit..slugify.._Slugifier$GT$$GT$10py_methods5ITEMS10trampoline17h2fcc4fb12fdfae0eE', symObjAddr: 0x5494, symBinAddr: 0x1D1C8, symSize: 0x4C }
  - { offset: 0x582FD, size: 0x8, addend: 0x0, symName: '__ZN9_translit7slugify192_$LT$impl$u20$pyo3..impl_..pyclass..PyMethods$LT$_translit..slugify.._UniqueSlugifier$GT$$u20$for$u20$pyo3..impl_..pyclass..PyClassImplCollector$LT$_translit..slugify.._UniqueSlugifier$GT$$GT$10py_methods5ITEMS17h37590e17a62a21fcE', symObjAddr: 0xA408, symBinAddr: 0x5645C0, symSize: 0x0 }
  - { offset: 0x5830F, size: 0x8, addend: 0x0, symName: '__ZN9_translit7slugify192_$LT$impl$u20$pyo3..impl_..pyclass..PyMethods$LT$_translit..slugify.._UniqueSlugifier$GT$$u20$for$u20$pyo3..impl_..pyclass..PyClassImplCollector$LT$_translit..slugify.._UniqueSlugifier$GT$$GT$10py_methods5ITEMS10trampoline17h29295ece8ddc81e8E', symObjAddr: 0x54E0, symBinAddr: 0x1D214, symSize: 0x4C }
  - { offset: 0x5835B, size: 0x8, addend: 0x0, symName: '__ZN9_translit7slugify192_$LT$impl$u20$pyo3..impl_..pyclass..PyMethods$LT$_translit..slugify.._UniqueSlugifier$GT$$u20$for$u20$pyo3..impl_..pyclass..PyClassImplCollector$LT$_translit..slugify.._UniqueSlugifier$GT$$GT$10py_methods5ITEMS10trampoline17h590d7376ce640d10E', symObjAddr: 0x552C, symBinAddr: 0x1D260, symSize: 0x4C }
  - { offset: 0x583A7, size: 0x8, addend: 0x0, symName: '__ZN9_translit7slugify192_$LT$impl$u20$pyo3..impl_..pyclass..PyMethods$LT$_translit..slugify.._UniqueSlugifier$GT$$u20$for$u20$pyo3..impl_..pyclass..PyClassImplCollector$LT$_translit..slugify.._UniqueSlugifier$GT$$GT$10py_methods5ITEMS10trampoline17h90a78cc749251c23E', symObjAddr: 0x5578, symBinAddr: 0x1D2AC, symSize: 0x44 }
  - { offset: 0x583EC, size: 0x8, addend: 0x0, symName: '__ZN80_$LT$_translit..slugify.._Slugifier$u20$as$u20$pyo3..type_object..PyTypeInfo$GT$15type_object_raw17h54fbdfea8c7b9245E', symObjAddr: 0x0, symBinAddr: 0x17D34, symSize: 0x24 }
  - { offset: 0x5842C, size: 0x8, addend: 0x0, symName: '__ZN86_$LT$_translit..slugify.._UniqueSlugifier$u20$as$u20$pyo3..type_object..PyTypeInfo$GT$15type_object_raw17h1ca31fb22f71f454E', symObjAddr: 0xA4, symBinAddr: 0x17DD8, symSize: 0x24 }
  - { offset: 0x58467, size: 0x8, addend: 0x0, symName: __ZN9_translit7slugify12slugify_impl17h85ae8be191393cd7E, symObjAddr: 0x1DD0, symBinAddr: 0x19B04, symSize: 0xAE4 }
  - { offset: 0x585BE, size: 0x8, addend: 0x0, symName: __ZN9_translit7slugify14_slugify_batch17hc5cd277879e9c72bE, symObjAddr: 0x28B4, symBinAddr: 0x1A5E8, symSize: 0x454 }
  - { offset: 0x58729, size: 0x8, addend: 0x0, symName: __ZN9_translit7slugify15decode_entities17h0045e950516a0468E, symObjAddr: 0x2D08, symBinAddr: 0x1AA3C, symSize: 0x35C }
  - { offset: 0x5876B, size: 0x8, addend: 0x0, symName: __ZN9_translit7slugify19floor_char_boundary17h2b90bb5f4fae3328E, symObjAddr: 0x55BC, symBinAddr: 0x1D2F0, symSize: 0xD0 }
  - { offset: 0x587BA, size: 0x8, addend: 0x0, symName: __ZN9_translit7slugify20truncate_at_boundary17hc5c028f38991e62bE, symObjAddr: 0x568C, symBinAddr: 0x1D3C0, symSize: 0x10C }
  - { offset: 0x5884A, size: 0x8, addend: 0x0, symName: __ZN9_translit7slugify21__pyfunction__slugify17h42f9c5a5c33aec7aE, symObjAddr: 0x5798, symBinAddr: 0x1D4CC, symSize: 0x12DC }
  - { offset: 0x58C64, size: 0x8, addend: 0x0, symName: __ZN9_translit7slugify23decode_numeric_entities17h60d5802f37a41f2eE, symObjAddr: 0x6A74, symBinAddr: 0x1E7A8, symSize: 0x554 }
  - { offset: 0x58D60, size: 0x8, addend: 0x0, symName: __ZN9_translit7slugify27__pyfunction__slugify_batch17hd0e965825062c15dE, symObjAddr: 0x6FC8, symBinAddr: 0x1ECFC, symSize: 0x1554 }
  - { offset: 0x59200, size: 0x8, addend: 0x0, symName: '__ZN9_translit7slugify55_$LT$impl$u20$_translit..slugify.._slugify..MakeDef$GT$9_PYO3_DEF10trampoline17had22bdb0049ea1e0E', symObjAddr: 0x851C, symBinAddr: 0x20250, symSize: 0x4C }
  - { offset: 0x59254, size: 0x8, addend: 0x0, symName: '__ZN9_translit7slugify61_$LT$impl$u20$_translit..slugify.._slugify_batch..MakeDef$GT$9_PYO3_DEF10trampoline17h6928ea45e1997ad2E', symObjAddr: 0x8568, symBinAddr: 0x2029C, symSize: 0x4C }
  - { offset: 0x592A2, size: 0x8, addend: 0x0, symName: __ZN9_translit7slugify8_slugify17h590fa6fa4c474f7bE, symObjAddr: 0x85B4, symBinAddr: 0x202E8, symSize: 0x3F8 }
  - { offset: 0x5DBA2, size: 0x8, addend: 0x0, symName: __ZN9_translit7slugify10_Slugifier20__pymethod___new____17h81b1bb4925830cd2E, symObjAddr: 0x148, symBinAddr: 0x17E7C, symSize: 0x1188 }
  - { offset: 0x5DFC0, size: 0x8, addend: 0x0, symName: __ZN9_translit7slugify10_Slugifier20__pymethod_slugify__17hc6276dade5a3b89cE, symObjAddr: 0x12D0, symBinAddr: 0x19004, symSize: 0x444 }
  - { offset: 0x5E156, size: 0x8, addend: 0x0, symName: __ZN9_translit7slugify10_Slugifier21__pymethod_get_lang__17h64410de817ffc159E, symObjAddr: 0x1714, symBinAddr: 0x19448, symSize: 0x13C }
  - { offset: 0x5E1EB, size: 0x8, addend: 0x0, symName: __ZN9_translit7slugify10_Slugifier26__pymethod_get_separator__17had2dde5f8260e93bE, symObjAddr: 0x1850, symBinAddr: 0x19584, symSize: 0x13C }
  - { offset: 0x5E29E, size: 0x8, addend: 0x0, symName: __ZN9_translit7slugify10_Slugifier3new17ha9ae0bb9879f3020E, symObjAddr: 0x198C, symBinAddr: 0x196C0, symSize: 0x3BC }
  - { offset: 0x5E3E4, size: 0x8, addend: 0x0, symName: __ZN9_translit7slugify10_Slugifier4lang17hb76084139a5beb9dE, symObjAddr: 0x1D48, symBinAddr: 0x19A7C, symSize: 0x24 }
  - { offset: 0x5E407, size: 0x8, addend: 0x0, symName: __ZN9_translit7slugify10_Slugifier7slugify17h106434392bf73d96E, symObjAddr: 0x1D6C, symBinAddr: 0x19AA0, symSize: 0x40 }
  - { offset: 0x5E439, size: 0x8, addend: 0x0, symName: __ZN9_translit7slugify10_Slugifier9separator17hc51bed087d31ea98E, symObjAddr: 0x1DAC, symBinAddr: 0x19AE0, symSize: 0x24 }
  - { offset: 0x5E45C, size: 0x8, addend: 0x0, symName: __ZN9_translit7slugify16_UniqueSlugifier18__pymethod_reset__17h72e2e91f62bfd91aE, symObjAddr: 0x3064, symBinAddr: 0x1AD98, symSize: 0x1E8 }
  - { offset: 0x5E556, size: 0x8, addend: 0x0, symName: __ZN9_translit7slugify16_UniqueSlugifier20__pymethod___new____17hcd1f130daf63c172E, symObjAddr: 0x324C, symBinAddr: 0x1AF80, symSize: 0x1538 }
  - { offset: 0x5E9F1, size: 0x8, addend: 0x0, symName: __ZN9_translit7slugify16_UniqueSlugifier20__pymethod_slugify__17h6a7c4596f9d5691cE, symObjAddr: 0x4784, symBinAddr: 0x1C4B8, symSize: 0x454 }
  - { offset: 0x5EB87, size: 0x8, addend: 0x0, symName: __ZN9_translit7slugify16_UniqueSlugifier3new17h4b0a46a25725dd98E, symObjAddr: 0x4BD8, symBinAddr: 0x1C90C, symSize: 0x2A4 }
  - { offset: 0x5ECE5, size: 0x8, addend: 0x0, symName: __ZN9_translit7slugify16_UniqueSlugifier5reset17haddf11184e791c6eE, symObjAddr: 0x4E7C, symBinAddr: 0x1CBB0, symSize: 0x24 }
  - { offset: 0x5ED08, size: 0x8, addend: 0x0, symName: __ZN9_translit7slugify16_UniqueSlugifier7slugify17hb96f447e49335442E, symObjAddr: 0x4EA0, symBinAddr: 0x1CBD4, symSize: 0x5A8 }
  - { offset: 0x5F264, size: 0x8, addend: 0x0, symName: __ZN4pyo310conversion15IntoPyObjectExt17into_bound_py_any17h19e04b33eef62656E, symObjAddr: 0x0, symBinAddr: 0x206E0, symSize: 0xE4 }
  - { offset: 0x5F332, size: 0x8, addend: 0x0, symName: __ZN4pyo310conversion15IntoPyObjectExt17into_bound_py_any17h19e04b33eef62656E, symObjAddr: 0x0, symBinAddr: 0x206E0, symSize: 0xE4 }
  - { offset: 0x5F3C5, size: 0x8, addend: 0x0, symName: __ZN4pyo310conversion15IntoPyObjectExt17into_bound_py_any17he7b4413f364b73b6E, symObjAddr: 0xE4, symBinAddr: 0x207C4, symSize: 0xE4 }
  - { offset: 0x5F469, size: 0x8, addend: 0x0, symName: __ZN4pyo35impl_7pyclass11PyClassImpl11dict_offset17h719dc0f0f2dfca00E, symObjAddr: 0x1C8, symBinAddr: 0x208A8, symSize: 0x8 }
  - { offset: 0x5F490, size: 0x8, addend: 0x0, symName: __ZN4pyo35impl_7pyclass11PyClassImpl15weaklist_offset17h7121c5344f50d10dE, symObjAddr: 0x1D0, symBinAddr: 0x208B0, symSize: 0x8 }
  - { offset: 0x5F747, size: 0x8, addend: 0x0, symName: '__ZN4pyo35types5tuple76_$LT$impl$u20$pyo3..conversion..IntoPyObject$u20$for$u20$$LP$T0$C$T1$RP$$GT$13into_pyobject17h4f53efb22ffb51f6E', symObjAddr: 0x1D8, symBinAddr: 0x208B8, symSize: 0x228 }
  - { offset: 0x5FBF7, size: 0x8, addend: 0x0, symName: '__ZN50_$LT$T$u20$as$u20$core..convert..Into$LT$U$GT$$GT$4into17h9c139c445f2c3c8bE', symObjAddr: 0x400, symBinAddr: 0x20AE0, symSize: 0x14 }
  - { offset: 0x604AB, size: 0x8, addend: 0x0, symName: '__ZN94_$LT$_translit..hostname..SafeHostnameDetails$u20$as$u20$pyo3..impl_..pyclass..PyClassImpl$GT$10items_iter15INTRINSIC_ITEMS28_$u7b$$u7b$closure$u7d$$u7d$17h17ab6616709a02b4E', symObjAddr: 0x414, symBinAddr: 0x20AF4, symSize: 0x44 }
  - { offset: 0x604D3, size: 0x8, addend: 0x0, symName: '__ZN94_$LT$_translit..hostname..SafeHostnameDetails$u20$as$u20$pyo3..impl_..pyclass..PyClassImpl$GT$10items_iter15INTRINSIC_ITEMS28_$u7b$$u7b$closure$u7d$$u7d$17h1abdc4adbb213c1fE', symObjAddr: 0x458, symBinAddr: 0x20B38, symSize: 0x44 }
  - { offset: 0x604FB, size: 0x8, addend: 0x0, symName: '__ZN94_$LT$_translit..hostname..SafeHostnameDetails$u20$as$u20$pyo3..impl_..pyclass..PyClassImpl$GT$10items_iter15INTRINSIC_ITEMS28_$u7b$$u7b$closure$u7d$$u7d$17h912b1b025ccc059dE', symObjAddr: 0x49C, symBinAddr: 0x20B7C, symSize: 0x44 }
  - { offset: 0x60523, size: 0x8, addend: 0x0, symName: '__ZN94_$LT$_translit..hostname..SafeHostnameDetails$u20$as$u20$pyo3..impl_..pyclass..PyClassImpl$GT$10items_iter15INTRINSIC_ITEMS28_$u7b$$u7b$closure$u7d$$u7d$17he296e447732ef88cE', symObjAddr: 0x4E0, symBinAddr: 0x20BC0, symSize: 0x44 }
  - { offset: 0x6054B, size: 0x8, addend: 0x0, symName: '__ZN94_$LT$_translit..hostname..SafeHostnameDetails$u20$as$u20$pyo3..impl_..pyclass..PyClassImpl$GT$10items_iter15INTRINSIC_ITEMS28_$u7b$$u7b$closure$u7d$$u7d$17hfb0533cba55b6123E', symObjAddr: 0x524, symBinAddr: 0x20C04, symSize: 0x44 }
  - { offset: 0x6059D, size: 0x8, addend: 0x0, symName: '__ZN94_$LT$_translit..hostname..SafeHostnameDetails$u20$as$u20$pyo3..impl_..pyclass..PyClassImpl$GT$3doc28_$u7b$$u7b$closure$u7d$$u7d$17h5374ad90b71558c1E', symObjAddr: 0x568, symBinAddr: 0x20C48, symSize: 0x58 }
  - { offset: 0x605F0, size: 0x8, addend: 0x0, symName: '__ZN9_translit8hostname17_is_safe_hostname28_$u7b$$u7b$closure$u7d$$u7d$17h692521e9887f9a28E', symObjAddr: 0x5C0, symBinAddr: 0x20CA0, symSize: 0x5C }
  - { offset: 0x60C56, size: 0x8, addend: 0x0, symName: '__ZN4pyo35impl_4wrap82EmptyTupleConverter$LT$core..result..Result$LT$$LP$$RP$$C$pyo3..err..PyErr$GT$$GT$12map_into_ptr17ha3fed8a8bb1446a8E', symObjAddr: 0x0, symBinAddr: 0x20CFC, symSize: 0x44 }
  - { offset: 0x616C3, size: 0x8, addend: 0x0, symName: '__ZN4pyo35impl_4wrap82EmptyTupleConverter$LT$core..result..Result$LT$$LP$$RP$$C$pyo3..err..PyErr$GT$$GT$12map_into_ptr17ha3fed8a8bb1446a8E', symObjAddr: 0x0, symBinAddr: 0x20CFC, symSize: 0x44 }
  - { offset: 0x6172B, size: 0x8, addend: 0x0, symName: __ZN10phf_shared4hash17h7dad0459d17068feE, symObjAddr: 0x0, symBinAddr: 0x20D40, symSize: 0x78 }
  - { offset: 0x6173D, size: 0x8, addend: 0x0, symName: __ZN10phf_shared4hash17h7dad0459d17068feE, symObjAddr: 0x0, symBinAddr: 0x20D40, symSize: 0x78 }
  - { offset: 0x617C9, size: 0x8, addend: 0x0, symName: __ZN10phf_shared4hash17h8eb11169cd923fedE, symObjAddr: 0x78, symBinAddr: 0x20DB8, symSize: 0x84 }
  - { offset: 0x6185A, size: 0x8, addend: 0x0, symName: '__ZN43_$LT$str$u20$as$u20$phf_shared..PhfHash$GT$8phf_hash17hdbfe6c4522f9abc9E', symObjAddr: 0xFC, symBinAddr: 0x20E3C, symSize: 0x3C }
  - { offset: 0x618A2, size: 0x8, addend: 0x0, symName: '__ZN43_$LT$u32$u20$as$u20$phf_shared..PhfHash$GT$8phf_hash17hda2fed9280294475E', symObjAddr: 0x138, symBinAddr: 0x20E78, symSize: 0x3C }
  - { offset: 0x618EA, size: 0x8, addend: 0x0, symName: '__ZN44_$LT$char$u20$as$u20$phf_shared..PhfHash$GT$8phf_hash17h3f051e6ef2791465E', symObjAddr: 0x174, symBinAddr: 0x20EB4, symSize: 0x38 }
  - { offset: 0x61932, size: 0x8, addend: 0x0, symName: '__ZN52_$LT$$u5b$u8$u5d$$u20$as$u20$phf_shared..PhfHash$GT$8phf_hash17h251005d1f95c3380E', symObjAddr: 0x1AC, symBinAddr: 0x20EEC, symSize: 0x48 }
  - { offset: 0x61B43, size: 0x8, addend: 0x0, symName: __ZN4core5slice6memchr6memchr17h7587651ea460442bE, symObjAddr: 0x0, symBinAddr: 0x20F34, symSize: 0x114 }
  - { offset: 0x61B94, size: 0x8, addend: 0x0, symName: __ZN4core5slice6memchr6memchr17h7587651ea460442bE, symObjAddr: 0x0, symBinAddr: 0x20F34, symSize: 0x114 }
  - { offset: 0x61CC2, size: 0x8, addend: 0x0, symName: __ZN9_translit6tables10list_langs17hc2a6175bf7c4bf66E, symObjAddr: 0x0, symBinAddr: 0x21048, symSize: 0x240 }
  - { offset: 0x61CE6, size: 0x8, addend: 0x0, symName: __ZN9_translit6tables11LANG_TABLES17hcceccaa8e732c2ceE, symObjAddr: 0x16B8, symBinAddr: 0x6DC5F0, symSize: 0x0 }
  - { offset: 0x61D00, size: 0x8, addend: 0x0, symName: __ZN9_translit6tables12HANGUL_CACHE17hc47346755d20e3a6E, symObjAddr: 0x1710, symBinAddr: 0x6DC648, symSize: 0x0 }
  - { offset: 0x61D1A, size: 0x8, addend: 0x0, symName: __ZN9_translit6tables15LANG_LEAK_CACHE17ha56f0e9bfc1d33e5E, symObjAddr: 0x1768, symBinAddr: 0x6DC6A0, symSize: 0x0 }
  - { offset: 0x61D34, size: 0x8, addend: 0x0, symName: __ZN9_translit6tables19GLOBAL_REPLACEMENTS17hef913e9ce257ba96E, symObjAddr: 0x17C0, symBinAddr: 0x6DC6F8, symSize: 0x0 }
  - { offset: 0x61D41, size: 0x8, addend: 0x0, symName: __ZN9_translit6tables10list_langs17hc2a6175bf7c4bf66E, symObjAddr: 0x0, symBinAddr: 0x21048, symSize: 0x240 }
  - { offset: 0x61DB6, size: 0x8, addend: 0x0, symName: __ZN9_translit6tables11lookup_iso917h07c9fc1659388baaE, symObjAddr: 0x240, symBinAddr: 0x21288, symSize: 0x20 }
  - { offset: 0x61DE2, size: 0x8, addend: 0x0, symName: __ZN9_translit6tables11lookup_lang17hdffdcb2c0af80cf0E, symObjAddr: 0x260, symBinAddr: 0x212A8, symSize: 0x494 }
  - { offset: 0x61F07, size: 0x8, addend: 0x0, symName: __ZN9_translit6tables13register_lang17h7f2ea4dfeee83802E, symObjAddr: 0x6F4, symBinAddr: 0x2173C, symSize: 0x41C }
  - { offset: 0x61FD1, size: 0x8, addend: 0x0, symName: __ZN9_translit6tables14lookup_default17h7c7e03c323d9db4bE, symObjAddr: 0xB10, symBinAddr: 0x21B58, symSize: 0x100 }
  - { offset: 0x6201A, size: 0x8, addend: 0x0, symName: __ZN9_translit6tables17lookup_confusable17h61b70ff7a3367a03E, symObjAddr: 0xC10, symBinAddr: 0x21C58, symSize: 0x2C }
  - { offset: 0x62054, size: 0x8, addend: 0x0, symName: __ZN9_translit6tables17max_emoji_seq_len17h9a098046d129ecadE, symObjAddr: 0xC3C, symBinAddr: 0x21C84, symSize: 0xC }
  - { offset: 0x62072, size: 0x8, addend: 0x0, symName: __ZN9_translit6tables18clear_replacements17h846ac3e623691a35E, symObjAddr: 0xC48, symBinAddr: 0x21C90, symSize: 0x9C }
  - { offset: 0x620A3, size: 0x8, addend: 0x0, symName: __ZN9_translit6tables18lookup_emoji_multi17h0803074087d4f6c0E, symObjAddr: 0xCE4, symBinAddr: 0x21D2C, symSize: 0x40 }
  - { offset: 0x620D1, size: 0x8, addend: 0x0, symName: __ZN9_translit6tables18remove_replacement17h23afccfb82041667E, symObjAddr: 0xD24, symBinAddr: 0x21D6C, symSize: 0x110 }
  - { offset: 0x62115, size: 0x8, addend: 0x0, symName: __ZN9_translit6tables19lookup_emoji_single17hc340fa21a61ddc4eE, symObjAddr: 0xE34, symBinAddr: 0x21E7C, symSize: 0x30 }
  - { offset: 0x62143, size: 0x8, addend: 0x0, symName: __ZN9_translit6tables20lookup_hangul_static17h75d98e7a311814e7E, symObjAddr: 0xE64, symBinAddr: 0x21EAC, symSize: 0x120 }
  - { offset: 0x6219A, size: 0x8, addend: 0x0, symName: __ZN9_translit6tables21register_replacements17h96c035f3e7afcc1dE, symObjAddr: 0xF84, symBinAddr: 0x21FCC, symSize: 0x114 }
  - { offset: 0x621D8, size: 0x8, addend: 0x0, symName: __ZN9_translit6tables22is_emoji_multi_starter17hbafb9e451d7c6f25E, symObjAddr: 0x1098, symBinAddr: 0x220E0, symSize: 0x2C }
  - { offset: 0x63F88, size: 0x8, addend: 0x0, symName: '__ZN4core3ops8function5impls79_$LT$impl$u20$core..ops..function..FnMut$LT$A$GT$$u20$for$u20$$RF$mut$u20$F$GT$8call_mut17h14fbea47781b6195E', symObjAddr: 0x0, symBinAddr: 0x2210C, symSize: 0x30 }
  - { offset: 0x63FC2, size: 0x8, addend: 0x0, symName: '__ZN9_translit13transliterate14_strip_accents28_$u7b$$u7b$closure$u7d$$u7d$17hf91a19456fa33753E', symObjAddr: 0x60, symBinAddr: 0x2216C, symSize: 0x30 }
  - { offset: 0x64005, size: 0x8, addend: 0x0, symName: '__ZN9_translit13transliterate17estimate_capacity28_$u7b$$u7b$closure$u7d$$u7d$17h10fb88ca4ff70cbcE', symObjAddr: 0x90, symBinAddr: 0x2219C, symSize: 0x84 }
  - { offset: 0x64058, size: 0x8, addend: 0x0, symName: '__ZN9_translit13transliterate17estimate_capacity28_$u7b$$u7b$closure$u7d$$u7d$17h936eb78d414cc81eE', symObjAddr: 0x114, symBinAddr: 0x22220, symSize: 0x34 }
  - { offset: 0x640A2, size: 0x8, addend: 0x0, symName: '__ZN9_translit13transliterate18transliterate_impl28_$u7b$$u7b$closure$u7d$$u7d$17h33acf21c8394f544E', symObjAddr: 0x148, symBinAddr: 0x22254, symSize: 0x28 }
  - { offset: 0x640D0, size: 0x8, addend: 0x0, symName: '__ZN9_translit13transliterate18transliterate_impl28_$u7b$$u7b$closure$u7d$$u7d$17h5e82f1f5f75df25cE', symObjAddr: 0x170, symBinAddr: 0x2227C, symSize: 0x28 }
  - { offset: 0x640FE, size: 0x8, addend: 0x0, symName: '__ZN9_translit13transliterate18transliterate_impl28_$u7b$$u7b$closure$u7d$$u7d$17h5ebbf068c8386e7dE', symObjAddr: 0x198, symBinAddr: 0x222A4, symSize: 0x40 }
  - { offset: 0x64140, size: 0x8, addend: 0x0, symName: '__ZN9_translit13transliterate20_strip_accents_batch28_$u7b$$u7b$closure$u7d$$u7d$17h255a5d31c77c4275E', symObjAddr: 0x1D8, symBinAddr: 0x222E4, symSize: 0xA0 }
  - { offset: 0x6417E, size: 0x8, addend: 0x0, symName: '__ZN9_translit13transliterate20_strip_accents_batch28_$u7b$$u7b$closure$u7d$$u7d$28_$u7b$$u7b$closure$u7d$$u7d$17h5b240061049914a5E', symObjAddr: 0x278, symBinAddr: 0x22384, symSize: 0x30 }
  - { offset: 0x641CC, size: 0x8, addend: 0x0, symName: '__ZN9_translit13transliterate20_transliterate_batch28_$u7b$$u7b$closure$u7d$$u7d$17h7e27a911fe025ee9E', symObjAddr: 0x2A8, symBinAddr: 0x223B4, symSize: 0x7C }
  - { offset: 0x6424E, size: 0x8, addend: 0x0, symName: '__ZN9_translit13transliterate27__pyfunction__transliterate28_$u7b$$u7b$closure$u7d$$u7d$17h1335dd98d638ef78E', symObjAddr: 0x324, symBinAddr: 0x22430, symSize: 0x24 }
  - { offset: 0x64276, size: 0x8, addend: 0x0, symName: '__ZN9_translit13transliterate27__pyfunction__transliterate28_$u7b$$u7b$closure$u7d$$u7d$17h89a7d533c2efa271E', symObjAddr: 0x348, symBinAddr: 0x22454, symSize: 0x18 }
  - { offset: 0x6429E, size: 0x8, addend: 0x0, symName: '__ZN9_translit13transliterate27__pyfunction__transliterate28_$u7b$$u7b$closure$u7d$$u7d$17haf866cd1f01dddb7E', symObjAddr: 0x360, symBinAddr: 0x2246C, symSize: 0x20 }
  - { offset: 0x642C6, size: 0x8, addend: 0x0, symName: '__ZN9_translit13transliterate27__pyfunction__transliterate28_$u7b$$u7b$closure$u7d$$u7d$17hd748b4459dce4424E', symObjAddr: 0x380, symBinAddr: 0x2248C, symSize: 0x20 }
  - { offset: 0x64310, size: 0x8, addend: 0x0, symName: '__ZN9_translit13transliterate33__pyfunction__transliterate_batch28_$u7b$$u7b$closure$u7d$$u7d$17h1fe5d38e215e08d8E', symObjAddr: 0x3A0, symBinAddr: 0x224AC, symSize: 0x24 }
  - { offset: 0x6433A, size: 0x8, addend: 0x0, symName: '__ZN9_translit13transliterate33__pyfunction__transliterate_batch28_$u7b$$u7b$closure$u7d$$u7d$17h5a0781d9e1838566E', symObjAddr: 0x3C4, symBinAddr: 0x224D0, symSize: 0x20 }
  - { offset: 0x64364, size: 0x8, addend: 0x0, symName: '__ZN9_translit13transliterate33__pyfunction__transliterate_batch28_$u7b$$u7b$closure$u7d$$u7d$17hb237557529b425b9E', symObjAddr: 0x3E4, symBinAddr: 0x224F0, symSize: 0x20 }
  - { offset: 0x6438E, size: 0x8, addend: 0x0, symName: '__ZN9_translit13transliterate33__pyfunction__transliterate_batch28_$u7b$$u7b$closure$u7d$$u7d$17he973f7ff7a7e9344E', symObjAddr: 0x404, symBinAddr: 0x22510, symSize: 0x18 }
  - { offset: 0x643F7, size: 0x8, addend: 0x0, symName: '__ZN4core3ops8function5impls79_$LT$impl$u20$core..ops..function..FnMut$LT$A$GT$$u20$for$u20$$RF$mut$u20$F$GT$8call_mut17h14fbea47781b6195E', symObjAddr: 0x0, symBinAddr: 0x2210C, symSize: 0x30 }
  - { offset: 0x64446, size: 0x8, addend: 0x0, symName: '__ZN4core3ops8function5impls79_$LT$impl$u20$core..ops..function..FnMut$LT$A$GT$$u20$for$u20$$RF$mut$u20$F$GT$8call_mut17h5c824bdd339b4258E', symObjAddr: 0x30, symBinAddr: 0x2213C, symSize: 0x30 }
  - { offset: 0x647E0, size: 0x8, addend: 0x0, symName: __ZN9_translit6tables10emoji_data11EMOJI_MULTI17hadf4abf475b8889fE, symObjAddr: 0x3E3F8, symBinAddr: 0x578C80, symSize: 0x0 }
  - { offset: 0x647FA, size: 0x8, addend: 0x0, symName: __ZN9_translit6tables10emoji_data12EMOJI_SINGLE17hce29167b5144c185E, symObjAddr: 0x48608, symBinAddr: 0x582E90, symSize: 0x0 }
  - { offset: 0x64814, size: 0x8, addend: 0x0, symName: __ZN9_translit6tables10emoji_data20EMOJI_MULTI_STARTERS17h97f8dc3b540cc1a0E, symObjAddr: 0x48630, symBinAddr: 0x582EB8, symSize: 0x0 }
  - { offset: 0x64A94, size: 0x8, addend: 0x0, symName: __ZN9_translit10whitespace13is_zero_width17h2d6ff49389546462E, symObjAddr: 0x0, symBinAddr: 0x22528, symSize: 0x84 }
  - { offset: 0x64B12, size: 0x8, addend: 0x0, symName: __ZN9_translit10whitespace13is_zero_width17h2d6ff49389546462E, symObjAddr: 0x0, symBinAddr: 0x22528, symSize: 0x84 }
  - { offset: 0x64B3E, size: 0x8, addend: 0x0, symName: __ZN9_translit10whitespace20_collapse_whitespace17h1d3a5fd3bb6c866cE, symObjAddr: 0x84, symBinAddr: 0x225AC, symSize: 0x25C }
  - { offset: 0x64BDD, size: 0x8, addend: 0x0, symName: __ZN9_translit10whitespace33__pyfunction__collapse_whitespace17hd4417601bc899d84E, symObjAddr: 0x2E0, symBinAddr: 0x22808, symSize: 0x55C }
  - { offset: 0x64DA1, size: 0x8, addend: 0x0, symName: '__ZN9_translit10whitespace70_$LT$impl$u20$_translit..whitespace.._collapse_whitespace..MakeDef$GT$9_PYO3_DEF10trampoline17h596321d4974b0f7bE', symObjAddr: 0x83C, symBinAddr: 0x22D64, symSize: 0x4C }
  - { offset: 0x65BC0, size: 0x8, addend: 0x0, symName: '__ZN4core3cmp5impls55_$LT$impl$u20$core..cmp..PartialEq$u20$for$u20$char$GT$2eq17h622d2dbf27cedcf1E', symObjAddr: 0x0, symBinAddr: 0x22DB0, symSize: 0x2C }
  - { offset: 0x65BE1, size: 0x8, addend: 0x0, symName: '__ZN4core3cmp5impls55_$LT$impl$u20$core..cmp..PartialEq$u20$for$u20$char$GT$2eq17h622d2dbf27cedcf1E', symObjAddr: 0x0, symBinAddr: 0x22DB0, symSize: 0x2C }
  - { offset: 0x65C5B, size: 0x8, addend: 0x0, symName: '__ZN4core5slice29_$LT$impl$u20$$u5b$T$u5d$$GT$4iter17h56bec4298198711aE', symObjAddr: 0x0, symBinAddr: 0x22DDC, symSize: 0x28 }
  - { offset: 0x65C77, size: 0x8, addend: 0x0, symName: '__ZN4core5slice29_$LT$impl$u20$$u5b$T$u5d$$GT$4iter17h56bec4298198711aE', symObjAddr: 0x0, symBinAddr: 0x22DDC, symSize: 0x28 }
  - { offset: 0x65F2A, size: 0x8, addend: 0x0, symName: '__ZN9_translit8encoding15_decode_to_utf828_$u7b$$u7b$closure$u7d$$u7d$17h57f65d14fae405b7E', symObjAddr: 0x0, symBinAddr: 0x22E04, symSize: 0x34 }
  - { offset: 0x65F46, size: 0x8, addend: 0x0, symName: '__ZN9_translit8encoding15_decode_to_utf828_$u7b$$u7b$closure$u7d$$u7d$17h57f65d14fae405b7E', symObjAddr: 0x0, symBinAddr: 0x22E04, symSize: 0x34 }
  - { offset: 0x65F8A, size: 0x8, addend: 0x0, symName: '__ZN9_translit8encoding19decode_to_utf8_impl28_$u7b$$u7b$closure$u7d$$u7d$17h384900db01089538E', symObjAddr: 0x34, symBinAddr: 0x22E38, symSize: 0x68 }
  - { offset: 0x66015, size: 0x8, addend: 0x0, symName: '__ZN9_translit8encoding28__pyfunction__decode_to_utf828_$u7b$$u7b$closure$u7d$$u7d$17hf19e08d9639db33fE', symObjAddr: 0x9C, symBinAddr: 0x22EA0, symSize: 0x24 }
  - { offset: 0x66C49, size: 0x8, addend: 0x0, symName: __ZN8pyo3_ffi10boolobject7Py_True17h51820e17ad9d79daE, symObjAddr: 0x0, symBinAddr: 0x22EC4, symSize: 0xC }
  - { offset: 0x66C60, size: 0x8, addend: 0x0, symName: __ZN8pyo3_ffi10boolobject7Py_True17h51820e17ad9d79daE, symObjAddr: 0x0, symBinAddr: 0x22EC4, symSize: 0xC }
  - { offset: 0x66C7D, size: 0x8, addend: 0x0, symName: __ZN8pyo3_ffi10boolobject8Py_False17hbd53d0fdb6d42cf0E, symObjAddr: 0xC, symBinAddr: 0x22ED0, symSize: 0xC }
  - { offset: 0x66D32, size: 0x8, addend: 0x0, symName: '__ZN157_$LT$$LT$alloc..vec..into_iter..IntoIter$LT$T$C$A$GT$$u20$as$u20$core..ops..drop..Drop$GT$..drop..DropGuard$LT$T$C$A$GT$$u20$as$u20$core..ops..drop..Drop$GT$4drop17hbd6647fee7341488E', symObjAddr: 0x0, symBinAddr: 0x22EDC, symSize: 0x6C }
  - { offset: 0x673E8, size: 0x8, addend: 0x0, symName: '__ZN4core3ptr100drop_in_place$LT$core..iter..adapters..enumerate..Enumerate$LT$regex..regex..string..Matches$GT$$GT$17h6495ad5622824d67E', symObjAddr: 0x34A4, symBinAddr: 0x2635C, symSize: 0x24 }
  - { offset: 0x67417, size: 0x8, addend: 0x0, symName: '__ZN4core3ptr101drop_in_place$LT$pyo3..pyclass_init..PyClassInitializer$LT$_translit..pipeline.._TextPipeline$GT$$GT$17hd1be702f64f4cb4fE', symObjAddr: 0x34EC, symBinAddr: 0x26380, symSize: 0x24 }
  - { offset: 0x67446, size: 0x8, addend: 0x0, symName: '__ZN4core3ptr101drop_in_place$LT$pyo3..pyclass_init..PyClassInitializerImpl$LT$_translit..slugify.._Slugifier$GT$$GT$17h115023ee13d11b57E', symObjAddr: 0x3510, symBinAddr: 0x263A4, symSize: 0x58 }
  - { offset: 0x67475, size: 0x8, addend: 0x0, symName: '__ZN4core3ptr102drop_in_place$LT$core..result..Result$LT$_translit..pipeline.._TextPipeline$C$pyo3..err..PyErr$GT$$GT$17hce591e84bfc75814E', symObjAddr: 0x3568, symBinAddr: 0x263FC, symSize: 0x50 }
  - { offset: 0x674A4, size: 0x8, addend: 0x0, symName: '__ZN4core3ptr103drop_in_place$LT$core..result..Result$LT$$LP$alloc..string..String$C$f64$RP$$C$pyo3..err..PyErr$GT$$GT$17he4b36cbe7ccfe89fE', symObjAddr: 0x35B8, symBinAddr: 0x2644C, symSize: 0x50 }
  - { offset: 0x674D3, size: 0x8, addend: 0x0, symName: '__ZN4core3ptr103drop_in_place$LT$hashbrown..map..HashMap$LT$$RF$str$C$$LP$$RP$$C$std..hash..random..RandomState$GT$$GT$17hdd59dc3238ca293eE', symObjAddr: 0x3608, symBinAddr: 0x2649C, symSize: 0x24 }
  - { offset: 0x67502, size: 0x8, addend: 0x0, symName: '__ZN4core3ptr103drop_in_place$LT$pyo3..pyclass_init..PyClassInitializer$LT$_translit..slugify.._UniqueSlugifier$GT$$GT$17he6862e6227867708E', symObjAddr: 0x362C, symBinAddr: 0x264C0, symSize: 0x24 }
  - { offset: 0x67531, size: 0x8, addend: 0x0, symName: '__ZN4core3ptr104drop_in_place$LT$alloc..raw_vec..RawVec$LT$$LP$alloc..string..String$C$alloc..string..String$RP$$GT$$GT$17hf33a6f63e6605e23E', symObjAddr: 0x3650, symBinAddr: 0x264E4, symSize: 0x24 }
  - { offset: 0x67560, size: 0x8, addend: 0x0, symName: '__ZN4core3ptr104drop_in_place$LT$core..result..Result$LT$$LP$alloc..string..String$C$bool$RP$$C$pyo3..err..PyErr$GT$$GT$17h07e86964fa6bd258E', symObjAddr: 0x3674, symBinAddr: 0x26508, symSize: 0x50 }
  - { offset: 0x6758F, size: 0x8, addend: 0x0, symName: '__ZN4core3ptr104drop_in_place$LT$core..result..Result$LT$_translit..slugify.._UniqueSlugifier$C$pyo3..err..PyErr$GT$$GT$17h454ce28a573f82c2E', symObjAddr: 0x36C4, symBinAddr: 0x26558, symSize: 0x5C }
  - { offset: 0x675BE, size: 0x8, addend: 0x0, symName: '__ZN4core3ptr105drop_in_place$LT$pyo3..pyclass_init..PyClassInitializerImpl$LT$_translit..pipeline.._TextPipeline$GT$$GT$17h995b581dd0faf8f8E', symObjAddr: 0x3768, symBinAddr: 0x265B4, symSize: 0x58 }
  - { offset: 0x675ED, size: 0x8, addend: 0x0, symName: '__ZN4core3ptr106drop_in_place$LT$core..option..Option$LT$pyo3..pycell..PyRef$LT$_translit..slugify.._Slugifier$GT$$GT$$GT$17hd00301571480f931E', symObjAddr: 0x37C0, symBinAddr: 0x2660C, symSize: 0x44 }
  - { offset: 0x6761C, size: 0x8, addend: 0x0, symName: '__ZN4core3ptr106drop_in_place$LT$hashbrown..raw..RawTable$LT$$LP$alloc..string..String$C$alloc..string..String$RP$$GT$$GT$17hc2ea29fa06e0fa90E', symObjAddr: 0x3804, symBinAddr: 0x26650, symSize: 0x24 }
  - { offset: 0x6764B, size: 0x8, addend: 0x0, symName: '__ZN4core3ptr106drop_in_place$LT$hashbrown..set..HashSet$LT$alloc..string..String$C$std..hash..random..RandomState$GT$$GT$17h8ea558e142d36eefE', symObjAddr: 0x3828, symBinAddr: 0x26674, symSize: 0x24 }
  - { offset: 0x6767A, size: 0x8, addend: 0x0, symName: '__ZN4core3ptr107drop_in_place$LT$core..iter..adapters..enumerate..Enumerate$LT$regex..regex..string..CaptureMatches$GT$$GT$17h60d0f1726c2eaa58E', symObjAddr: 0x384C, symBinAddr: 0x26698, symSize: 0x24 }
  - { offset: 0x676A9, size: 0x8, addend: 0x0, symName: '__ZN4core3ptr107drop_in_place$LT$core..option..Option$LT$std..collections..hash..map..HashMap$LT$char$C$$RF$str$GT$$GT$$GT$17hb7a92cc8fc4e8174E', symObjAddr: 0x3870, symBinAddr: 0x266BC, symSize: 0x44 }
  - { offset: 0x676D8, size: 0x8, addend: 0x0, symName: '__ZN4core3ptr107drop_in_place$LT$pyo3..pyclass_init..PyClassInitializer$LT$_translit..hostname..SafeHostnameDetails$GT$$GT$17h885cba8bd88c1f1dE', symObjAddr: 0x38B4, symBinAddr: 0x26700, symSize: 0x24 }
  - { offset: 0x67707, size: 0x8, addend: 0x0, symName: '__ZN4core3ptr107drop_in_place$LT$pyo3..pyclass_init..PyClassInitializerImpl$LT$_translit..slugify.._UniqueSlugifier$GT$$GT$17h14b7f1735b9ed209E', symObjAddr: 0x38D8, symBinAddr: 0x26724, symSize: 0x58 }
  - { offset: 0x67736, size: 0x8, addend: 0x0, symName: '__ZN4core3ptr108drop_in_place$LT$core..result..Result$LT$$LP$$RP$$C$alloc..borrow..Cow$LT$core..ffi..c_str..CStr$GT$$GT$$GT$17hebe75661c8cc7381E', symObjAddr: 0x3930, symBinAddr: 0x2677C, symSize: 0x44 }
  - { offset: 0x67765, size: 0x8, addend: 0x0, symName: '__ZN4core3ptr109drop_in_place$LT$core..cell..UnsafeCell$LT$std..collections..hash..map..HashMap$LT$char$C$$RF$str$GT$$GT$$GT$17haf332956eaa374adE', symObjAddr: 0x39D4, symBinAddr: 0x267C0, symSize: 0x24 }
  - { offset: 0x67794, size: 0x8, addend: 0x0, symName: '__ZN4core3ptr109drop_in_place$LT$hashbrown..raw..RawIntoIter$LT$$LP$alloc..string..String$C$alloc..string..String$RP$$GT$$GT$17h7dacad7c3ce4a728E', symObjAddr: 0x3A1C, symBinAddr: 0x267E4, symSize: 0x24 }
  - { offset: 0x677C3, size: 0x8, addend: 0x0, symName: '__ZN4core3ptr110drop_in_place$LT$core..option..Option$LT$pyo3..pycell..PyRef$LT$_translit..pipeline.._TextPipeline$GT$$GT$$GT$17h1d4aa558be9ef6f9E', symObjAddr: 0x3A40, symBinAddr: 0x26808, symSize: 0x44 }
  - { offset: 0x677F2, size: 0x8, addend: 0x0, symName: '__ZN4core3ptr110drop_in_place$LT$std..collections..hash..map..HashMap$LT$alloc..string..String$C$alloc..string..String$GT$$GT$17hf5903722a89d916bE', symObjAddr: 0x3A84, symBinAddr: 0x2684C, symSize: 0x24 }
  - { offset: 0x67821, size: 0x8, addend: 0x0, symName: '__ZN4core3ptr111drop_in_place$LT$$LP$alloc..string..String$C$std..collections..hash..map..HashMap$LT$char$C$$RF$str$GT$$RP$$GT$17h4914f7dd95c0e150E', symObjAddr: 0x3AA8, symBinAddr: 0x26870, symSize: 0x60 }
  - { offset: 0x67850, size: 0x8, addend: 0x0, symName: '__ZN4core3ptr111drop_in_place$LT$pyo3..pyclass_init..PyClassInitializerImpl$LT$_translit..hostname..SafeHostnameDetails$GT$$GT$17h9278bb4bd233a9feE', symObjAddr: 0x3B08, symBinAddr: 0x268D0, symSize: 0x58 }
  - { offset: 0x6787F, size: 0x8, addend: 0x0, symName: '__ZN4core3ptr111drop_in_place$LT$std..collections..hash..map..IntoIter$LT$alloc..string..String$C$alloc..string..String$GT$$GT$17h0ed56f8adb476bfbE', symObjAddr: 0x3B60, symBinAddr: 0x26928, symSize: 0x24 }
  - { offset: 0x678AE, size: 0x8, addend: 0x0, symName: '__ZN4core3ptr112drop_in_place$LT$core..result..Result$LT$alloc..vec..Vec$LT$alloc..string..String$GT$$C$pyo3..err..PyErr$GT$$GT$17hee15e92b3f50022aE', symObjAddr: 0x3B84, symBinAddr: 0x2694C, symSize: 0x50 }
  - { offset: 0x678DD, size: 0x8, addend: 0x0, symName: '__ZN4core3ptr113drop_in_place$LT$hashbrown..map..HashMap$LT$char$C$alloc..string..String$C$std..hash..random..RandomState$GT$$GT$17h6c53b75d80342889E', symObjAddr: 0x3BD4, symBinAddr: 0x2699C, symSize: 0x24 }
  - { offset: 0x6790C, size: 0x8, addend: 0x0, symName: '__ZN4core3ptr115drop_in_place$LT$core..option..Option$LT$pyo3..pycell..PyRefMut$LT$_translit..slugify.._UniqueSlugifier$GT$$GT$$GT$17hc0677aef4c0527f4E', symObjAddr: 0x3C1C, symBinAddr: 0x269C0, symSize: 0x44 }
  - { offset: 0x6793B, size: 0x8, addend: 0x0, symName: '__ZN4core3ptr116drop_in_place$LT$core..result..Result$LT$alloc..boxed..Box$LT$regex_automata..meta..regex..Cache$GT$$C$usize$GT$$GT$17h52282d815e63a4e0E', symObjAddr: 0x3C60, symBinAddr: 0x26A04, symSize: 0x40 }
  - { offset: 0x6796A, size: 0x8, addend: 0x0, symName: '__ZN4core3ptr117drop_in_place$LT$core..result..Result$LT$pyo3..instance..Py$LT$pyo3..types..any..PyAny$GT$$C$pyo3..err..PyErr$GT$$GT$17h50f1b9ca94711266E', symObjAddr: 0x3CA0, symBinAddr: 0x26A44, symSize: 0x50 }
  - { offset: 0x67999, size: 0x8, addend: 0x0, symName: '__ZN4core3ptr117drop_in_place$LT$hashbrown..map..HashMap$LT$alloc..string..String$C$$LP$$RP$$C$std..hash..random..RandomState$GT$$GT$17h61c16ad398315027E', symObjAddr: 0x3CF0, symBinAddr: 0x26A94, symSize: 0x24 }
  - { offset: 0x679C8, size: 0x8, addend: 0x0, symName: '__ZN4core3ptr120drop_in_place$LT$std..sync..poison..rwlock..RwLock$LT$std..collections..hash..map..HashMap$LT$char$C$$RF$str$GT$$GT$$GT$17h4333f07ebe0e7257E', symObjAddr: 0x3D5C, symBinAddr: 0x26AB8, symSize: 0x24 }
  - { offset: 0x679F7, size: 0x8, addend: 0x0, symName: '__ZN4core3ptr121drop_in_place$LT$core..option..Option$LT$std..collections..hash..map..HashMap$LT$char$C$alloc..string..String$GT$$GT$$GT$17he66a7742bcbd7b25E', symObjAddr: 0x3D80, symBinAddr: 0x26ADC, symSize: 0x44 }
  - { offset: 0x67A26, size: 0x8, addend: 0x0, symName: '__ZN4core3ptr122drop_in_place$LT$core..result..Result$LT$pyo3..instance..Bound$LT$pyo3..types..list..PyList$GT$$C$pyo3..err..PyErr$GT$$GT$17hfd8546bff536c1c4E', symObjAddr: 0x3DC4, symBinAddr: 0x26B20, symSize: 0x50 }
  - { offset: 0x67A55, size: 0x8, addend: 0x0, symName: '__ZN4core3ptr123drop_in_place$LT$core..option..Option$LT$core..option..Option$LT$$LP$usize$C$regex..regex..string..Captures$RP$$GT$$GT$$GT$17heceb56ba95b13cf0E', symObjAddr: 0x3E14, symBinAddr: 0x26B70, symSize: 0x44 }
  - { offset: 0x67A84, size: 0x8, addend: 0x0, symName: '__ZN4core3ptr123drop_in_place$LT$core..result..Result$LT$$LP$bool$C$_translit..hostname..SafeHostnameDetails$RP$$C$pyo3..err..PyErr$GT$$GT$17h0864a39e98804572E', symObjAddr: 0x3E58, symBinAddr: 0x26BB4, symSize: 0x50 }
  - { offset: 0x67AB3, size: 0x8, addend: 0x0, symName: '__ZN4core3ptr125drop_in_place$LT$$LP$alloc..string..String$C$std..collections..hash..map..HashMap$LT$char$C$alloc..string..String$GT$$RP$$GT$17h6fc0cf39120a4199E', symObjAddr: 0x3ECC, symBinAddr: 0x26C04, symSize: 0x60 }
  - { offset: 0x67AE2, size: 0x8, addend: 0x0, symName: '__ZN4core3ptr127drop_in_place$LT$pyo3..err..PyErr..new$LT$_translit..TranslitError$C$alloc..string..String$GT$..$u7b$$u7b$closure$u7d$$u7d$$GT$17h124c0302a740c908E', symObjAddr: 0x3F2C, symBinAddr: 0x26C64, symSize: 0x24 }
  - { offset: 0x67B11, size: 0x8, addend: 0x0, symName: '__ZN4core3ptr128drop_in_place$LT$core..cell..UnsafeCell$LT$core..option..Option$LT$pyo3..instance..Py$LT$pyo3..types..any..PyAny$GT$$GT$$GT$$GT$17hefeeda42b59f6c34E', symObjAddr: 0x3F50, symBinAddr: 0x26C88, symSize: 0x24 }
  - { offset: 0x67B40, size: 0x8, addend: 0x0, symName: '__ZN4core3ptr129drop_in_place$LT$std..sync..poison..rwlock..RwLockReadGuard$LT$std..collections..hash..map..HashMap$LT$char$C$$RF$str$GT$$GT$$GT$17hf75c85b20cf61090E', symObjAddr: 0x3F74, symBinAddr: 0x26CAC, symSize: 0x24 }
  - { offset: 0x67B6F, size: 0x8, addend: 0x0, symName: '__ZN4core3ptr130drop_in_place$LT$hashbrown..map..HashMap$LT$alloc..string..String$C$alloc..string..String$C$std..hash..random..RandomState$GT$$GT$17h418277f022b8777cE', symObjAddr: 0x3F98, symBinAddr: 0x26CD0, symSize: 0x24 }
  - { offset: 0x67B9E, size: 0x8, addend: 0x0, symName: '__ZN4core3ptr130drop_in_place$LT$std..sync..poison..rwlock..RwLockWriteGuard$LT$std..collections..hash..map..HashMap$LT$char$C$$RF$str$GT$$GT$$GT$17h65657322bd021ce7E', symObjAddr: 0x3FBC, symBinAddr: 0x26CF4, symSize: 0x24 }
  - { offset: 0x67BCD, size: 0x8, addend: 0x0, symName: '__ZN4core3ptr139drop_in_place$LT$std..sync..poison..rwlock..RwLock$LT$core..option..Option$LT$pyo3..instance..Py$LT$pyo3..types..any..PyAny$GT$$GT$$GT$$GT$17hc9116ad822bd2116E', symObjAddr: 0x3FE0, symBinAddr: 0x26D18, symSize: 0x24 }
  - { offset: 0x67BFC, size: 0x8, addend: 0x0, symName: '__ZN4core3ptr140drop_in_place$LT$core..cell..UnsafeCell$LT$std..collections..hash..map..HashMap$LT$alloc..string..String$C$alloc..string..String$GT$$GT$$GT$17ha0fe7b4b2a95d4a6E', symObjAddr: 0x4004, symBinAddr: 0x26D3C, symSize: 0x24 }
  - { offset: 0x67C2B, size: 0x8, addend: 0x0, symName: '__ZN4core3ptr143drop_in_place$LT$hashbrown..raw..RawTable$LT$$LP$alloc..string..String$C$std..collections..hash..map..HashMap$LT$char$C$$RF$str$GT$$RP$$GT$$GT$17hed32bd03ebf06c01E', symObjAddr: 0x4028, symBinAddr: 0x26D60, symSize: 0x24 }
  - { offset: 0x67C5A, size: 0x8, addend: 0x0, symName: '__ZN4core3ptr147drop_in_place$LT$std..collections..hash..map..HashMap$LT$alloc..string..String$C$std..collections..hash..map..HashMap$LT$char$C$$RF$str$GT$$GT$$GT$17ha367d6fe17f9fdb6E', symObjAddr: 0x404C, symBinAddr: 0x26D84, symSize: 0x24 }
  - { offset: 0x67C89, size: 0x8, addend: 0x0, symName: '__ZN4core3ptr147drop_in_place$LT$std..sync..poison..mutex..MutexGuard$LT$alloc..vec..Vec$LT$alloc..boxed..Box$LT$regex_automata..meta..regex..Cache$GT$$GT$$GT$$GT$17h9e47d7dda1a8155aE', symObjAddr: 0x4070, symBinAddr: 0x26DA8, symSize: 0x24 }
  - { offset: 0x67CB8, size: 0x8, addend: 0x0, symName: '__ZN4core3ptr148drop_in_place$LT$core..iter..adapters..peekable..Peekable$LT$core..iter..adapters..enumerate..Enumerate$LT$regex..regex..string..Matches$GT$$GT$$GT$17hde8222aeb746da61E', symObjAddr: 0x4094, symBinAddr: 0x26DCC, symSize: 0x24 }
  - { offset: 0x67CE7, size: 0x8, addend: 0x0, symName: '__ZN4core3ptr148drop_in_place$LT$core..option..Option$LT$core..result..Result$LT$pyo3..instance..Bound$LT$pyo3..types..any..PyAny$GT$$C$pyo3..err..PyErr$GT$$GT$$GT$17h9ea00960a8ca8e64E', symObjAddr: 0x40B8, symBinAddr: 0x26DF0, symSize: 0x44 }
  - { offset: 0x67D16, size: 0x8, addend: 0x0, symName: '__ZN4core3ptr148drop_in_place$LT$core..option..Option$LT$std..sync..poison..rwlock..RwLock$LT$std..collections..hash..map..HashMap$LT$char$C$$RF$str$GT$$GT$$GT$$GT$17hfc080e7a3539e080E', symObjAddr: 0x40FC, symBinAddr: 0x26E34, symSize: 0x40 }
  - { offset: 0x67D45, size: 0x8, addend: 0x0, symName: '__ZN4core3ptr148drop_in_place$LT$std..sync..poison..rwlock..RwLockReadGuard$LT$core..option..Option$LT$pyo3..instance..Py$LT$pyo3..types..any..PyAny$GT$$GT$$GT$$GT$17hb607ccdfd1a8c0efE', symObjAddr: 0x413C, symBinAddr: 0x26E74, symSize: 0x24 }
  - { offset: 0x67D74, size: 0x8, addend: 0x0, symName: '__ZN4core3ptr149drop_in_place$LT$std..sync..poison..rwlock..RwLockWriteGuard$LT$core..option..Option$LT$pyo3..instance..Py$LT$pyo3..types..any..PyAny$GT$$GT$$GT$$GT$17hd35e79bc71272207E', symObjAddr: 0x4184, symBinAddr: 0x26E98, symSize: 0x24 }
  - { offset: 0x67DA3, size: 0x8, addend: 0x0, symName: '__ZN4core3ptr151drop_in_place$LT$hashbrown..rustc_entry..RustcVacantEntry$LT$alloc..string..String$C$std..collections..hash..map..HashMap$LT$char$C$$RF$str$GT$$GT$$GT$17h1944f9f79d935428E', symObjAddr: 0x41A8, symBinAddr: 0x26EBC, symSize: 0x24 }
  - { offset: 0x67DD2, size: 0x8, addend: 0x0, symName: '__ZN4core3ptr151drop_in_place$LT$std..collections..hash..map..VacantEntry$LT$alloc..string..String$C$std..collections..hash..map..HashMap$LT$char$C$$RF$str$GT$$GT$$GT$17h85e67188510a870eE', symObjAddr: 0x41CC, symBinAddr: 0x26EE0, symSize: 0x24 }
  - { offset: 0x67E01, size: 0x8, addend: 0x0, symName: '__ZN4core3ptr151drop_in_place$LT$std..sync..poison..rwlock..RwLock$LT$std..collections..hash..map..HashMap$LT$alloc..string..String$C$alloc..string..String$GT$$GT$$GT$17h842b3b41c03b558aE', symObjAddr: 0x41F0, symBinAddr: 0x26F04, symSize: 0x24 }
  - { offset: 0x67E30, size: 0x8, addend: 0x0, symName: '__ZN4core3ptr155drop_in_place$LT$core..iter..adapters..peekable..Peekable$LT$core..iter..adapters..enumerate..Enumerate$LT$regex..regex..string..CaptureMatches$GT$$GT$$GT$17h9e910e88bfabada7E', symObjAddr: 0x425C, symBinAddr: 0x26F28, symSize: 0x60 }
  - { offset: 0x67E5F, size: 0x8, addend: 0x0, symName: '__ZN4core3ptr157drop_in_place$LT$hashbrown..raw..RawTable$LT$$LP$alloc..string..String$C$std..collections..hash..map..HashMap$LT$char$C$alloc..string..String$GT$$RP$$GT$$GT$17h8315bf00e1431a13E', symObjAddr: 0x42BC, symBinAddr: 0x26F88, symSize: 0x24 }
  - { offset: 0x67E8E, size: 0x8, addend: 0x0, symName: '__ZN4core3ptr161drop_in_place$LT$$LT$alloc..vec..into_iter..IntoIter$LT$T$C$A$GT$$u20$as$u20$core..ops..drop..Drop$GT$..drop..DropGuard$LT$$RF$str$C$alloc..alloc..Global$GT$$GT$17h06604ffe687ad160E', symObjAddr: 0x42E0, symBinAddr: 0x26FAC, symSize: 0x24 }
  - { offset: 0x67EBD, size: 0x8, addend: 0x0, symName: '__ZN4core3ptr161drop_in_place$LT$std..collections..hash..map..HashMap$LT$alloc..string..String$C$std..collections..hash..map..HashMap$LT$char$C$alloc..string..String$GT$$GT$$GT$17h0e61fa41ca834facE', symObjAddr: 0x4304, symBinAddr: 0x26FD0, symSize: 0x24 }
  - { offset: 0x67EEC, size: 0x8, addend: 0x0, symName: '__ZN4core3ptr161drop_in_place$LT$std..sync..poison..rwlock..RwLockWriteGuard$LT$std..collections..hash..map..HashMap$LT$alloc..string..String$C$alloc..string..String$GT$$GT$$GT$17h1f0b0f362f80bd6cE', symObjAddr: 0x4328, symBinAddr: 0x26FF4, symSize: 0x24 }
  - { offset: 0x67F1B, size: 0x8, addend: 0x0, symName: '__ZN4core3ptr167drop_in_place$LT$core..option..Option$LT$std..sync..poison..rwlock..RwLock$LT$core..option..Option$LT$pyo3..instance..Py$LT$pyo3..types..any..PyAny$GT$$GT$$GT$$GT$$GT$17h51320a16fc96df17E', symObjAddr: 0x434C, symBinAddr: 0x27018, symSize: 0x40 }
  - { offset: 0x67F4A, size: 0x8, addend: 0x0, symName: '__ZN4core3ptr167drop_in_place$LT$hashbrown..map..HashMap$LT$alloc..string..String$C$std..collections..hash..map..HashMap$LT$char$C$$RF$str$GT$$C$std..hash..random..RandomState$GT$$GT$17ha9af53aa0e01b82fE', symObjAddr: 0x438C, symBinAddr: 0x27058, symSize: 0x24 }
  - { offset: 0x67F79, size: 0x8, addend: 0x0, symName: '__ZN4core3ptr175drop_in_place$LT$$LT$alloc..vec..into_iter..IntoIter$LT$T$C$A$GT$$u20$as$u20$core..ops..drop..Drop$GT$..drop..DropGuard$LT$alloc..string..String$C$alloc..alloc..Global$GT$$GT$17h76b2d09d085d23a6E', symObjAddr: 0x441C, symBinAddr: 0x2707C, symSize: 0x24 }
  - { offset: 0x67FA8, size: 0x8, addend: 0x0, symName: '__ZN4core3ptr177drop_in_place$LT$core..cell..UnsafeCell$LT$std..collections..hash..map..HashMap$LT$alloc..string..String$C$std..collections..hash..map..HashMap$LT$char$C$$RF$str$GT$$GT$$GT$$GT$17h79b83e7846230b02E', symObjAddr: 0x4440, symBinAddr: 0x270A0, symSize: 0x24 }
  - { offset: 0x67FD7, size: 0x8, addend: 0x0, symName: '__ZN4core3ptr179drop_in_place$LT$core..option..Option$LT$std..sync..poison..rwlock..RwLock$LT$std..collections..hash..map..HashMap$LT$alloc..string..String$C$alloc..string..String$GT$$GT$$GT$$GT$17he55c35f58069ddf5E', symObjAddr: 0x4488, symBinAddr: 0x270C4, symSize: 0x40 }
  - { offset: 0x68006, size: 0x8, addend: 0x0, symName: '__ZN4core3ptr181drop_in_place$LT$hashbrown..map..HashMap$LT$alloc..string..String$C$std..collections..hash..map..HashMap$LT$char$C$alloc..string..String$GT$$C$std..hash..random..RandomState$GT$$GT$17h7c74fd49fe51d475E', symObjAddr: 0x44EC, symBinAddr: 0x27104, symSize: 0x24 }
  - { offset: 0x68035, size: 0x8, addend: 0x0, symName: '__ZN4core3ptr185drop_in_place$LT$std..sync..poison..PoisonError$LT$std..sync..poison..mutex..MutexGuard$LT$alloc..vec..Vec$LT$alloc..boxed..Box$LT$regex_automata..meta..regex..Cache$GT$$GT$$GT$$GT$$GT$17hee1c5ec7cf65ece1E', symObjAddr: 0x4558, symBinAddr: 0x27128, symSize: 0x24 }
  - { offset: 0x68064, size: 0x8, addend: 0x0, symName: '__ZN4core3ptr186drop_in_place$LT$std..sync..poison..TryLockError$LT$std..sync..poison..mutex..MutexGuard$LT$alloc..vec..Vec$LT$alloc..boxed..Box$LT$regex_automata..meta..regex..Cache$GT$$GT$$GT$$GT$$GT$17hc90a8856e464cd3aE', symObjAddr: 0x457C, symBinAddr: 0x2714C, symSize: 0x48 }
  - { offset: 0x68093, size: 0x8, addend: 0x0, symName: '__ZN4core3ptr188drop_in_place$LT$std..sync..poison..rwlock..RwLock$LT$std..collections..hash..map..HashMap$LT$alloc..string..String$C$std..collections..hash..map..HashMap$LT$char$C$$RF$str$GT$$GT$$GT$$GT$17hf298233bd02da15dE', symObjAddr: 0x45C4, symBinAddr: 0x27194, symSize: 0x24 }
  - { offset: 0x680C2, size: 0x8, addend: 0x0, symName: '__ZN4core3ptr189drop_in_place$LT$core..iter..adapters..map..Map$LT$alloc..vec..into_iter..IntoIter$LT$$RF$str$GT$$C$$LT$alloc..string..String$u20$as$u20$core..convert..From$LT$$RF$str$GT$$GT$..from$GT$$GT$17hd6cde9ea1c74c1e6E', symObjAddr: 0x45E8, symBinAddr: 0x271B8, symSize: 0x24 }
  - { offset: 0x680F1, size: 0x8, addend: 0x0, symName: '__ZN4core3ptr191drop_in_place$LT$core..cell..UnsafeCell$LT$std..collections..hash..map..HashMap$LT$alloc..string..String$C$std..collections..hash..map..HashMap$LT$char$C$alloc..string..String$GT$$GT$$GT$$GT$17heed1e325c5aa6c39E', symObjAddr: 0x460C, symBinAddr: 0x271DC, symSize: 0x24 }
  - { offset: 0x68120, size: 0x8, addend: 0x0, symName: '__ZN4core3ptr197drop_in_place$LT$std..sync..poison..rwlock..RwLockReadGuard$LT$std..collections..hash..map..HashMap$LT$alloc..string..String$C$std..collections..hash..map..HashMap$LT$char$C$$RF$str$GT$$GT$$GT$$GT$17hf8b4c34c00d9c4f2E', symObjAddr: 0x4654, symBinAddr: 0x27200, symSize: 0x24 }
  - { offset: 0x6814F, size: 0x8, addend: 0x0, symName: '__ZN4core3ptr198drop_in_place$LT$std..sync..poison..rwlock..RwLockWriteGuard$LT$std..collections..hash..map..HashMap$LT$alloc..string..String$C$std..collections..hash..map..HashMap$LT$char$C$$RF$str$GT$$GT$$GT$$GT$17h2c7e6ac74e133afaE', symObjAddr: 0x4678, symBinAddr: 0x27224, symSize: 0x24 }
  - { offset: 0x6817E, size: 0x8, addend: 0x0, symName: '__ZN4core3ptr202drop_in_place$LT$std..sync..poison..rwlock..RwLock$LT$std..collections..hash..map..HashMap$LT$alloc..string..String$C$std..collections..hash..map..HashMap$LT$char$C$alloc..string..String$GT$$GT$$GT$$GT$17hcbcbc3cb8cbfda6aE', symObjAddr: 0x469C, symBinAddr: 0x27248, symSize: 0x24 }
  - { offset: 0x681AD, size: 0x8, addend: 0x0, symName: '__ZN4core3ptr207drop_in_place$LT$alloc..vec..Vec$LT$char$GT$..extend_trusted$LT$core..iter..adapters..map..Map$LT$core..slice..iter..IterMut$LT$char$GT$$C$core..mem..take$LT$char$GT$$GT$$GT$..$u7b$$u7b$closure$u7d$$u7d$$GT$17hab4acb405096dbe7E', symObjAddr: 0x46C0, symBinAddr: 0x2726C, symSize: 0x24 }
  - { offset: 0x681DC, size: 0x8, addend: 0x0, symName: '__ZN4core3ptr211drop_in_place$LT$std..sync..poison..rwlock..RwLockReadGuard$LT$std..collections..hash..map..HashMap$LT$alloc..string..String$C$std..collections..hash..map..HashMap$LT$char$C$alloc..string..String$GT$$GT$$GT$$GT$17hfdc56469d96a7aa2E', symObjAddr: 0x4708, symBinAddr: 0x27290, symSize: 0x24 }
  - { offset: 0x6820B, size: 0x8, addend: 0x0, symName: '__ZN4core3ptr212drop_in_place$LT$std..sync..poison..rwlock..RwLockWriteGuard$LT$std..collections..hash..map..HashMap$LT$alloc..string..String$C$std..collections..hash..map..HashMap$LT$char$C$alloc..string..String$GT$$GT$$GT$$GT$17h9ece6e526345fbb3E', symObjAddr: 0x472C, symBinAddr: 0x272B4, symSize: 0x24 }
  - { offset: 0x6823A, size: 0x8, addend: 0x0, symName: '__ZN4core3ptr215drop_in_place$LT$core..iter..adapters..filter..Filter$LT$unicode_normalization..decompose..Decompositions$LT$core..str..iter..Chars$GT$$C$_translit..transliterate.._strip_accents..$u7b$$u7b$closure$u7d$$u7d$$GT$$GT$17h9c0580d31bcafd4eE', symObjAddr: 0x4750, symBinAddr: 0x272D8, symSize: 0x24 }
  - { offset: 0x68269, size: 0x8, addend: 0x0, symName: '__ZN4core3ptr216drop_in_place$LT$core..option..Option$LT$std..sync..poison..rwlock..RwLock$LT$std..collections..hash..map..HashMap$LT$alloc..string..String$C$std..collections..hash..map..HashMap$LT$char$C$$RF$str$GT$$GT$$GT$$GT$$GT$17hdfee37c1df2700b7E', symObjAddr: 0x4774, symBinAddr: 0x272FC, symSize: 0x40 }
  - { offset: 0x68298, size: 0x8, addend: 0x0, symName: '__ZN4core3ptr227drop_in_place$LT$alloc..vec..Vec$LT$u8$GT$..extend_trusted$LT$core..iter..adapters..map..Map$LT$core..slice..iter..Iter$LT$u8$GT$$C$alloc..str..replace_ascii..$u7b$$u7b$closure$u7d$$u7d$$GT$$GT$..$u7b$$u7b$closure$u7d$$u7d$$GT$17h84e5d6ab9dc22a57E', symObjAddr: 0x4820, symBinAddr: 0x2733C, symSize: 0x24 }
  - { offset: 0x682C7, size: 0x8, addend: 0x0, symName: '__ZN4core3ptr230drop_in_place$LT$core..option..Option$LT$std..sync..poison..rwlock..RwLock$LT$std..collections..hash..map..HashMap$LT$alloc..string..String$C$std..collections..hash..map..HashMap$LT$char$C$alloc..string..String$GT$$GT$$GT$$GT$$GT$17h8a592e6d10f81700E', symObjAddr: 0x4844, symBinAddr: 0x27360, symSize: 0x40 }
  - { offset: 0x682F6, size: 0x8, addend: 0x0, symName: '__ZN4core3ptr239drop_in_place$LT$$LT$pyo3..instance..Bound$LT$pyo3..types..any..PyAny$GT$$u20$as$u20$pyo3..types..any..PyAnyMethods$GT$..call_method$LT$$RF$str$C$pyo3..instance..Bound$LT$pyo3..types..tuple..PyTuple$GT$$GT$..$u7b$$u7b$closure$u7d$$u7d$$GT$17hf552a4e62e1afcedE', symObjAddr: 0x48F0, symBinAddr: 0x273A0, symSize: 0x24 }
  - { offset: 0x68325, size: 0x8, addend: 0x0, symName: '__ZN4core3ptr242drop_in_place$LT$alloc..vec..Vec$LT$u32$GT$..extend_trusted$LT$core..iter..adapters..map..Map$LT$core..slice..iter..Iter$LT$char$GT$$C$_translit..emoji..try_python_provider..$u7b$$u7b$closure$u7d$$u7d$$GT$$GT$..$u7b$$u7b$closure$u7d$$u7d$$GT$17h5831e92592186a56E', symObjAddr: 0x4914, symBinAddr: 0x273C4, symSize: 0x24 }
  - { offset: 0x68354, size: 0x8, addend: 0x0, symName: '__ZN4core3ptr243drop_in_place$LT$core..option..Option$LT$core..iter..adapters..filter..Filter$LT$unicode_normalization..decompose..Decompositions$LT$core..str..iter..Chars$GT$$C$_translit..transliterate.._strip_accents..$u7b$$u7b$closure$u7d$$u7d$$GT$$GT$$GT$17h358535adf9eb571bE', symObjAddr: 0x4938, symBinAddr: 0x273E8, symSize: 0x44 }
  - { offset: 0x68383, size: 0x8, addend: 0x0, symName: '__ZN4core3ptr246drop_in_place$LT$alloc..vec..Vec$LT$$LP$u8$C$char$RP$$GT$..extend_trusted$LT$core..iter..adapters..map..Map$LT$core..slice..iter..IterMut$LT$$LP$u8$C$char$RP$$GT$$C$core..mem..take$LT$$LP$u8$C$char$RP$$GT$$GT$$GT$..$u7b$$u7b$closure$u7d$$u7d$$GT$17h4c16ec4476206b65E', symObjAddr: 0x497C, symBinAddr: 0x2742C, symSize: 0x24 }
  - { offset: 0x683B2, size: 0x8, addend: 0x0, symName: '__ZN4core3ptr250drop_in_place$LT$core..iter..adapters..filter..Filter$LT$unicode_normalization..decompose..Decompositions$LT$core..str..iter..Chars$GT$$C$_translit..transliterate.._strip_accents_batch..$u7b$$u7b$closure$u7d$$u7d$..$u7b$$u7b$closure$u7d$$u7d$$GT$$GT$17h14b9def6caf541d9E', symObjAddr: 0x49C4, symBinAddr: 0x27450, symSize: 0x24 }
  - { offset: 0x683E1, size: 0x8, addend: 0x0, symName: '__ZN4core3ptr255drop_in_place$LT$alloc..vec..Vec$LT$alloc..string..String$GT$..extend_trusted$LT$core..iter..adapters..map..Map$LT$core..slice..iter..Iter$LT$$RF$str$GT$$C$_translit..tables..list_langs..$u7b$$u7b$closure$u7d$$u7d$$GT$$GT$..$u7b$$u7b$closure$u7d$$u7d$$GT$17h51dec99757c39199E', symObjAddr: 0x49E8, symBinAddr: 0x27474, symSize: 0x24 }
  - { offset: 0x68410, size: 0x8, addend: 0x0, symName: '__ZN4core3ptr255drop_in_place$LT$core..iter..adapters..fuse..Fuse$LT$core..iter..adapters..filter..Filter$LT$unicode_normalization..decompose..Decompositions$LT$core..str..iter..Chars$GT$$C$_translit..transliterate.._strip_accents..$u7b$$u7b$closure$u7d$$u7d$$GT$$GT$$GT$17hb35066f2f82322d6E', symObjAddr: 0x4A0C, symBinAddr: 0x27498, symSize: 0x24 }
  - { offset: 0x6843F, size: 0x8, addend: 0x0, symName: '__ZN4core3ptr257drop_in_place$LT$hashbrown..scopeguard..ScopeGuard$LT$$RF$mut$u20$hashbrown..raw..RawTable$LT$$LP$alloc..string..String$C$$LP$$RP$$RP$$GT$$C$hashbrown..raw..RawTable$LT$$LP$alloc..string..String$C$$LP$$RP$$RP$$GT$..clear..$u7b$$u7b$closure$u7d$$u7d$$GT$$GT$17h7f3fd1841baa5a4aE', symObjAddr: 0x4A30, symBinAddr: 0x274BC, symSize: 0x24 }
  - { offset: 0x6846E, size: 0x8, addend: 0x0, symName: '__ZN4core3ptr262drop_in_place$LT$core..iter..adapters..map..Map$LT$alloc..vec..into_iter..IntoIter$LT$$RF$str$GT$$C$$LT$$RF$str$u20$as$u20$pyo3..conversion..IntoPyObject$GT$..owned_sequence_into_pyobject$LT$alloc..vec..Vec$LT$$RF$str$GT$$GT$..$u7b$$u7b$closure$u7d$$u7d$$GT$$GT$17hfb50271a3c6ab8e1E', symObjAddr: 0x4A78, symBinAddr: 0x274E0, symSize: 0x24 }
  - { offset: 0x6849D, size: 0x8, addend: 0x0, symName: '__ZN4core3ptr271drop_in_place$LT$unicode_normalization..decompose..Decompositions$LT$core..iter..adapters..filter..Filter$LT$unicode_normalization..decompose..Decompositions$LT$core..str..iter..Chars$GT$$C$_translit..transliterate.._strip_accents..$u7b$$u7b$closure$u7d$$u7d$$GT$$GT$$GT$17hc6533205a9b1f628E', symObjAddr: 0x4A9C, symBinAddr: 0x27504, symSize: 0x5C }
  - { offset: 0x684CC, size: 0x8, addend: 0x0, symName: '__ZN4core3ptr271drop_in_place$LT$unicode_normalization..recompose..Recompositions$LT$core..iter..adapters..filter..Filter$LT$unicode_normalization..decompose..Decompositions$LT$core..str..iter..Chars$GT$$C$_translit..transliterate.._strip_accents..$u7b$$u7b$closure$u7d$$u7d$$GT$$GT$$GT$17hf2fc32e880d41726E', symObjAddr: 0x4AF8, symBinAddr: 0x27560, symSize: 0x64 }
  - { offset: 0x684FB, size: 0x8, addend: 0x0, symName: '__ZN4core3ptr274drop_in_place$LT$alloc..vec..Vec$LT$alloc..string..String$GT$..extend_trusted$LT$core..iter..adapters..map..Map$LT$core..slice..iter..Iter$LT$alloc..string..String$GT$$C$_translit..slugify.._slugify_batch..$u7b$$u7b$closure$u7d$$u7d$$GT$$GT$..$u7b$$u7b$closure$u7d$$u7d$$GT$17hd77bc36a8e2fb7deE', symObjAddr: 0x4B5C, symBinAddr: 0x275C4, symSize: 0x24 }
  - { offset: 0x6852A, size: 0x8, addend: 0x0, symName: '__ZN4core3ptr278drop_in_place$LT$alloc..vec..Vec$LT$alloc..string..String$GT$..extend_trusted$LT$core..iter..adapters..map..Map$LT$core..slice..iter..Iter$LT$alloc..string..String$GT$$C$_translit..normalize.._normalize_batch..$u7b$$u7b$closure$u7d$$u7d$$GT$$GT$..$u7b$$u7b$closure$u7d$$u7d$$GT$17h38d87ada079ddfcdE', symObjAddr: 0x4B80, symBinAddr: 0x275E8, symSize: 0x24 }
  - { offset: 0x68559, size: 0x8, addend: 0x0, symName: '__ZN4core3ptr278drop_in_place$LT$alloc..vec..Vec$LT$alloc..string..String$GT$..extend_trusted$LT$core..iter..adapters..map..Map$LT$core..slice..iter..Iter$LT$alloc..string..String$GT$$C$_translit..normalize.._normalize_batch..$u7b$$u7b$closure$u7d$$u7d$$GT$$GT$..$u7b$$u7b$closure$u7d$$u7d$$GT$17h5bba4898eb625564E', symObjAddr: 0x4BA4, symBinAddr: 0x2760C, symSize: 0x24 }
  - { offset: 0x68588, size: 0x8, addend: 0x0, symName: '__ZN4core3ptr278drop_in_place$LT$alloc..vec..Vec$LT$alloc..string..String$GT$..extend_trusted$LT$core..iter..adapters..map..Map$LT$core..slice..iter..Iter$LT$alloc..string..String$GT$$C$_translit..normalize.._normalize_batch..$u7b$$u7b$closure$u7d$$u7d$$GT$$GT$..$u7b$$u7b$closure$u7d$$u7d$$GT$17haaaa82cd51b10225E', symObjAddr: 0x4BC8, symBinAddr: 0x27630, symSize: 0x24 }
  - { offset: 0x685B7, size: 0x8, addend: 0x0, symName: '__ZN4core3ptr278drop_in_place$LT$alloc..vec..Vec$LT$alloc..string..String$GT$..extend_trusted$LT$core..iter..adapters..map..Map$LT$core..slice..iter..Iter$LT$alloc..string..String$GT$$C$_translit..normalize.._normalize_batch..$u7b$$u7b$closure$u7d$$u7d$$GT$$GT$..$u7b$$u7b$closure$u7d$$u7d$$GT$17hf01f55f08ff6457cE', symObjAddr: 0x4BEC, symBinAddr: 0x27654, symSize: 0x24 }
  - { offset: 0x685E6, size: 0x8, addend: 0x0, symName: '__ZN4core3ptr278drop_in_place$LT$core..option..Option$LT$core..iter..adapters..filter..Filter$LT$unicode_normalization..decompose..Decompositions$LT$core..str..iter..Chars$GT$$C$_translit..transliterate.._strip_accents_batch..$u7b$$u7b$closure$u7d$$u7d$..$u7b$$u7b$closure$u7d$$u7d$$GT$$GT$$GT$17hf2119883c14c5c21E', symObjAddr: 0x4C10, symBinAddr: 0x27678, symSize: 0x44 }
  - { offset: 0x68615, size: 0x8, addend: 0x0, symName: '__ZN4core3ptr280drop_in_place$LT$alloc..vec..Vec$LT$$RF$str$GT$..extend_trusted$LT$core..iter..adapters..map..Map$LT$core..slice..iter..Iter$LT$pyo3..pybacked..PyBackedStr$GT$$C$$LT$pyo3..pybacked..PyBackedStr$u20$as$u20$core..ops..deref..Deref$GT$..deref$GT$$GT$..$u7b$$u7b$closure$u7d$$u7d$$GT$17h22de743c7603d9d6E', symObjAddr: 0x4C54, symBinAddr: 0x276BC, symSize: 0x24 }
  - { offset: 0x68644, size: 0x8, addend: 0x0, symName: '__ZN4core3ptr280drop_in_place$LT$core..array..drain..Drain$LT$$LP$$RP$$C$4_usize$C$core..ops..try_trait..Wrapped$LT$char$C$$LP$$RP$$C$tinyvec..array..const_generic_impl..$LT$impl$u20$tinyvec..array..Array$u20$for$u20$$u5b$char$u3b$$u20$4$u5d$$GT$..default..$u7b$$u7b$closure$u7d$$u7d$$GT$$GT$$GT$17h20a03163182c6cf3E', symObjAddr: 0x4C78, symBinAddr: 0x276E0, symSize: 0x24 }
  - { offset: 0x68673, size: 0x8, addend: 0x0, symName: '__ZN4core3ptr283drop_in_place$LT$hashbrown..scopeguard..ScopeGuard$LT$$RF$mut$u20$hashbrown..raw..RawTable$LT$$LP$alloc..string..String$C$alloc..string..String$RP$$GT$$C$hashbrown..raw..RawTable$LT$$LP$alloc..string..String$C$alloc..string..String$RP$$GT$..clear..$u7b$$u7b$closure$u7d$$u7d$$GT$$GT$17h98be934d9ea287c0E', symObjAddr: 0x4C9C, symBinAddr: 0x27704, symSize: 0x24 }
  - { offset: 0x686A2, size: 0x8, addend: 0x0, symName: '__ZN4core3ptr286drop_in_place$LT$alloc..vec..Vec$LT$alloc..string..String$GT$..extend_trusted$LT$core..iter..adapters..map..Map$LT$alloc..vec..into_iter..IntoIter$LT$$RF$str$GT$$C$$LT$alloc..string..String$u20$as$u20$core..convert..From$LT$$RF$str$GT$$GT$..from$GT$$GT$..$u7b$$u7b$closure$u7d$$u7d$$GT$17hf917f34adb6439c9E', symObjAddr: 0x4CC0, symBinAddr: 0x27728, symSize: 0x24 }
  - { offset: 0x686D1, size: 0x8, addend: 0x0, symName: '__ZN4core3ptr286drop_in_place$LT$alloc..vec..Vec$LT$alloc..string..String$GT$..extend_trusted$LT$core..iter..adapters..map..Map$LT$core..slice..iter..Iter$LT$alloc..string..String$GT$$C$_translit..transliterate.._strip_accents_batch..$u7b$$u7b$closure$u7d$$u7d$$GT$$GT$..$u7b$$u7b$closure$u7d$$u7d$$GT$17h9315984b73205b19E', symObjAddr: 0x4CE4, symBinAddr: 0x2774C, symSize: 0x24 }
  - { offset: 0x68700, size: 0x8, addend: 0x0, symName: '__ZN4core3ptr286drop_in_place$LT$alloc..vec..Vec$LT$alloc..string..String$GT$..extend_trusted$LT$core..iter..adapters..map..Map$LT$core..slice..iter..Iter$LT$alloc..string..String$GT$$C$_translit..transliterate.._transliterate_batch..$u7b$$u7b$closure$u7d$$u7d$$GT$$GT$..$u7b$$u7b$closure$u7d$$u7d$$GT$17h05978d3ee50cdd38E', symObjAddr: 0x4D08, symBinAddr: 0x27770, symSize: 0x24 }
  - { offset: 0x6872F, size: 0x8, addend: 0x0, symName: '__ZN4core3ptr290drop_in_place$LT$core..iter..adapters..fuse..Fuse$LT$core..iter..adapters..filter..Filter$LT$unicode_normalization..decompose..Decompositions$LT$core..str..iter..Chars$GT$$C$_translit..transliterate.._strip_accents_batch..$u7b$$u7b$closure$u7d$$u7d$..$u7b$$u7b$closure$u7d$$u7d$$GT$$GT$$GT$17h3530a819b0968d9eE', symObjAddr: 0x4D2C, symBinAddr: 0x27794, symSize: 0x24 }
  - { offset: 0x6875E, size: 0x8, addend: 0x0, symName: '__ZN4core3ptr304drop_in_place$LT$core..iter..adapters..map..Map$LT$alloc..vec..into_iter..IntoIter$LT$alloc..string..String$GT$$C$$LT$alloc..string..String$u20$as$u20$pyo3..conversion..IntoPyObject$GT$..owned_sequence_into_pyobject$LT$alloc..vec..Vec$LT$alloc..string..String$GT$$GT$..$u7b$$u7b$closure$u7d$$u7d$$GT$$GT$17h539a4051f5c1a532E', symObjAddr: 0x4D50, symBinAddr: 0x277B8, symSize: 0x24 }
  - { offset: 0x6878D, size: 0x8, addend: 0x0, symName: '__ZN4core3ptr305drop_in_place$LT$core..iter..traits..iterator..Iterator..for_each..call$LT$char$C$alloc..vec..Vec$LT$char$GT$..extend_trusted$LT$core..iter..adapters..map..Map$LT$core..slice..iter..IterMut$LT$char$GT$$C$core..mem..take$LT$char$GT$$GT$$GT$..$u7b$$u7b$closure$u7d$$u7d$$GT$..$u7b$$u7b$closure$u7d$$u7d$$GT$17had097881e3c71c13E', symObjAddr: 0x4D74, symBinAddr: 0x277DC, symSize: 0x24 }
  - { offset: 0x687BC, size: 0x8, addend: 0x0, symName: '__ZN4core3ptr306drop_in_place$LT$core..array..drain..Drain$LT$$LP$$RP$$C$4_usize$C$core..ops..try_trait..Wrapped$LT$$LP$u8$C$char$RP$$C$$LP$$RP$$C$tinyvec..array..const_generic_impl..$LT$impl$u20$tinyvec..array..Array$u20$for$u20$$u5b$$LP$u8$C$char$RP$$u3b$$u20$4$u5d$$GT$..default..$u7b$$u7b$closure$u7d$$u7d$$GT$$GT$$GT$17hd1a6836014dc60d8E', symObjAddr: 0x4D98, symBinAddr: 0x27800, symSize: 0x24 }
  - { offset: 0x687EB, size: 0x8, addend: 0x0, symName: '__ZN4core3ptr306drop_in_place$LT$unicode_normalization..decompose..Decompositions$LT$core..iter..adapters..filter..Filter$LT$unicode_normalization..decompose..Decompositions$LT$core..str..iter..Chars$GT$$C$_translit..transliterate.._strip_accents_batch..$u7b$$u7b$closure$u7d$$u7d$..$u7b$$u7b$closure$u7d$$u7d$$GT$$GT$$GT$17ha7540978a54c5ab8E', symObjAddr: 0x4DBC, symBinAddr: 0x27824, symSize: 0x5C }
  - { offset: 0x6881A, size: 0x8, addend: 0x0, symName: '__ZN4core3ptr306drop_in_place$LT$unicode_normalization..recompose..Recompositions$LT$core..iter..adapters..filter..Filter$LT$unicode_normalization..decompose..Decompositions$LT$core..str..iter..Chars$GT$$C$_translit..transliterate.._strip_accents_batch..$u7b$$u7b$closure$u7d$$u7d$..$u7b$$u7b$closure$u7d$$u7d$$GT$$GT$$GT$17h4829bc5b03e67b48E', symObjAddr: 0x4E18, symBinAddr: 0x27880, symSize: 0x64 }
  - { offset: 0x68849, size: 0x8, addend: 0x0, symName: '__ZN4core3ptr323drop_in_place$LT$core..iter..traits..iterator..Iterator..for_each..call$LT$u8$C$alloc..vec..Vec$LT$u8$GT$..extend_trusted$LT$core..iter..adapters..map..Map$LT$core..slice..iter..Iter$LT$u8$GT$$C$alloc..str..replace_ascii..$u7b$$u7b$closure$u7d$$u7d$$GT$$GT$..$u7b$$u7b$closure$u7d$$u7d$$GT$..$u7b$$u7b$closure$u7d$$u7d$$GT$17h358be388da3aa783E', symObjAddr: 0x4E7C, symBinAddr: 0x278E4, symSize: 0x24 }
  - { offset: 0x68878, size: 0x8, addend: 0x0, symName: '__ZN4core3ptr339drop_in_place$LT$core..iter..traits..iterator..Iterator..for_each..call$LT$u32$C$alloc..vec..Vec$LT$u32$GT$..extend_trusted$LT$core..iter..adapters..map..Map$LT$core..slice..iter..Iter$LT$char$GT$$C$_translit..emoji..try_python_provider..$u7b$$u7b$closure$u7d$$u7d$$GT$$GT$..$u7b$$u7b$closure$u7d$$u7d$$GT$..$u7b$$u7b$closure$u7d$$u7d$$GT$17hbdfbff4a05fe460cE', symObjAddr: 0x4EA0, symBinAddr: 0x27908, symSize: 0x24 }
  - { offset: 0x688A7, size: 0x8, addend: 0x0, symName: '__ZN4core3ptr343drop_in_place$LT$core..result..Result$LT$std..sync..poison..mutex..MutexGuard$LT$alloc..vec..Vec$LT$alloc..boxed..Box$LT$regex_automata..meta..regex..Cache$GT$$GT$$GT$$C$std..sync..poison..TryLockError$LT$std..sync..poison..mutex..MutexGuard$LT$alloc..vec..Vec$LT$alloc..boxed..Box$LT$regex_automata..meta..regex..Cache$GT$$GT$$GT$$GT$$GT$$GT$17ha1e33e58a8b8fc11E', symObjAddr: 0x4EC4, symBinAddr: 0x2792C, symSize: 0x50 }
  - { offset: 0x688D6, size: 0x8, addend: 0x0, symName: '__ZN4core3ptr357drop_in_place$LT$core..iter..traits..iterator..Iterator..for_each..call$LT$$LP$u8$C$char$RP$$C$alloc..vec..Vec$LT$$LP$u8$C$char$RP$$GT$..extend_trusted$LT$core..iter..adapters..map..Map$LT$core..slice..iter..IterMut$LT$$LP$u8$C$char$RP$$GT$$C$core..mem..take$LT$$LP$u8$C$char$RP$$GT$$GT$$GT$..$u7b$$u7b$closure$u7d$$u7d$$GT$..$u7b$$u7b$closure$u7d$$u7d$$GT$17h7ceaebbcc95ba7c4E', symObjAddr: 0x4F14, symBinAddr: 0x2797C, symSize: 0x24 }
  - { offset: 0x68905, size: 0x8, addend: 0x0, symName: '__ZN4core3ptr366drop_in_place$LT$regex_automata..util..pool..PoolGuard$LT$regex_automata..meta..regex..Cache$C$alloc..boxed..Box$LT$dyn$u20$core..ops..function..Fn$LT$$LP$$RP$$GT$$u2b$Output$u20$$u3d$$u20$regex_automata..meta..regex..Cache$u2b$core..panic..unwind_safe..UnwindSafe$u2b$core..marker..Send$u2b$core..panic..unwind_safe..RefUnwindSafe$u2b$core..marker..Sync$GT$$GT$$GT$17h6b97aefcb12e07d5E', symObjAddr: 0x4F38, symBinAddr: 0x279A0, symSize: 0x24 }
  - { offset: 0x68934, size: 0x8, addend: 0x0, symName: '__ZN4core3ptr370drop_in_place$LT$core..iter..traits..iterator..Iterator..for_each..call$LT$alloc..string..String$C$alloc..vec..Vec$LT$alloc..string..String$GT$..extend_trusted$LT$core..iter..adapters..map..Map$LT$core..slice..iter..Iter$LT$$RF$str$GT$$C$_translit..tables..list_langs..$u7b$$u7b$closure$u7d$$u7d$$GT$$GT$..$u7b$$u7b$closure$u7d$$u7d$$GT$..$u7b$$u7b$closure$u7d$$u7d$$GT$17h0f721455d2270409E', symObjAddr: 0x4F5C, symBinAddr: 0x279C4, symSize: 0x24 }
  - { offset: 0x68963, size: 0x8, addend: 0x0, symName: '__ZN4core3ptr373drop_in_place$LT$regex_automata..util..pool..inner..PoolGuard$LT$regex_automata..meta..regex..Cache$C$alloc..boxed..Box$LT$dyn$u20$core..ops..function..Fn$LT$$LP$$RP$$GT$$u2b$Output$u20$$u3d$$u20$regex_automata..meta..regex..Cache$u2b$core..panic..unwind_safe..UnwindSafe$u2b$core..marker..Send$u2b$core..panic..unwind_safe..RefUnwindSafe$u2b$core..marker..Sync$GT$$GT$$GT$17haa21639c692556d4E', symObjAddr: 0x4F80, symBinAddr: 0x279E8, symSize: 0x5C }
  - { offset: 0x68992, size: 0x8, addend: 0x0, symName: '__ZN4core3ptr381drop_in_place$LT$core..iter..traits..iterator..Iterator..for_each..call$LT$$RF$str$C$alloc..vec..Vec$LT$$RF$str$GT$..extend_trusted$LT$core..iter..adapters..map..Map$LT$core..slice..iter..Iter$LT$pyo3..pybacked..PyBackedStr$GT$$C$$LT$pyo3..pybacked..PyBackedStr$u20$as$u20$core..ops..deref..Deref$GT$..deref$GT$$GT$..$u7b$$u7b$closure$u7d$$u7d$$GT$..$u7b$$u7b$closure$u7d$$u7d$$GT$17h8f808e7e54c06c90E', symObjAddr: 0x4FDC, symBinAddr: 0x27A44, symSize: 0x24 }
  - { offset: 0x689C1, size: 0x8, addend: 0x0, symName: '__ZN4core3ptr389drop_in_place$LT$core..iter..traits..iterator..Iterator..for_each..call$LT$alloc..string..String$C$alloc..vec..Vec$LT$alloc..string..String$GT$..extend_trusted$LT$core..iter..adapters..map..Map$LT$core..slice..iter..Iter$LT$alloc..string..String$GT$$C$_translit..slugify.._slugify_batch..$u7b$$u7b$closure$u7d$$u7d$$GT$$GT$..$u7b$$u7b$closure$u7d$$u7d$$GT$..$u7b$$u7b$closure$u7d$$u7d$$GT$17hae3a3d32098b6dcaE', symObjAddr: 0x5000, symBinAddr: 0x27A68, symSize: 0x24 }
  - { offset: 0x689F0, size: 0x8, addend: 0x0, symName: '__ZN4core3ptr393drop_in_place$LT$core..iter..traits..iterator..Iterator..for_each..call$LT$alloc..string..String$C$alloc..vec..Vec$LT$alloc..string..String$GT$..extend_trusted$LT$core..iter..adapters..map..Map$LT$core..slice..iter..Iter$LT$alloc..string..String$GT$$C$_translit..normalize.._normalize_batch..$u7b$$u7b$closure$u7d$$u7d$$GT$$GT$..$u7b$$u7b$closure$u7d$$u7d$$GT$..$u7b$$u7b$closure$u7d$$u7d$$GT$17h3f8f31b77385683dE', symObjAddr: 0x5024, symBinAddr: 0x27A8C, symSize: 0x24 }
  - { offset: 0x68A1F, size: 0x8, addend: 0x0, symName: '__ZN4core3ptr393drop_in_place$LT$core..iter..traits..iterator..Iterator..for_each..call$LT$alloc..string..String$C$alloc..vec..Vec$LT$alloc..string..String$GT$..extend_trusted$LT$core..iter..adapters..map..Map$LT$core..slice..iter..Iter$LT$alloc..string..String$GT$$C$_translit..normalize.._normalize_batch..$u7b$$u7b$closure$u7d$$u7d$$GT$$GT$..$u7b$$u7b$closure$u7d$$u7d$$GT$..$u7b$$u7b$closure$u7d$$u7d$$GT$17h4e094568cafd8da9E', symObjAddr: 0x5048, symBinAddr: 0x27AB0, symSize: 0x24 }
  - { offset: 0x68A4E, size: 0x8, addend: 0x0, symName: '__ZN4core3ptr393drop_in_place$LT$core..iter..traits..iterator..Iterator..for_each..call$LT$alloc..string..String$C$alloc..vec..Vec$LT$alloc..string..String$GT$..extend_trusted$LT$core..iter..adapters..map..Map$LT$core..slice..iter..Iter$LT$alloc..string..String$GT$$C$_translit..normalize.._normalize_batch..$u7b$$u7b$closure$u7d$$u7d$$GT$$GT$..$u7b$$u7b$closure$u7d$$u7d$$GT$..$u7b$$u7b$closure$u7d$$u7d$$GT$17h4ed9acbf7983518aE', symObjAddr: 0x506C, symBinAddr: 0x27AD4, symSize: 0x24 }
  - { offset: 0x68A7D, size: 0x8, addend: 0x0, symName: '__ZN4core3ptr393drop_in_place$LT$core..iter..traits..iterator..Iterator..for_each..call$LT$alloc..string..String$C$alloc..vec..Vec$LT$alloc..string..String$GT$..extend_trusted$LT$core..iter..adapters..map..Map$LT$core..slice..iter..Iter$LT$alloc..string..String$GT$$C$_translit..normalize.._normalize_batch..$u7b$$u7b$closure$u7d$$u7d$$GT$$GT$..$u7b$$u7b$closure$u7d$$u7d$$GT$..$u7b$$u7b$closure$u7d$$u7d$$GT$17ha52091dcacf8c22dE', symObjAddr: 0x5090, symBinAddr: 0x27AF8, symSize: 0x24 }
  - { offset: 0x68AAC, size: 0x8, addend: 0x0, symName: '__ZN4core3ptr401drop_in_place$LT$core..iter..traits..iterator..Iterator..for_each..call$LT$alloc..string..String$C$alloc..vec..Vec$LT$alloc..string..String$GT$..extend_trusted$LT$core..iter..adapters..map..Map$LT$alloc..vec..into_iter..IntoIter$LT$$RF$str$GT$$C$$LT$alloc..string..String$u20$as$u20$core..convert..From$LT$$RF$str$GT$$GT$..from$GT$$GT$..$u7b$$u7b$closure$u7d$$u7d$$GT$..$u7b$$u7b$closure$u7d$$u7d$$GT$17h02ecab87518ed1bdE', symObjAddr: 0x50B4, symBinAddr: 0x27B1C, symSize: 0x24 }
  - { offset: 0x68ADB, size: 0x8, addend: 0x0, symName: '__ZN4core3ptr401drop_in_place$LT$core..iter..traits..iterator..Iterator..for_each..call$LT$alloc..string..String$C$alloc..vec..Vec$LT$alloc..string..String$GT$..extend_trusted$LT$core..iter..adapters..map..Map$LT$core..slice..iter..Iter$LT$alloc..string..String$GT$$C$_translit..transliterate.._strip_accents_batch..$u7b$$u7b$closure$u7d$$u7d$$GT$$GT$..$u7b$$u7b$closure$u7d$$u7d$$GT$..$u7b$$u7b$closure$u7d$$u7d$$GT$17h1d504b4649c44193E', symObjAddr: 0x50D8, symBinAddr: 0x27B40, symSize: 0x24 }
  - { offset: 0x68B0A, size: 0x8, addend: 0x0, symName: '__ZN4core3ptr401drop_in_place$LT$core..iter..traits..iterator..Iterator..for_each..call$LT$alloc..string..String$C$alloc..vec..Vec$LT$alloc..string..String$GT$..extend_trusted$LT$core..iter..adapters..map..Map$LT$core..slice..iter..Iter$LT$alloc..string..String$GT$$C$_translit..transliterate.._transliterate_batch..$u7b$$u7b$closure$u7d$$u7d$$GT$$GT$..$u7b$$u7b$closure$u7d$$u7d$$GT$..$u7b$$u7b$closure$u7d$$u7d$$GT$17h9d071d86de12149eE', symObjAddr: 0x50FC, symBinAddr: 0x27B64, symSize: 0x24 }
  - { offset: 0x68B39, size: 0x8, addend: 0x0, symName: '__ZN4core3ptr444drop_in_place$LT$core..iter..adapters..map..map_fold$LT$$RF$mut$u20$char$C$char$C$$LP$$RP$$C$core..mem..take$LT$char$GT$$C$core..iter..traits..iterator..Iterator..for_each..call$LT$char$C$alloc..vec..Vec$LT$char$GT$..extend_trusted$LT$core..iter..adapters..map..Map$LT$core..slice..iter..IterMut$LT$char$GT$$C$core..mem..take$LT$char$GT$$GT$$GT$..$u7b$$u7b$closure$u7d$$u7d$$GT$..$u7b$$u7b$closure$u7d$$u7d$$GT$..$u7b$$u7b$closure$u7d$$u7d$$GT$17hed360e1b20549518E', symObjAddr: 0x5120, symBinAddr: 0x27B88, symSize: 0x24 }
  - { offset: 0x68B68, size: 0x8, addend: 0x0, symName: '__ZN4core3ptr477drop_in_place$LT$core..iter..adapters..map..map_fold$LT$$RF$u8$C$u8$C$$LP$$RP$$C$alloc..str..replace_ascii..$u7b$$u7b$closure$u7d$$u7d$$C$core..iter..traits..iterator..Iterator..for_each..call$LT$u8$C$alloc..vec..Vec$LT$u8$GT$..extend_trusted$LT$core..iter..adapters..map..Map$LT$core..slice..iter..Iter$LT$u8$GT$$C$alloc..str..replace_ascii..$u7b$$u7b$closure$u7d$$u7d$$GT$$GT$..$u7b$$u7b$closure$u7d$$u7d$$GT$..$u7b$$u7b$closure$u7d$$u7d$$GT$..$u7b$$u7b$closure$u7d$$u7d$$GT$17hc4d26962ea57df88E', symObjAddr: 0x5144, symBinAddr: 0x27BAC, symSize: 0x24 }
  - { offset: 0x68B97, size: 0x8, addend: 0x0, symName: '__ZN4core3ptr48drop_in_place$LT$regex..regex..string..Regex$GT$17h803a25a1bb1d443bE', symObjAddr: 0x5168, symBinAddr: 0x27BD0, symSize: 0x60 }
  - { offset: 0x68BC6, size: 0x8, addend: 0x0, symName: '__ZN4core3ptr508drop_in_place$LT$core..iter..adapters..map..map_fold$LT$$RF$char$C$u32$C$$LP$$RP$$C$_translit..emoji..try_python_provider..$u7b$$u7b$closure$u7d$$u7d$$C$core..iter..traits..iterator..Iterator..for_each..call$LT$u32$C$alloc..vec..Vec$LT$u32$GT$..extend_trusted$LT$core..iter..adapters..map..Map$LT$core..slice..iter..Iter$LT$char$GT$$C$_translit..emoji..try_python_provider..$u7b$$u7b$closure$u7d$$u7d$$GT$$GT$..$u7b$$u7b$closure$u7d$$u7d$$GT$..$u7b$$u7b$closure$u7d$$u7d$$GT$..$u7b$$u7b$closure$u7d$$u7d$$GT$17hd004c14b73829268E', symObjAddr: 0x51C8, symBinAddr: 0x27C30, symSize: 0x24 }
  - { offset: 0x68BF5, size: 0x8, addend: 0x0, symName: '__ZN4core3ptr50drop_in_place$LT$regex..regex..string..Matches$GT$17hea2a933ad5261c00E', symObjAddr: 0x51EC, symBinAddr: 0x27C54, symSize: 0x24 }
  - { offset: 0x68C24, size: 0x8, addend: 0x0, symName: '__ZN4core3ptr51drop_in_place$LT$_translit..slugify..SlugConfig$GT$17ha9837049bb7f4553E', symObjAddr: 0x5210, symBinAddr: 0x27C78, symSize: 0xF0 }
  - { offset: 0x68C53, size: 0x8, addend: 0x0, symName: '__ZN4core3ptr51drop_in_place$LT$_translit..slugify.._Slugifier$GT$17h99f2f06bb762830cE', symObjAddr: 0x5300, symBinAddr: 0x27D68, symSize: 0x24 }
  - { offset: 0x68C82, size: 0x8, addend: 0x0, symName: '__ZN4core3ptr51drop_in_place$LT$core..array..Guard$LT$char$GT$$GT$17h570aab6f3566fa2fE', symObjAddr: 0x5324, symBinAddr: 0x27D8C, symSize: 0x24 }
  - { offset: 0x68CB1, size: 0x8, addend: 0x0, symName: '__ZN4core3ptr51drop_in_place$LT$regex..regex..string..Captures$GT$17h5e7c2f87442e5efaE', symObjAddr: 0x5348, symBinAddr: 0x27DB0, symSize: 0x24 }
  - { offset: 0x68CE0, size: 0x8, addend: 0x0, symName: '__ZN4core3ptr535drop_in_place$LT$core..iter..adapters..map..map_fold$LT$$RF$mut$u20$$LP$u8$C$char$RP$$C$$LP$u8$C$char$RP$$C$$LP$$RP$$C$core..mem..take$LT$$LP$u8$C$char$RP$$GT$$C$core..iter..traits..iterator..Iterator..for_each..call$LT$$LP$u8$C$char$RP$$C$alloc..vec..Vec$LT$$LP$u8$C$char$RP$$GT$..extend_trusted$LT$core..iter..adapters..map..Map$LT$core..slice..iter..IterMut$LT$$LP$u8$C$char$RP$$GT$$C$core..mem..take$LT$$LP$u8$C$char$RP$$GT$$GT$$GT$..$u7b$$u7b$closure$u7d$$u7d$$GT$..$u7b$$u7b$closure$u7d$$u7d$$GT$..$u7b$$u7b$closure$u7d$$u7d$$GT$17hfd331fcea60ef458E', symObjAddr: 0x536C, symBinAddr: 0x27DD4, symSize: 0x24 }
  - { offset: 0x68D0F, size: 0x8, addend: 0x0, symName: '__ZN4core3ptr552drop_in_place$LT$core..iter..adapters..map..map_fold$LT$$RF$$RF$str$C$alloc..string..String$C$$LP$$RP$$C$_translit..tables..list_langs..$u7b$$u7b$closure$u7d$$u7d$$C$core..iter..traits..iterator..Iterator..for_each..call$LT$alloc..string..String$C$alloc..vec..Vec$LT$alloc..string..String$GT$..extend_trusted$LT$core..iter..adapters..map..Map$LT$core..slice..iter..Iter$LT$$RF$str$GT$$C$_translit..tables..list_langs..$u7b$$u7b$closure$u7d$$u7d$$GT$$GT$..$u7b$$u7b$closure$u7d$$u7d$$GT$..$u7b$$u7b$closure$u7d$$u7d$$GT$..$u7b$$u7b$closure$u7d$$u7d$$GT$17h91d62ef0e8a8b4bcE', symObjAddr: 0x53B4, symBinAddr: 0x27DF8, symSize: 0x24 }
  - { offset: 0x68D3E, size: 0x8, addend: 0x0, symName: '__ZN4core3ptr55drop_in_place$LT$_translit..pipeline.._TextPipeline$GT$17h77a0863582bdf5a9E', symObjAddr: 0x53D8, symBinAddr: 0x27E1C, symSize: 0x60 }
  - { offset: 0x68D6D, size: 0x8, addend: 0x0, symName: '__ZN4core3ptr55drop_in_place$LT$regex_automata..meta..regex..Regex$GT$17he33be8c075b9173bE', symObjAddr: 0x5438, symBinAddr: 0x27E7C, symSize: 0x60 }
  - { offset: 0x68D9C, size: 0x8, addend: 0x0, symName: '__ZN4core3ptr56drop_in_place$LT$$LP$alloc..string..String$C$f64$RP$$GT$17hd9f8e646bde1c564E', symObjAddr: 0x5498, symBinAddr: 0x27EDC, symSize: 0x24 }
  - { offset: 0x68DCB, size: 0x8, addend: 0x0, symName: '__ZN4core3ptr57drop_in_place$LT$$LP$alloc..string..String$C$bool$RP$$GT$17h4dbc4db7890c419bE', symObjAddr: 0x54BC, symBinAddr: 0x27F00, symSize: 0x24 }
  - { offset: 0x68DFA, size: 0x8, addend: 0x0, symName: '__ZN4core3ptr57drop_in_place$LT$$LP$char$C$alloc..string..String$RP$$GT$17h739999bf27d27661E', symObjAddr: 0x54E0, symBinAddr: 0x27F24, symSize: 0x24 }
  - { offset: 0x68E29, size: 0x8, addend: 0x0, symName: '__ZN4core3ptr57drop_in_place$LT$_translit..slugify.._UniqueSlugifier$GT$17h3af4516b9b015e9cE', symObjAddr: 0x5504, symBinAddr: 0x27F48, symSize: 0x90 }
  - { offset: 0x68E58, size: 0x8, addend: 0x0, symName: '__ZN4core3ptr57drop_in_place$LT$pyo3..types..dict..BoundDictIterator$GT$17h68e22d3fbc39e29fE', symObjAddr: 0x5594, symBinAddr: 0x27FD8, symSize: 0x24 }
  - { offset: 0x68E87, size: 0x8, addend: 0x0, symName: '__ZN4core3ptr57drop_in_place$LT$regex..regex..string..CaptureMatches$GT$17h2668c9d902a9ddeeE', symObjAddr: 0x55B8, symBinAddr: 0x27FFC, symSize: 0x24 }
  - { offset: 0x68EB6, size: 0x8, addend: 0x0, symName: '__ZN4core3ptr588drop_in_place$LT$core..iter..adapters..map..map_fold$LT$$RF$pyo3..pybacked..PyBackedStr$C$$RF$str$C$$LP$$RP$$C$$LT$pyo3..pybacked..PyBackedStr$u20$as$u20$core..ops..deref..Deref$GT$..deref$C$core..iter..traits..iterator..Iterator..for_each..call$LT$$RF$str$C$alloc..vec..Vec$LT$$RF$str$GT$..extend_trusted$LT$core..iter..adapters..map..Map$LT$core..slice..iter..Iter$LT$pyo3..pybacked..PyBackedStr$GT$$C$$LT$pyo3..pybacked..PyBackedStr$u20$as$u20$core..ops..deref..Deref$GT$..deref$GT$$GT$..$u7b$$u7b$closure$u7d$$u7d$$GT$..$u7b$$u7b$closure$u7d$$u7d$$GT$..$u7b$$u7b$closure$u7d$$u7d$$GT$17ha1f66634829bd6a0E', symObjAddr: 0x55DC, symBinAddr: 0x28020, symSize: 0x24 }
  - { offset: 0x68EE5, size: 0x8, addend: 0x0, symName: '__ZN4core3ptr58drop_in_place$LT$$u5b$pyo3..pybacked..PyBackedStr$u5d$$GT$17h134655da4eb9db9aE', symObjAddr: 0x5600, symBinAddr: 0x28044, symSize: 0xC4 }
  - { offset: 0x68F14, size: 0x8, addend: 0x0, symName: '__ZN4core3ptr590drop_in_place$LT$core..iter..adapters..map..map_fold$LT$$RF$alloc..string..String$C$alloc..string..String$C$$LP$$RP$$C$_translit..slugify.._slugify_batch..$u7b$$u7b$closure$u7d$$u7d$$C$core..iter..traits..iterator..Iterator..for_each..call$LT$alloc..string..String$C$alloc..vec..Vec$LT$alloc..string..String$GT$..extend_trusted$LT$core..iter..adapters..map..Map$LT$core..slice..iter..Iter$LT$alloc..string..String$GT$$C$_translit..slugify.._slugify_batch..$u7b$$u7b$closure$u7d$$u7d$$GT$$GT$..$u7b$$u7b$closure$u7d$$u7d$$GT$..$u7b$$u7b$closure$u7d$$u7d$$GT$..$u7b$$u7b$closure$u7d$$u7d$$GT$17he6074563c673c359E', symObjAddr: 0x56C4, symBinAddr: 0x28108, symSize: 0x24 }
  - { offset: 0x68F43, size: 0x8, addend: 0x0, symName: '__ZN4core3ptr598drop_in_place$LT$core..iter..adapters..map..map_fold$LT$$RF$alloc..string..String$C$alloc..string..String$C$$LP$$RP$$C$_translit..normalize.._normalize_batch..$u7b$$u7b$closure$u7d$$u7d$$C$core..iter..traits..iterator..Iterator..for_each..call$LT$alloc..string..String$C$alloc..vec..Vec$LT$alloc..string..String$GT$..extend_trusted$LT$core..iter..adapters..map..Map$LT$core..slice..iter..Iter$LT$alloc..string..String$GT$$C$_translit..normalize.._normalize_batch..$u7b$$u7b$closure$u7d$$u7d$$GT$$GT$..$u7b$$u7b$closure$u7d$$u7d$$GT$..$u7b$$u7b$closure$u7d$$u7d$$GT$..$u7b$$u7b$closure$u7d$$u7d$$GT$17h037dfb995759e817E', symObjAddr: 0x56E8, symBinAddr: 0x2812C, symSize: 0x24 }
  - { offset: 0x68F72, size: 0x8, addend: 0x0, symName: '__ZN4core3ptr598drop_in_place$LT$core..iter..adapters..map..map_fold$LT$$RF$alloc..string..String$C$alloc..string..String$C$$LP$$RP$$C$_translit..normalize.._normalize_batch..$u7b$$u7b$closure$u7d$$u7d$$C$core..iter..traits..iterator..Iterator..for_each..call$LT$alloc..string..String$C$alloc..vec..Vec$LT$alloc..string..String$GT$..extend_trusted$LT$core..iter..adapters..map..Map$LT$core..slice..iter..Iter$LT$alloc..string..String$GT$$C$_translit..normalize.._normalize_batch..$u7b$$u7b$closure$u7d$$u7d$$GT$$GT$..$u7b$$u7b$closure$u7d$$u7d$$GT$..$u7b$$u7b$closure$u7d$$u7d$$GT$..$u7b$$u7b$closure$u7d$$u7d$$GT$17h4d68fe82c6fac72dE', symObjAddr: 0x570C, symBinAddr: 0x28150, symSize: 0x24 }
  - { offset: 0x68FA1, size: 0x8, addend: 0x0, symName: '__ZN4core3ptr598drop_in_place$LT$core..iter..adapters..map..map_fold$LT$$RF$alloc..string..String$C$alloc..string..String$C$$LP$$RP$$C$_translit..normalize.._normalize_batch..$u7b$$u7b$closure$u7d$$u7d$$C$core..iter..traits..iterator..Iterator..for_each..call$LT$alloc..string..String$C$alloc..vec..Vec$LT$alloc..string..String$GT$..extend_trusted$LT$core..iter..adapters..map..Map$LT$core..slice..iter..Iter$LT$alloc..string..String$GT$$C$_translit..normalize.._normalize_batch..$u7b$$u7b$closure$u7d$$u7d$$GT$$GT$..$u7b$$u7b$closure$u7d$$u7d$$GT$..$u7b$$u7b$closure$u7d$$u7d$$GT$..$u7b$$u7b$closure$u7d$$u7d$$GT$17h4eaf65387d4b1b5cE', symObjAddr: 0x5730, symBinAddr: 0x28174, symSize: 0x24 }
  - { offset: 0x68FD0, size: 0x8, addend: 0x0, symName: '__ZN4core3ptr598drop_in_place$LT$core..iter..adapters..map..map_fold$LT$$RF$alloc..string..String$C$alloc..string..String$C$$LP$$RP$$C$_translit..normalize.._normalize_batch..$u7b$$u7b$closure$u7d$$u7d$$C$core..iter..traits..iterator..Iterator..for_each..call$LT$alloc..string..String$C$alloc..vec..Vec$LT$alloc..string..String$GT$..extend_trusted$LT$core..iter..adapters..map..Map$LT$core..slice..iter..Iter$LT$alloc..string..String$GT$$C$_translit..normalize.._normalize_batch..$u7b$$u7b$closure$u7d$$u7d$$GT$$GT$..$u7b$$u7b$closure$u7d$$u7d$$GT$..$u7b$$u7b$closure$u7d$$u7d$$GT$..$u7b$$u7b$closure$u7d$$u7d$$GT$17he6acbadf82797d9dE', symObjAddr: 0x5754, symBinAddr: 0x28198, symSize: 0x24 }
  - { offset: 0x68FFF, size: 0x8, addend: 0x0, symName: '__ZN4core3ptr602drop_in_place$LT$core..iter..adapters..map..map_fold$LT$$RF$str$C$alloc..string..String$C$$LP$$RP$$C$$LT$alloc..string..String$u20$as$u20$core..convert..From$LT$$RF$str$GT$$GT$..from$C$core..iter..traits..iterator..Iterator..for_each..call$LT$alloc..string..String$C$alloc..vec..Vec$LT$alloc..string..String$GT$..extend_trusted$LT$core..iter..adapters..map..Map$LT$alloc..vec..into_iter..IntoIter$LT$$RF$str$GT$$C$$LT$alloc..string..String$u20$as$u20$core..convert..From$LT$$RF$str$GT$$GT$..from$GT$$GT$..$u7b$$u7b$closure$u7d$$u7d$$GT$..$u7b$$u7b$closure$u7d$$u7d$$GT$..$u7b$$u7b$closure$u7d$$u7d$$GT$17h2034633929ee8375E', symObjAddr: 0x5778, symBinAddr: 0x281BC, symSize: 0x24 }
  - { offset: 0x6902E, size: 0x8, addend: 0x0, symName: '__ZN4core3ptr614drop_in_place$LT$core..iter..adapters..map..map_fold$LT$$RF$alloc..string..String$C$alloc..string..String$C$$LP$$RP$$C$_translit..transliterate.._strip_accents_batch..$u7b$$u7b$closure$u7d$$u7d$$C$core..iter..traits..iterator..Iterator..for_each..call$LT$alloc..string..String$C$alloc..vec..Vec$LT$alloc..string..String$GT$..extend_trusted$LT$core..iter..adapters..map..Map$LT$core..slice..iter..Iter$LT$alloc..string..String$GT$$C$_translit..transliterate.._strip_accents_batch..$u7b$$u7b$closure$u7d$$u7d$$GT$$GT$..$u7b$$u7b$closure$u7d$$u7d$$GT$..$u7b$$u7b$closure$u7d$$u7d$$GT$..$u7b$$u7b$closure$u7d$$u7d$$GT$17ha53c53488ee18f27E', symObjAddr: 0x57C0, symBinAddr: 0x281E0, symSize: 0x24 }
  - { offset: 0x6905D, size: 0x8, addend: 0x0, symName: '__ZN4core3ptr614drop_in_place$LT$core..iter..adapters..map..map_fold$LT$$RF$alloc..string..String$C$alloc..string..String$C$$LP$$RP$$C$_translit..transliterate.._transliterate_batch..$u7b$$u7b$closure$u7d$$u7d$$C$core..iter..traits..iterator..Iterator..for_each..call$LT$alloc..string..String$C$alloc..vec..Vec$LT$alloc..string..String$GT$..extend_trusted$LT$core..iter..adapters..map..Map$LT$core..slice..iter..Iter$LT$alloc..string..String$GT$$C$_translit..transliterate.._transliterate_batch..$u7b$$u7b$closure$u7d$$u7d$$GT$$GT$..$u7b$$u7b$closure$u7d$$u7d$$GT$..$u7b$$u7b$closure$u7d$$u7d$$GT$..$u7b$$u7b$closure$u7d$$u7d$$GT$17hfa45ed591e1eedeeE', symObjAddr: 0x57E4, symBinAddr: 0x28204, symSize: 0x24 }
  - { offset: 0x6908C, size: 0x8, addend: 0x0, symName: '__ZN4core3ptr61drop_in_place$LT$$LP$alloc..string..String$C$$LP$$RP$$RP$$GT$17hda5d368942ec820cE', symObjAddr: 0x5808, symBinAddr: 0x28228, symSize: 0x24 }
  - { offset: 0x690BB, size: 0x8, addend: 0x0, symName: '__ZN4core3ptr61drop_in_place$LT$_translit..hostname..SafeHostnameDetails$GT$17h0130e63e04808771E', symObjAddr: 0x582C, symBinAddr: 0x2824C, symSize: 0x60 }
  - { offset: 0x690EA, size: 0x8, addend: 0x0, symName: '__ZN4core3ptr61drop_in_place$LT$alloc..vec..Vec$LT$$LP$u8$C$char$RP$$GT$$GT$17hcf3d77946f024d92E', symObjAddr: 0x588C, symBinAddr: 0x282AC, symSize: 0x5C }
  - { offset: 0x69119, size: 0x8, addend: 0x0, symName: '__ZN4core3ptr61drop_in_place$LT$regex_automata..meta..regex..FindMatches$GT$17h3dd3f277cf4ba3b7E', symObjAddr: 0x58E8, symBinAddr: 0x28308, symSize: 0x24 }
  - { offset: 0x69148, size: 0x8, addend: 0x0, symName: '__ZN4core3ptr64drop_in_place$LT$core..array..Guard$LT$$LP$u8$C$char$RP$$GT$$GT$17h51cd0856be1c0578E', symObjAddr: 0x590C, symBinAddr: 0x2832C, symSize: 0x24 }
  - { offset: 0x69177, size: 0x8, addend: 0x0, symName: '__ZN4core3ptr65drop_in_place$LT$regex_automata..meta..regex..CapturesMatches$GT$17h3b193954e8ccaa2cE', symObjAddr: 0x5930, symBinAddr: 0x28350, symSize: 0x60 }
  - { offset: 0x691A6, size: 0x8, addend: 0x0, symName: '__ZN4core3ptr67drop_in_place$LT$$LP$usize$C$regex..regex..string..Captures$RP$$GT$17hd350ef76d51e441eE', symObjAddr: 0x5990, symBinAddr: 0x283B0, symSize: 0x24 }
  - { offset: 0x691D5, size: 0x8, addend: 0x0, symName: '__ZN4core3ptr67drop_in_place$LT$alloc..vec..into_iter..IntoIter$LT$$RF$str$GT$$GT$17h97789532bf87c7afE', symObjAddr: 0x59B4, symBinAddr: 0x283D4, symSize: 0x24 }
  - { offset: 0x69204, size: 0x8, addend: 0x0, symName: '__ZN4core3ptr68drop_in_place$LT$alloc..raw_vec..RawVec$LT$$LP$u8$C$char$RP$$GT$$GT$17he59a4feb349954aaE', symObjAddr: 0x59D8, symBinAddr: 0x283F8, symSize: 0x24 }
  - { offset: 0x69233, size: 0x8, addend: 0x0, symName: '__ZN4core3ptr69drop_in_place$LT$alloc..borrow..Cow$LT$core..ffi..c_str..CStr$GT$$GT$17h20e18b3a981e87f0E', symObjAddr: 0x59FC, symBinAddr: 0x2841C, symSize: 0x40 }
  - { offset: 0x69262, size: 0x8, addend: 0x0, symName: '__ZN4core3ptr70drop_in_place$LT$core..option..Option$LT$alloc..string..String$GT$$GT$17h19bf2fc4f9afe5fdE', symObjAddr: 0x5A98, symBinAddr: 0x2845C, symSize: 0x48 }
  - { offset: 0x69291, size: 0x8, addend: 0x0, symName: '__ZN4core3ptr71drop_in_place$LT$alloc..vec..Vec$LT$pyo3..pybacked..PyBackedStr$GT$$GT$17hf040364896b6fc83E', symObjAddr: 0x5AE0, symBinAddr: 0x284A4, symSize: 0x5C }
  - { offset: 0x692C0, size: 0x8, addend: 0x0, symName: '__ZN4core3ptr72drop_in_place$LT$core..result..Result$LT$bool$C$pyo3..err..PyErr$GT$$GT$17h2694bae0d101d3cdE', symObjAddr: 0x5B3C, symBinAddr: 0x28500, symSize: 0x40 }
  - { offset: 0x692EF, size: 0x8, addend: 0x0, symName: '__ZN4core3ptr72drop_in_place$LT$std..collections..hash..set..HashSet$LT$$RF$str$GT$$GT$17hcc7c6c1641823584E', symObjAddr: 0x5B7C, symBinAddr: 0x28540, symSize: 0x24 }
  - { offset: 0x6931E, size: 0x8, addend: 0x0, symName: '__ZN4core3ptr73drop_in_place$LT$core..result..Result$LT$usize$C$pyo3..err..PyErr$GT$$GT$17hf117a5ea41b78c77E', symObjAddr: 0x5BA0, symBinAddr: 0x28564, symSize: 0x40 }
  - { offset: 0x6934D, size: 0x8, addend: 0x0, symName: '__ZN4core3ptr74drop_in_place$LT$$LP$alloc..string..String$C$alloc..string..String$RP$$GT$17ha6f4c8b2fc301e13E', symObjAddr: 0x5BE0, symBinAddr: 0x285A4, symSize: 0x60 }
  - { offset: 0x6937C, size: 0x8, addend: 0x0, symName: '__ZN4core3ptr75drop_in_place$LT$hashbrown..raw..RawTable$LT$$LP$char$C$$RF$str$RP$$GT$$GT$17h9270346b2fea6418E', symObjAddr: 0x5C40, symBinAddr: 0x28604, symSize: 0x24 }
  - { offset: 0x693AB, size: 0x8, addend: 0x0, symName: '__ZN4core3ptr76drop_in_place$LT$$LP$bool$C$_translit..hostname..SafeHostnameDetails$RP$$GT$17hcd068d5eea02198cE', symObjAddr: 0x5C64, symBinAddr: 0x28628, symSize: 0x24 }
  - { offset: 0x693DA, size: 0x8, addend: 0x0, symName: '__ZN4core3ptr76drop_in_place$LT$core..option..Option$LT$regex..regex..string..Regex$GT$$GT$17hcc0da5fa64f07a39E', symObjAddr: 0x5CAC, symBinAddr: 0x2864C, symSize: 0x44 }
  - { offset: 0x69409, size: 0x8, addend: 0x0, symName: '__ZN4core3ptr77drop_in_place$LT$pyo3..instance..Py$LT$_translit..slugify.._Slugifier$GT$$GT$17h23376ef7a6a15b3fE', symObjAddr: 0x5CF0, symBinAddr: 0x28690, symSize: 0x2C }
  - { offset: 0x69438, size: 0x8, addend: 0x0, symName: '__ZN4core3ptr78drop_in_place$LT$alloc..raw_vec..RawVec$LT$pyo3..pybacked..PyBackedStr$GT$$GT$17h4289385439a3afdaE', symObjAddr: 0x5D1C, symBinAddr: 0x286BC, symSize: 0x24 }
  - { offset: 0x69467, size: 0x8, addend: 0x0, symName: '__ZN4core3ptr78drop_in_place$LT$core..option..Option$LT$alloc..borrow..Cow$LT$str$GT$$GT$$GT$17h21777969e266a0dbE', symObjAddr: 0x5D40, symBinAddr: 0x286E0, symSize: 0x48 }
  - { offset: 0x69496, size: 0x8, addend: 0x0, symName: '__ZN4core3ptr78drop_in_place$LT$pyo3..pycell..PyRef$LT$_translit..slugify.._Slugifier$GT$$GT$17h0732e7b29087533bE', symObjAddr: 0x5D88, symBinAddr: 0x28728, symSize: 0x5C }
  - { offset: 0x694C5, size: 0x8, addend: 0x0, symName: '__ZN4core3ptr79drop_in_place$LT$hashbrown..raw..RawTable$LT$$LP$$RF$str$C$$LP$$RP$$RP$$GT$$GT$17ha6119be880264c44E', symObjAddr: 0x5DE4, symBinAddr: 0x28784, symSize: 0x24 }
  - { offset: 0x694F4, size: 0x8, addend: 0x0, symName: '__ZN4core3ptr79drop_in_place$LT$std..collections..hash..map..HashMap$LT$char$C$$RF$str$GT$$GT$17hdfd403e7c285821dE', symObjAddr: 0x5E08, symBinAddr: 0x287A8, symSize: 0x24 }
  - { offset: 0x69523, size: 0x8, addend: 0x0, symName: '__ZN4core3ptr79drop_in_place$LT$tinyvec..tinyvec..TinyVec$LT$$u5b$char$u3b$$u20$4$u5d$$GT$$GT$17h82ad525bd0177f49E', symObjAddr: 0x5E2C, symBinAddr: 0x287CC, symSize: 0x40 }
  - { offset: 0x69552, size: 0x8, addend: 0x0, symName: '__ZN4core3ptr80drop_in_place$LT$pyo3..instance..Bound$LT$_translit..slugify.._Slugifier$GT$$GT$17h7ab1513f606715d2E', symObjAddr: 0x5EFC, symBinAddr: 0x2880C, symSize: 0x24 }
  - { offset: 0x69581, size: 0x8, addend: 0x0, symName: '__ZN4core3ptr81drop_in_place$LT$alloc..vec..into_iter..IntoIter$LT$alloc..string..String$GT$$GT$17hb86e3cd715493e3eE', symObjAddr: 0x5F20, symBinAddr: 0x28830, symSize: 0x24 }
  - { offset: 0x695B0, size: 0x8, addend: 0x0, symName: '__ZN4core3ptr81drop_in_place$LT$core..cell..UnsafeCell$LT$_translit..slugify.._Slugifier$GT$$GT$17h7329a18f61cf0e9eE', symObjAddr: 0x5F44, symBinAddr: 0x28854, symSize: 0x24 }
  - { offset: 0x695DF, size: 0x8, addend: 0x0, symName: '__ZN4core3ptr81drop_in_place$LT$pyo3..instance..Py$LT$_translit..pipeline.._TextPipeline$GT$$GT$17hc39ca17b294e487eE', symObjAddr: 0x5F68, symBinAddr: 0x28878, symSize: 0x2C }
  - { offset: 0x6960E, size: 0x8, addend: 0x0, symName: '__ZN4core3ptr82drop_in_place$LT$pyo3..pycell..PyRef$LT$_translit..pipeline.._TextPipeline$GT$$GT$17h0601c45a73ab68c9E', symObjAddr: 0x5F94, symBinAddr: 0x288A4, symSize: 0x5C }
  - { offset: 0x6963D, size: 0x8, addend: 0x0, symName: '__ZN4core3ptr83drop_in_place$LT$pyo3..instance..Py$LT$_translit..slugify.._UniqueSlugifier$GT$$GT$17h14920fbae6479661E', symObjAddr: 0x5FF0, symBinAddr: 0x28900, symSize: 0x2C }
  - { offset: 0x6966C, size: 0x8, addend: 0x0, symName: '__ZN4core3ptr84drop_in_place$LT$$u5b$$LP$alloc..string..String$C$alloc..string..String$RP$$u5d$$GT$17h84e6c88e9cd17c5eE', symObjAddr: 0x601C, symBinAddr: 0x2892C, symSize: 0xC4 }
  - { offset: 0x6969B, size: 0x8, addend: 0x0, symName: '__ZN4core3ptr84drop_in_place$LT$pyo3..instance..Bound$LT$_translit..pipeline.._TextPipeline$GT$$GT$17he15badbc3419045fE', symObjAddr: 0x60E0, symBinAddr: 0x289F0, symSize: 0x24 }
  - { offset: 0x696CA, size: 0x8, addend: 0x0, symName: '__ZN4core3ptr85drop_in_place$LT$core..cell..UnsafeCell$LT$_translit..pipeline.._TextPipeline$GT$$GT$17hd7edb280f60a5f2cE', symObjAddr: 0x6104, symBinAddr: 0x28A14, symSize: 0x24 }
  - { offset: 0x696F9, size: 0x8, addend: 0x0, symName: '__ZN4core3ptr86drop_in_place$LT$$LP$pyo3..instance..Bound$LT$pyo3..types..list..PyList$GT$$C$$RP$$GT$17h6430c507136cda8eE', symObjAddr: 0x6128, symBinAddr: 0x28A38, symSize: 0x24 }
  - { offset: 0x69728, size: 0x8, addend: 0x0, symName: '__ZN4core3ptr86drop_in_place$LT$pyo3..instance..Bound$LT$_translit..slugify.._UniqueSlugifier$GT$$GT$17hbd4522298684fcd8E', symObjAddr: 0x614C, symBinAddr: 0x28A5C, symSize: 0x24 }
  - { offset: 0x69757, size: 0x8, addend: 0x0, symName: '__ZN4core3ptr86drop_in_place$LT$std..collections..hash..set..HashSet$LT$alloc..string..String$GT$$GT$17hafa4475ea283f1ddE', symObjAddr: 0x6170, symBinAddr: 0x28A80, symSize: 0x24 }
  - { offset: 0x69786, size: 0x8, addend: 0x0, symName: '__ZN4core3ptr87drop_in_place$LT$core..cell..UnsafeCell$LT$_translit..slugify.._UniqueSlugifier$GT$$GT$17h54e22920ea05670aE', symObjAddr: 0x6194, symBinAddr: 0x28AA4, symSize: 0x24 }
  - { offset: 0x697B5, size: 0x8, addend: 0x0, symName: '__ZN4core3ptr87drop_in_place$LT$pyo3..instance..Py$LT$_translit..hostname..SafeHostnameDetails$GT$$GT$17h0d31c8b0598205deE', symObjAddr: 0x61B8, symBinAddr: 0x28AC8, symSize: 0x2C }
  - { offset: 0x697E4, size: 0x8, addend: 0x0, symName: '__ZN4core3ptr87drop_in_place$LT$pyo3..pycell..PyRefMut$LT$_translit..slugify.._UniqueSlugifier$GT$$GT$17h010e734a98e4e6bbE', symObjAddr: 0x61E4, symBinAddr: 0x28AF4, symSize: 0x5C }
  - { offset: 0x69813, size: 0x8, addend: 0x0, symName: '__ZN4core3ptr88drop_in_place$LT$pyo3..pycell..PyRef$LT$_translit..hostname..SafeHostnameDetails$GT$$GT$17hf5c8acde28c2707eE', symObjAddr: 0x6240, symBinAddr: 0x28B50, symSize: 0x5C }
  - { offset: 0x69842, size: 0x8, addend: 0x0, symName: '__ZN4core3ptr89drop_in_place$LT$core..result..Result$LT$alloc..string..String$C$pyo3..err..PyErr$GT$$GT$17h81eb9d1a2b91847bE', symObjAddr: 0x629C, symBinAddr: 0x28BAC, symSize: 0x50 }
  - { offset: 0x69871, size: 0x8, addend: 0x0, symName: '__ZN4core3ptr89drop_in_place$LT$hashbrown..raw..RawTable$LT$$LP$char$C$alloc..string..String$RP$$GT$$GT$17h0faa363db1cd295aE', symObjAddr: 0x62EC, symBinAddr: 0x28BFC, symSize: 0x24 }
  - { offset: 0x698A0, size: 0x8, addend: 0x0, symName: '__ZN4core3ptr90drop_in_place$LT$core..slice..sort..stable..merge..MergeState$LT$$LP$u8$C$char$RP$$GT$$GT$17h6a804ebfc980b484E', symObjAddr: 0x6310, symBinAddr: 0x28C20, symSize: 0x24 }
  - { offset: 0x698CF, size: 0x8, addend: 0x0, symName: '__ZN4core3ptr90drop_in_place$LT$pyo3..instance..Bound$LT$_translit..hostname..SafeHostnameDetails$GT$$GT$17h5a109ccacf21dbaeE', symObjAddr: 0x6334, symBinAddr: 0x28C44, symSize: 0x24 }
  - { offset: 0x698FE, size: 0x8, addend: 0x0, symName: '__ZN4core3ptr91drop_in_place$LT$core..cell..UnsafeCell$LT$_translit..hostname..SafeHostnameDetails$GT$$GT$17hab09b65d2b5a46cfE', symObjAddr: 0x6358, symBinAddr: 0x28C68, symSize: 0x24 }
  - { offset: 0x6992D, size: 0x8, addend: 0x0, symName: '__ZN4core3ptr92drop_in_place$LT$hashbrown..set..HashSet$LT$$RF$str$C$std..hash..random..RandomState$GT$$GT$17h53b6de002c436443E', symObjAddr: 0x637C, symBinAddr: 0x28C8C, symSize: 0x24 }
  - { offset: 0x6995C, size: 0x8, addend: 0x0, symName: '__ZN4core3ptr92drop_in_place$LT$tinyvec..tinyvec..TinyVec$LT$$u5b$$LP$u8$C$char$RP$$u3b$$u20$4$u5d$$GT$$GT$17h9b89efb4097a64f3E', symObjAddr: 0x63A0, symBinAddr: 0x28CB0, symSize: 0x40 }
  - { offset: 0x6998B, size: 0x8, addend: 0x0, symName: '__ZN4core3ptr93drop_in_place$LT$hashbrown..raw..RawTable$LT$$LP$alloc..string..String$C$$LP$$RP$$RP$$GT$$GT$17h295c59d860c68120E', symObjAddr: 0x63E0, symBinAddr: 0x28CF0, symSize: 0x24 }
  - { offset: 0x699BA, size: 0x8, addend: 0x0, symName: '__ZN4core3ptr93drop_in_place$LT$std..collections..hash..map..HashMap$LT$char$C$alloc..string..String$GT$$GT$17h089005b66e34dbd0E', symObjAddr: 0x6404, symBinAddr: 0x28D14, symSize: 0x24 }
  - { offset: 0x699E9, size: 0x8, addend: 0x0, symName: '__ZN4core3ptr94drop_in_place$LT$core..slice..sort..shared..smallsort..CopyOnDrop$LT$$LP$u8$C$char$RP$$GT$$GT$17hb76637d3705d8564E', symObjAddr: 0x6428, symBinAddr: 0x28D38, symSize: 0x24 }
  - { offset: 0x69A18, size: 0x8, addend: 0x0, symName: '__ZN4core3ptr94drop_in_place$LT$core..slice..sort..stable..merge..MergeState$LT$alloc..string..String$GT$$GT$17h37a10096319253cbE', symObjAddr: 0x644C, symBinAddr: 0x28D5C, symSize: 0x24 }
  - { offset: 0x69A47, size: 0x8, addend: 0x0, symName: '__ZN4core3ptr95drop_in_place$LT$core..option..Option$LT$$LP$usize$C$regex..regex..string..Captures$RP$$GT$$GT$17h399b6911355505c3E', symObjAddr: 0x6470, symBinAddr: 0x28D80, symSize: 0x44 }
  - { offset: 0x69A76, size: 0x8, addend: 0x0, symName: '__ZN4core3ptr95drop_in_place$LT$core..result..Result$LT$pyo3..pybacked..PyBackedStr$C$pyo3..err..PyErr$GT$$GT$17hd19619dd72848df6E', symObjAddr: 0x64B4, symBinAddr: 0x28DC4, symSize: 0x50 }
  - { offset: 0x69AA5, size: 0x8, addend: 0x0, symName: '__ZN4core3ptr97drop_in_place$LT$alloc..vec..Vec$LT$$LP$alloc..string..String$C$alloc..string..String$RP$$GT$$GT$17h9ce129d30b954d9eE', symObjAddr: 0x6504, symBinAddr: 0x28E14, symSize: 0x5C }
  - { offset: 0x69AD4, size: 0x8, addend: 0x0, symName: '__ZN4core3ptr97drop_in_place$LT$core..option..Option$LT$alloc..borrow..Cow$LT$core..ffi..c_str..CStr$GT$$GT$$GT$17h723a35967da001f1E', symObjAddr: 0x6560, symBinAddr: 0x28E70, symSize: 0x44 }
  - { offset: 0x69B03, size: 0x8, addend: 0x0, symName: '__ZN4core3ptr97drop_in_place$LT$pyo3..pyclass_init..PyClassInitializer$LT$_translit..slugify.._Slugifier$GT$$GT$17heeb00c7b5b190753E', symObjAddr: 0x65A4, symBinAddr: 0x28EB4, symSize: 0x24 }
  - { offset: 0x69B32, size: 0x8, addend: 0x0, symName: '__ZN4core3ptr98drop_in_place$LT$core..result..Result$LT$_translit..slugify.._Slugifier$C$pyo3..err..PyErr$GT$$GT$17h64be014195a1f09eE', symObjAddr: 0x65C8, symBinAddr: 0x28ED8, symSize: 0x5C }
  - { offset: 0x69B61, size: 0x8, addend: 0x0, symName: '__ZN4core3ptr98drop_in_place$LT$core..result..Result$LT$alloc..vec..Vec$LT$$RF$str$GT$$C$pyo3..err..PyErr$GT$$GT$17hd3c1a4cd57059531E', symObjAddr: 0x6624, symBinAddr: 0x28F34, symSize: 0x50 }
  - { offset: 0x69B90, size: 0x8, addend: 0x0, symName: '__ZN4core3ptr98drop_in_place$LT$core..slice..sort..shared..smallsort..CopyOnDrop$LT$alloc..string..String$GT$$GT$17h6e501bd81e75cd5dE', symObjAddr: 0x6674, symBinAddr: 0x28F84, symSize: 0x24 }
  - { offset: 0x69BBF, size: 0x8, addend: 0x0, symName: '__ZN4core3ptr98drop_in_place$LT$hashbrown..map..IntoIter$LT$alloc..string..String$C$alloc..string..String$GT$$GT$17h63fda1c738778075E', symObjAddr: 0x6698, symBinAddr: 0x28FA8, symSize: 0x24 }
  - { offset: 0x69BEE, size: 0x8, addend: 0x0, symName: '__ZN4core3ptr99drop_in_place$LT$hashbrown..map..HashMap$LT$char$C$$RF$str$C$std..hash..random..RandomState$GT$$GT$17hf374dcb1ef59dba2E', symObjAddr: 0x66E0, symBinAddr: 0x28FCC, symSize: 0x24 }
  - { offset: 0x69C1D, size: 0x8, addend: 0x0, symName: '__ZN4core3ptr99drop_in_place$LT$unicode_normalization..decompose..Decompositions$LT$core..str..iter..Chars$GT$$GT$17hfdf74b0ec10b80baE', symObjAddr: 0x6704, symBinAddr: 0x28FF0, symSize: 0x24 }
  - { offset: 0x69C4C, size: 0x8, addend: 0x0, symName: '__ZN4core3ptr99drop_in_place$LT$unicode_normalization..recompose..Recompositions$LT$core..str..iter..Chars$GT$$GT$17h9838667beec1931fE', symObjAddr: 0x6728, symBinAddr: 0x29014, symSize: 0x64 }
  - { offset: 0x6A523, size: 0x8, addend: 0x0, symName: __ZN4core3ops8function2Fn4call17h0a3565302435cc0eE, symObjAddr: 0xD8, symBinAddr: 0x22FB4, symSize: 0x28 }
  - { offset: 0x6A567, size: 0x8, addend: 0x0, symName: __ZN4core3ops8function2Fn4call17h178f26350d2725ebE, symObjAddr: 0x100, symBinAddr: 0x22FDC, symSize: 0x28 }
  - { offset: 0x6A5AB, size: 0x8, addend: 0x0, symName: __ZN4core3ops8function2Fn4call17h631827c964c47eaeE, symObjAddr: 0x128, symBinAddr: 0x23004, symSize: 0x28 }
  - { offset: 0x6A5EF, size: 0x8, addend: 0x0, symName: __ZN4core3ops8function2Fn4call17hd455a8f884d3e04fE, symObjAddr: 0x150, symBinAddr: 0x2302C, symSize: 0x28 }
  - { offset: 0x6A633, size: 0x8, addend: 0x0, symName: __ZN4core3ops8function2Fn4call17hd575562c69238764E, symObjAddr: 0x178, symBinAddr: 0x23054, symSize: 0x28 }
  - { offset: 0x6A67D, size: 0x8, addend: 0x0, symName: __ZN4core3ops8function5FnMut8call_mut17h0185be2a8ba3774fE, symObjAddr: 0x1A0, symBinAddr: 0x2307C, symSize: 0x28 }
  - { offset: 0x6A6C1, size: 0x8, addend: 0x0, symName: __ZN4core3ops8function5FnMut8call_mut17h306e7b1805619c8dE, symObjAddr: 0x1C8, symBinAddr: 0x230A4, symSize: 0x30 }
  - { offset: 0x6A705, size: 0x8, addend: 0x0, symName: __ZN4core3ops8function5FnMut8call_mut17h37e4fa9e08fab956E, symObjAddr: 0x1F8, symBinAddr: 0x230D4, symSize: 0x28 }
  - { offset: 0x6A749, size: 0x8, addend: 0x0, symName: __ZN4core3ops8function5FnMut8call_mut17h6110474b3c05ff7bE, symObjAddr: 0x220, symBinAddr: 0x230FC, symSize: 0x28 }
  - { offset: 0x6A78D, size: 0x8, addend: 0x0, symName: __ZN4core3ops8function5FnMut8call_mut17h67058be9d9b90525E, symObjAddr: 0x248, symBinAddr: 0x23124, symSize: 0x28 }
  - { offset: 0x6A7CD, size: 0x8, addend: 0x0, symName: __ZN4core3ops8function5FnMut8call_mut17h829ec68a4ace572eE, symObjAddr: 0x270, symBinAddr: 0x2314C, symSize: 0x28 }
  - { offset: 0x6A811, size: 0x8, addend: 0x0, symName: __ZN4core3ops8function5FnMut8call_mut17h82ec6f3ee8f638f1E, symObjAddr: 0x298, symBinAddr: 0x23174, symSize: 0x30 }
  - { offset: 0x6A855, size: 0x8, addend: 0x0, symName: __ZN4core3ops8function5FnMut8call_mut17h854618e0e8c05ca9E, symObjAddr: 0x2C8, symBinAddr: 0x231A4, symSize: 0x30 }
  - { offset: 0x6A895, size: 0x8, addend: 0x0, symName: __ZN4core3ops8function5FnMut8call_mut17h96856325ca6b3751E, symObjAddr: 0x2F8, symBinAddr: 0x231D4, symSize: 0x28 }
  - { offset: 0x6A8D9, size: 0x8, addend: 0x0, symName: __ZN4core3ops8function5FnMut8call_mut17hdc50cbe9e4ab6862E, symObjAddr: 0x320, symBinAddr: 0x231FC, symSize: 0x28 }
  - { offset: 0x6A923, size: 0x8, addend: 0x0, symName: '__ZN4core3ops8function6FnOnce40call_once$u7b$$u7b$vtable.shim$u7d$$u7d$17h01713a27db655f09E', symObjAddr: 0x348, symBinAddr: 0x23224, symSize: 0x38 }
  - { offset: 0x6A967, size: 0x8, addend: 0x0, symName: '__ZN4core3ops8function6FnOnce40call_once$u7b$$u7b$vtable.shim$u7d$$u7d$17h02e787f5f68d2ee8E', symObjAddr: 0x380, symBinAddr: 0x2325C, symSize: 0x38 }
  - { offset: 0x6A9AB, size: 0x8, addend: 0x0, symName: '__ZN4core3ops8function6FnOnce40call_once$u7b$$u7b$vtable.shim$u7d$$u7d$17h1318608a26060f9bE', symObjAddr: 0x3B8, symBinAddr: 0x23294, symSize: 0x24 }
  - { offset: 0x6A9EF, size: 0x8, addend: 0x0, symName: '__ZN4core3ops8function6FnOnce40call_once$u7b$$u7b$vtable.shim$u7d$$u7d$17h17b36308b1cb0952E', symObjAddr: 0x3DC, symBinAddr: 0x232B8, symSize: 0x38 }
  - { offset: 0x6AA33, size: 0x8, addend: 0x0, symName: '__ZN4core3ops8function6FnOnce40call_once$u7b$$u7b$vtable.shim$u7d$$u7d$17h25fdeab70798842dE', symObjAddr: 0x414, symBinAddr: 0x232F0, symSize: 0x24 }
  - { offset: 0x6AA77, size: 0x8, addend: 0x0, symName: '__ZN4core3ops8function6FnOnce40call_once$u7b$$u7b$vtable.shim$u7d$$u7d$17h3df149d7fe9ae3dfE', symObjAddr: 0x438, symBinAddr: 0x23314, symSize: 0x38 }
  - { offset: 0x6AABB, size: 0x8, addend: 0x0, symName: '__ZN4core3ops8function6FnOnce40call_once$u7b$$u7b$vtable.shim$u7d$$u7d$17h40d49ae12a9a5d60E', symObjAddr: 0x470, symBinAddr: 0x2334C, symSize: 0x24 }
  - { offset: 0x6AAFF, size: 0x8, addend: 0x0, symName: '__ZN4core3ops8function6FnOnce40call_once$u7b$$u7b$vtable.shim$u7d$$u7d$17h4125dac492eda455E', symObjAddr: 0x494, symBinAddr: 0x23370, symSize: 0x38 }
  - { offset: 0x6AB43, size: 0x8, addend: 0x0, symName: '__ZN4core3ops8function6FnOnce40call_once$u7b$$u7b$vtable.shim$u7d$$u7d$17h508607694b030e7cE', symObjAddr: 0x4CC, symBinAddr: 0x233A8, symSize: 0x24 }
  - { offset: 0x6AB87, size: 0x8, addend: 0x0, symName: '__ZN4core3ops8function6FnOnce40call_once$u7b$$u7b$vtable.shim$u7d$$u7d$17h571285f9d4c7ff09E', symObjAddr: 0x4F0, symBinAddr: 0x233CC, symSize: 0x38 }
  - { offset: 0x6ABCB, size: 0x8, addend: 0x0, symName: '__ZN4core3ops8function6FnOnce40call_once$u7b$$u7b$vtable.shim$u7d$$u7d$17h5fd9d147e669076fE', symObjAddr: 0x528, symBinAddr: 0x23404, symSize: 0x38 }
  - { offset: 0x6AC0F, size: 0x8, addend: 0x0, symName: '__ZN4core3ops8function6FnOnce40call_once$u7b$$u7b$vtable.shim$u7d$$u7d$17h617e857bd27d6e66E', symObjAddr: 0x560, symBinAddr: 0x2343C, symSize: 0x38 }
  - { offset: 0x6AC53, size: 0x8, addend: 0x0, symName: '__ZN4core3ops8function6FnOnce40call_once$u7b$$u7b$vtable.shim$u7d$$u7d$17h66187926687748c2E', symObjAddr: 0x598, symBinAddr: 0x23474, symSize: 0x38 }
  - { offset: 0x6AC97, size: 0x8, addend: 0x0, symName: '__ZN4core3ops8function6FnOnce40call_once$u7b$$u7b$vtable.shim$u7d$$u7d$17h719c6db9491b2991E', symObjAddr: 0x5D0, symBinAddr: 0x234AC, symSize: 0x38 }
  - { offset: 0x6ACDB, size: 0x8, addend: 0x0, symName: '__ZN4core3ops8function6FnOnce40call_once$u7b$$u7b$vtable.shim$u7d$$u7d$17h7899477dbfd26461E', symObjAddr: 0x608, symBinAddr: 0x234E4, symSize: 0x38 }
  - { offset: 0x6AD1F, size: 0x8, addend: 0x0, symName: '__ZN4core3ops8function6FnOnce40call_once$u7b$$u7b$vtable.shim$u7d$$u7d$17h7e4bff22ba65a3a6E', symObjAddr: 0x640, symBinAddr: 0x2351C, symSize: 0x38 }
  - { offset: 0x6AD63, size: 0x8, addend: 0x0, symName: '__ZN4core3ops8function6FnOnce40call_once$u7b$$u7b$vtable.shim$u7d$$u7d$17h8c1af87efa50071cE', symObjAddr: 0x678, symBinAddr: 0x23554, symSize: 0x24 }
  - { offset: 0x6ADA7, size: 0x8, addend: 0x0, symName: '__ZN4core3ops8function6FnOnce40call_once$u7b$$u7b$vtable.shim$u7d$$u7d$17ha680da6197b07164E', symObjAddr: 0x69C, symBinAddr: 0x23578, symSize: 0x38 }
  - { offset: 0x6ADEB, size: 0x8, addend: 0x0, symName: '__ZN4core3ops8function6FnOnce40call_once$u7b$$u7b$vtable.shim$u7d$$u7d$17hac0028e005bda995E', symObjAddr: 0x6D4, symBinAddr: 0x235B0, symSize: 0x38 }
  - { offset: 0x6AE2F, size: 0x8, addend: 0x0, symName: '__ZN4core3ops8function6FnOnce40call_once$u7b$$u7b$vtable.shim$u7d$$u7d$17hac398b98bfae5d33E', symObjAddr: 0x70C, symBinAddr: 0x235E8, symSize: 0x38 }
  - { offset: 0x6AE73, size: 0x8, addend: 0x0, symName: '__ZN4core3ops8function6FnOnce40call_once$u7b$$u7b$vtable.shim$u7d$$u7d$17haf8f2828c83dc2feE', symObjAddr: 0x744, symBinAddr: 0x23620, symSize: 0x38 }
  - { offset: 0x6AEB7, size: 0x8, addend: 0x0, symName: '__ZN4core3ops8function6FnOnce40call_once$u7b$$u7b$vtable.shim$u7d$$u7d$17hb3926fa7cd293adeE', symObjAddr: 0x77C, symBinAddr: 0x23658, symSize: 0x38 }
  - { offset: 0x6AEFB, size: 0x8, addend: 0x0, symName: '__ZN4core3ops8function6FnOnce40call_once$u7b$$u7b$vtable.shim$u7d$$u7d$17hb6c9c1cac1d5c3d2E', symObjAddr: 0x7B4, symBinAddr: 0x23690, symSize: 0x38 }
  - { offset: 0x6AF3F, size: 0x8, addend: 0x0, symName: '__ZN4core3ops8function6FnOnce40call_once$u7b$$u7b$vtable.shim$u7d$$u7d$17hbcbad7bccc94253eE', symObjAddr: 0x7EC, symBinAddr: 0x236C8, symSize: 0x38 }
  - { offset: 0x6AF83, size: 0x8, addend: 0x0, symName: '__ZN4core3ops8function6FnOnce40call_once$u7b$$u7b$vtable.shim$u7d$$u7d$17hbe8155770874ef4eE', symObjAddr: 0x824, symBinAddr: 0x23700, symSize: 0x24 }
  - { offset: 0x6AFC7, size: 0x8, addend: 0x0, symName: '__ZN4core3ops8function6FnOnce40call_once$u7b$$u7b$vtable.shim$u7d$$u7d$17hc4cd8e3e1a7650b5E', symObjAddr: 0x848, symBinAddr: 0x23724, symSize: 0x38 }
  - { offset: 0x6B00B, size: 0x8, addend: 0x0, symName: '__ZN4core3ops8function6FnOnce40call_once$u7b$$u7b$vtable.shim$u7d$$u7d$17hd1c21c5e9f6fe9f6E', symObjAddr: 0x880, symBinAddr: 0x2375C, symSize: 0x38 }
  - { offset: 0x6B04F, size: 0x8, addend: 0x0, symName: '__ZN4core3ops8function6FnOnce40call_once$u7b$$u7b$vtable.shim$u7d$$u7d$17hdba355d25f8c9e87E', symObjAddr: 0x8B8, symBinAddr: 0x23794, symSize: 0x30 }
  - { offset: 0x6B08F, size: 0x8, addend: 0x0, symName: '__ZN4core3ops8function6FnOnce40call_once$u7b$$u7b$vtable.shim$u7d$$u7d$17he341b19738d6e626E', symObjAddr: 0x8E8, symBinAddr: 0x237C4, symSize: 0x38 }
  - { offset: 0x6B0D3, size: 0x8, addend: 0x0, symName: __ZN4core3ops8function6FnOnce9call_once17h01efb42588289869E, symObjAddr: 0x920, symBinAddr: 0x237FC, symSize: 0x4C }
  - { offset: 0x6B117, size: 0x8, addend: 0x0, symName: __ZN4core3ops8function6FnOnce9call_once17h028e4d801bad1398E, symObjAddr: 0x96C, symBinAddr: 0x23848, symSize: 0x3C }
  - { offset: 0x6B15B, size: 0x8, addend: 0x0, symName: __ZN4core3ops8function6FnOnce9call_once17h02f84ec15f5e2398E, symObjAddr: 0x9A8, symBinAddr: 0x23884, symSize: 0x58 }
  - { offset: 0x6B19F, size: 0x8, addend: 0x0, symName: __ZN4core3ops8function6FnOnce9call_once17h04ab658513c1f671E, symObjAddr: 0xA00, symBinAddr: 0x238DC, symSize: 0x44 }
  - { offset: 0x6B1E3, size: 0x8, addend: 0x0, symName: __ZN4core3ops8function6FnOnce9call_once17h0595caedd684321eE, symObjAddr: 0xA44, symBinAddr: 0x23920, symSize: 0x44 }
  - { offset: 0x6B227, size: 0x8, addend: 0x0, symName: __ZN4core3ops8function6FnOnce9call_once17h05a002d27d2c34fbE, symObjAddr: 0xA88, symBinAddr: 0x23964, symSize: 0x4C }
  - { offset: 0x6B26B, size: 0x8, addend: 0x0, symName: __ZN4core3ops8function6FnOnce9call_once17h05add49c14bf7d81E, symObjAddr: 0xAD4, symBinAddr: 0x239B0, symSize: 0x4C }
  - { offset: 0x6B2AF, size: 0x8, addend: 0x0, symName: __ZN4core3ops8function6FnOnce9call_once17h078be55eec3edb91E, symObjAddr: 0xB20, symBinAddr: 0x239FC, symSize: 0x3C }
  - { offset: 0x6B2F3, size: 0x8, addend: 0x0, symName: __ZN4core3ops8function6FnOnce9call_once17h09c80b26ba3ef885E, symObjAddr: 0xB5C, symBinAddr: 0x23A38, symSize: 0x4C }
  - { offset: 0x6B337, size: 0x8, addend: 0x0, symName: __ZN4core3ops8function6FnOnce9call_once17h09df9acac1d43b20E, symObjAddr: 0xBA8, symBinAddr: 0x23A84, symSize: 0x4C }
  - { offset: 0x6B37B, size: 0x8, addend: 0x0, symName: __ZN4core3ops8function6FnOnce9call_once17h0a78a1c597f51b83E, symObjAddr: 0xBF4, symBinAddr: 0x23AD0, symSize: 0x3C }
  - { offset: 0x6B3BF, size: 0x8, addend: 0x0, symName: __ZN4core3ops8function6FnOnce9call_once17h0a94b66f12fdc9b6E, symObjAddr: 0xC30, symBinAddr: 0x23B0C, symSize: 0x58 }
  - { offset: 0x6B403, size: 0x8, addend: 0x0, symName: __ZN4core3ops8function6FnOnce9call_once17h0e48d67320811c1bE, symObjAddr: 0xC88, symBinAddr: 0x23B64, symSize: 0x4C }
  - { offset: 0x6B447, size: 0x8, addend: 0x0, symName: __ZN4core3ops8function6FnOnce9call_once17h0e5e9896afd3bdb2E, symObjAddr: 0xCD4, symBinAddr: 0x23BB0, symSize: 0x58 }
  - { offset: 0x6B48B, size: 0x8, addend: 0x0, symName: __ZN4core3ops8function6FnOnce9call_once17h0f959c0fba2a42daE, symObjAddr: 0xD2C, symBinAddr: 0x23C08, symSize: 0x3C }
  - { offset: 0x6B4CF, size: 0x8, addend: 0x0, symName: __ZN4core3ops8function6FnOnce9call_once17h103bdde1ade0dd93E, symObjAddr: 0xD68, symBinAddr: 0x23C44, symSize: 0x58 }
  - { offset: 0x6B513, size: 0x8, addend: 0x0, symName: __ZN4core3ops8function6FnOnce9call_once17h1156093692f3290eE, symObjAddr: 0xDC0, symBinAddr: 0x23C9C, symSize: 0x44 }
  - { offset: 0x6B557, size: 0x8, addend: 0x0, symName: __ZN4core3ops8function6FnOnce9call_once17h12e2d79dfb1c337fE, symObjAddr: 0xE04, symBinAddr: 0x23CE0, symSize: 0x44 }
  - { offset: 0x6B59B, size: 0x8, addend: 0x0, symName: __ZN4core3ops8function6FnOnce9call_once17h12f333c2b8cffadaE, symObjAddr: 0xE48, symBinAddr: 0x23D24, symSize: 0x5C }
  - { offset: 0x6B5DF, size: 0x8, addend: 0x0, symName: __ZN4core3ops8function6FnOnce9call_once17h139efc4f7f7e8ae8E, symObjAddr: 0xEA4, symBinAddr: 0x23D80, symSize: 0x20 }
  - { offset: 0x6B623, size: 0x8, addend: 0x0, symName: __ZN4core3ops8function6FnOnce9call_once17h17d1343c0a4e6f16E, symObjAddr: 0xEC4, symBinAddr: 0x23DA0, symSize: 0x4C }
  - { offset: 0x6B667, size: 0x8, addend: 0x0, symName: __ZN4core3ops8function6FnOnce9call_once17h19deb9c3dc9913bdE, symObjAddr: 0xF10, symBinAddr: 0x23DEC, symSize: 0x44 }
  - { offset: 0x6B6AB, size: 0x8, addend: 0x0, symName: __ZN4core3ops8function6FnOnce9call_once17h1a18fc42b846aef5E, symObjAddr: 0xF54, symBinAddr: 0x23E30, symSize: 0x4C }
  - { offset: 0x6B6EF, size: 0x8, addend: 0x0, symName: __ZN4core3ops8function6FnOnce9call_once17h1c149e8e67745653E, symObjAddr: 0xFA0, symBinAddr: 0x23E7C, symSize: 0x24 }
  - { offset: 0x6B733, size: 0x8, addend: 0x0, symName: __ZN4core3ops8function6FnOnce9call_once17h1c199a10968c7540E, symObjAddr: 0xFC4, symBinAddr: 0x23EA0, symSize: 0x44 }
  - { offset: 0x6B777, size: 0x8, addend: 0x0, symName: __ZN4core3ops8function6FnOnce9call_once17h201f62a447151846E, symObjAddr: 0x1008, symBinAddr: 0x23EE4, symSize: 0x44 }
  - { offset: 0x6B7BB, size: 0x8, addend: 0x0, symName: __ZN4core3ops8function6FnOnce9call_once17h2067a1376bb6f1e1E, symObjAddr: 0x104C, symBinAddr: 0x23F28, symSize: 0x44 }
  - { offset: 0x6B7FB, size: 0x8, addend: 0x0, symName: __ZN4core3ops8function6FnOnce9call_once17h2280d98c91d2ba96E, symObjAddr: 0x1090, symBinAddr: 0x23F6C, symSize: 0x48 }
  - { offset: 0x6B83F, size: 0x8, addend: 0x0, symName: __ZN4core3ops8function6FnOnce9call_once17h26daf30c6cbfcde5E, symObjAddr: 0x10D8, symBinAddr: 0x23FB4, symSize: 0x44 }
  - { offset: 0x6B883, size: 0x8, addend: 0x0, symName: __ZN4core3ops8function6FnOnce9call_once17h277ae632f8b14d33E, symObjAddr: 0x111C, symBinAddr: 0x23FF8, symSize: 0x24 }
  - { offset: 0x6B8C7, size: 0x8, addend: 0x0, symName: __ZN4core3ops8function6FnOnce9call_once17h280b4e275e724867E, symObjAddr: 0x1140, symBinAddr: 0x2401C, symSize: 0x4C }
  - { offset: 0x6B90B, size: 0x8, addend: 0x0, symName: __ZN4core3ops8function6FnOnce9call_once17h2914cd63e2acfbcaE, symObjAddr: 0x118C, symBinAddr: 0x24068, symSize: 0x44 }
  - { offset: 0x6B94F, size: 0x8, addend: 0x0, symName: __ZN4core3ops8function6FnOnce9call_once17h291528d57d8381a5E, symObjAddr: 0x11D0, symBinAddr: 0x240AC, symSize: 0x40 }
  - { offset: 0x6B994, size: 0x8, addend: 0x0, symName: __ZN4core3ops8function6FnOnce9call_once17h2929774722d2b2ffE, symObjAddr: 0x1210, symBinAddr: 0x240EC, symSize: 0x4C }
  - { offset: 0x6B9D8, size: 0x8, addend: 0x0, symName: __ZN4core3ops8function6FnOnce9call_once17h2b107999565d9d2bE, symObjAddr: 0x125C, symBinAddr: 0x24138, symSize: 0x44 }
  - { offset: 0x6BA1C, size: 0x8, addend: 0x0, symName: __ZN4core3ops8function6FnOnce9call_once17h2c74de49732946c3E, symObjAddr: 0x12A0, symBinAddr: 0x2417C, symSize: 0x2C }
  - { offset: 0x6BA60, size: 0x8, addend: 0x0, symName: __ZN4core3ops8function6FnOnce9call_once17h2fe7929acbd507deE, symObjAddr: 0x12CC, symBinAddr: 0x241A8, symSize: 0x3C }
  - { offset: 0x6BAA4, size: 0x8, addend: 0x0, symName: __ZN4core3ops8function6FnOnce9call_once17h308e8e7361d304d3E, symObjAddr: 0x1308, symBinAddr: 0x241E4, symSize: 0x4C }
  - { offset: 0x6BAE8, size: 0x8, addend: 0x0, symName: __ZN4core3ops8function6FnOnce9call_once17h310c3aad7603f741E, symObjAddr: 0x1354, symBinAddr: 0x24230, symSize: 0x44 }
  - { offset: 0x6BB2C, size: 0x8, addend: 0x0, symName: __ZN4core3ops8function6FnOnce9call_once17h31e5b8895f1c825aE, symObjAddr: 0x1398, symBinAddr: 0x24274, symSize: 0x4C }
  - { offset: 0x6BB6C, size: 0x8, addend: 0x0, symName: __ZN4core3ops8function6FnOnce9call_once17h325feebc380b4684E, symObjAddr: 0x13E4, symBinAddr: 0x242C0, symSize: 0x4C }
  - { offset: 0x6BBB0, size: 0x8, addend: 0x0, symName: __ZN4core3ops8function6FnOnce9call_once17h32e27b4bd1a7ecd7E, symObjAddr: 0x1430, symBinAddr: 0x2430C, symSize: 0x24 }
  - { offset: 0x6BBF4, size: 0x8, addend: 0x0, symName: __ZN4core3ops8function6FnOnce9call_once17h33d0f70e3def1b76E, symObjAddr: 0x1454, symBinAddr: 0x24330, symSize: 0x4C }
  - { offset: 0x6BC38, size: 0x8, addend: 0x0, symName: __ZN4core3ops8function6FnOnce9call_once17h3546c2e5772b79d2E, symObjAddr: 0x14A0, symBinAddr: 0x2437C, symSize: 0x4C }
  - { offset: 0x6BC7C, size: 0x8, addend: 0x0, symName: __ZN4core3ops8function6FnOnce9call_once17h35fed82fc36cd177E, symObjAddr: 0x14EC, symBinAddr: 0x243C8, symSize: 0x4C }
  - { offset: 0x6BCC0, size: 0x8, addend: 0x0, symName: __ZN4core3ops8function6FnOnce9call_once17h366201ab9d948f23E, symObjAddr: 0x1538, symBinAddr: 0x24414, symSize: 0x44 }
  - { offset: 0x6BD04, size: 0x8, addend: 0x0, symName: __ZN4core3ops8function6FnOnce9call_once17h3aebf5c2b6261be7E, symObjAddr: 0x157C, symBinAddr: 0x24458, symSize: 0x44 }
  - { offset: 0x6BD48, size: 0x8, addend: 0x0, symName: __ZN4core3ops8function6FnOnce9call_once17h3fc31261fbd7bf0bE, symObjAddr: 0x15C0, symBinAddr: 0x2449C, symSize: 0x44 }
  - { offset: 0x6BD8C, size: 0x8, addend: 0x0, symName: __ZN4core3ops8function6FnOnce9call_once17h402fabc6e5d105acE, symObjAddr: 0x1604, symBinAddr: 0x244E0, symSize: 0x3C }
  - { offset: 0x6BDD0, size: 0x8, addend: 0x0, symName: __ZN4core3ops8function6FnOnce9call_once17h40b4837dc7e4016aE, symObjAddr: 0x1640, symBinAddr: 0x2451C, symSize: 0x44 }
  - { offset: 0x6BE14, size: 0x8, addend: 0x0, symName: __ZN4core3ops8function6FnOnce9call_once17h418e3b2d3880f95eE, symObjAddr: 0x1684, symBinAddr: 0x24560, symSize: 0x3C }
  - { offset: 0x6BE58, size: 0x8, addend: 0x0, symName: __ZN4core3ops8function6FnOnce9call_once17h4289912e892162d2E, symObjAddr: 0x16C0, symBinAddr: 0x2459C, symSize: 0x44 }
  - { offset: 0x6BE9C, size: 0x8, addend: 0x0, symName: __ZN4core3ops8function6FnOnce9call_once17h4442570c26dc1549E, symObjAddr: 0x1704, symBinAddr: 0x245E0, symSize: 0x44 }
  - { offset: 0x6BEE0, size: 0x8, addend: 0x0, symName: __ZN4core3ops8function6FnOnce9call_once17h4680002741aeb50aE, symObjAddr: 0x1748, symBinAddr: 0x24624, symSize: 0x24 }
  - { offset: 0x6BF24, size: 0x8, addend: 0x0, symName: __ZN4core3ops8function6FnOnce9call_once17h4a863092352316e4E, symObjAddr: 0x176C, symBinAddr: 0x24648, symSize: 0x44 }
  - { offset: 0x6BF68, size: 0x8, addend: 0x0, symName: __ZN4core3ops8function6FnOnce9call_once17h4bef67d0433df0c9E, symObjAddr: 0x17B0, symBinAddr: 0x2468C, symSize: 0x4C }
  - { offset: 0x6BFAC, size: 0x8, addend: 0x0, symName: __ZN4core3ops8function6FnOnce9call_once17h508ddf472645336cE, symObjAddr: 0x17FC, symBinAddr: 0x246D8, symSize: 0x44 }
  - { offset: 0x6BFF0, size: 0x8, addend: 0x0, symName: __ZN4core3ops8function6FnOnce9call_once17h52fd630aeca3f480E, symObjAddr: 0x1840, symBinAddr: 0x2471C, symSize: 0x3C }
  - { offset: 0x6C034, size: 0x8, addend: 0x0, symName: __ZN4core3ops8function6FnOnce9call_once17h535ec1a0448d5cf4E, symObjAddr: 0x187C, symBinAddr: 0x24758, symSize: 0x44 }
  - { offset: 0x6C078, size: 0x8, addend: 0x0, symName: __ZN4core3ops8function6FnOnce9call_once17h543f5302cf9e626eE, symObjAddr: 0x18C0, symBinAddr: 0x2479C, symSize: 0x4C }
  - { offset: 0x6C0BC, size: 0x8, addend: 0x0, symName: __ZN4core3ops8function6FnOnce9call_once17h5727de6a83d25c02E, symObjAddr: 0x190C, symBinAddr: 0x247E8, symSize: 0x58 }
  - { offset: 0x6C100, size: 0x8, addend: 0x0, symName: __ZN4core3ops8function6FnOnce9call_once17h57e4af4ce46aeb56E, symObjAddr: 0x1964, symBinAddr: 0x24840, symSize: 0x4C }
  - { offset: 0x6C144, size: 0x8, addend: 0x0, symName: __ZN4core3ops8function6FnOnce9call_once17h5857cdc0beb5e387E, symObjAddr: 0x19B0, symBinAddr: 0x2488C, symSize: 0x24 }
  - { offset: 0x6C188, size: 0x8, addend: 0x0, symName: __ZN4core3ops8function6FnOnce9call_once17h5a10ba86b3f64812E, symObjAddr: 0x19D4, symBinAddr: 0x248B0, symSize: 0x5C }
  - { offset: 0x6C1CC, size: 0x8, addend: 0x0, symName: __ZN4core3ops8function6FnOnce9call_once17h5bb991daff00be07E, symObjAddr: 0x1A30, symBinAddr: 0x2490C, symSize: 0x24 }
  - { offset: 0x6C210, size: 0x8, addend: 0x0, symName: __ZN4core3ops8function6FnOnce9call_once17h5d3d61839c235cdcE, symObjAddr: 0x1A54, symBinAddr: 0x24930, symSize: 0x1C }
  - { offset: 0x6C254, size: 0x8, addend: 0x0, symName: __ZN4core3ops8function6FnOnce9call_once17h5d5102130e14c401E, symObjAddr: 0x1A70, symBinAddr: 0x2494C, symSize: 0x44 }
  - { offset: 0x6C298, size: 0x8, addend: 0x0, symName: __ZN4core3ops8function6FnOnce9call_once17h6263edd2570fa009E, symObjAddr: 0x1AB4, symBinAddr: 0x24990, symSize: 0x58 }
  - { offset: 0x6C2DC, size: 0x8, addend: 0x0, symName: __ZN4core3ops8function6FnOnce9call_once17h65834a8166b7eb4aE, symObjAddr: 0x1B0C, symBinAddr: 0x249E8, symSize: 0x44 }
  - { offset: 0x6C320, size: 0x8, addend: 0x0, symName: __ZN4core3ops8function6FnOnce9call_once17h688ea2ba8896266dE, symObjAddr: 0x1B50, symBinAddr: 0x24A2C, symSize: 0x4C }
  - { offset: 0x6C364, size: 0x8, addend: 0x0, symName: __ZN4core3ops8function6FnOnce9call_once17h69d0ba36a34f3e2aE, symObjAddr: 0x1B9C, symBinAddr: 0x24A78, symSize: 0x4C }
  - { offset: 0x6C3A8, size: 0x8, addend: 0x0, symName: __ZN4core3ops8function6FnOnce9call_once17h6a256aa708b43ad8E, symObjAddr: 0x1BE8, symBinAddr: 0x24AC4, symSize: 0x3C }
  - { offset: 0x6C3EC, size: 0x8, addend: 0x0, symName: __ZN4core3ops8function6FnOnce9call_once17h719c96c5c4c50d3fE, symObjAddr: 0x1C24, symBinAddr: 0x24B00, symSize: 0x44 }
  - { offset: 0x6C42C, size: 0x8, addend: 0x0, symName: __ZN4core3ops8function6FnOnce9call_once17h7338ea34c3c72f59E, symObjAddr: 0x1C68, symBinAddr: 0x24B44, symSize: 0x4C }
  - { offset: 0x6C470, size: 0x8, addend: 0x0, symName: __ZN4core3ops8function6FnOnce9call_once17h7348384faf2da8c0E, symObjAddr: 0x1CB4, symBinAddr: 0x24B90, symSize: 0x24 }
  - { offset: 0x6C4B4, size: 0x8, addend: 0x0, symName: __ZN4core3ops8function6FnOnce9call_once17h735234cfcee3b580E, symObjAddr: 0x1CD8, symBinAddr: 0x24BB4, symSize: 0x40 }
  - { offset: 0x6C4F9, size: 0x8, addend: 0x0, symName: __ZN4core3ops8function6FnOnce9call_once17h7883fd54084ccc5fE, symObjAddr: 0x1D3C, symBinAddr: 0x24BF4, symSize: 0x44 }
  - { offset: 0x6C53D, size: 0x8, addend: 0x0, symName: __ZN4core3ops8function6FnOnce9call_once17h7a8f4efcb29fb426E, symObjAddr: 0x1D80, symBinAddr: 0x24C38, symSize: 0x5C }
  - { offset: 0x6C581, size: 0x8, addend: 0x0, symName: __ZN4core3ops8function6FnOnce9call_once17h7b656258095745b3E, symObjAddr: 0x1DDC, symBinAddr: 0x24C94, symSize: 0x44 }
  - { offset: 0x6C5C5, size: 0x8, addend: 0x0, symName: __ZN4core3ops8function6FnOnce9call_once17h7f635a6c5dc8a470E, symObjAddr: 0x1E20, symBinAddr: 0x24CD8, symSize: 0x5C }
  - { offset: 0x6C609, size: 0x8, addend: 0x0, symName: __ZN4core3ops8function6FnOnce9call_once17h81f08711a0ab592bE, symObjAddr: 0x1E7C, symBinAddr: 0x24D34, symSize: 0x20 }
  - { offset: 0x6C64D, size: 0x8, addend: 0x0, symName: __ZN4core3ops8function6FnOnce9call_once17h85e17cfa56618d78E, symObjAddr: 0x1E9C, symBinAddr: 0x24D54, symSize: 0x44 }
  - { offset: 0x6C691, size: 0x8, addend: 0x0, symName: __ZN4core3ops8function6FnOnce9call_once17h868b8a51053c3232E, symObjAddr: 0x1EE0, symBinAddr: 0x24D98, symSize: 0x4C }
  - { offset: 0x6C6D5, size: 0x8, addend: 0x0, symName: __ZN4core3ops8function6FnOnce9call_once17h875d9bb0195a65b5E, symObjAddr: 0x1F2C, symBinAddr: 0x24DE4, symSize: 0x44 }
  - { offset: 0x6C719, size: 0x8, addend: 0x0, symName: __ZN4core3ops8function6FnOnce9call_once17h8966792135ff3c8cE, symObjAddr: 0x1F70, symBinAddr: 0x24E28, symSize: 0x58 }
  - { offset: 0x6C75D, size: 0x8, addend: 0x0, symName: __ZN4core3ops8function6FnOnce9call_once17h8a4951afc308a440E, symObjAddr: 0x1FC8, symBinAddr: 0x24E80, symSize: 0x44 }
  - { offset: 0x6C7A1, size: 0x8, addend: 0x0, symName: __ZN4core3ops8function6FnOnce9call_once17h8a6f3eabdd780855E, symObjAddr: 0x200C, symBinAddr: 0x24EC4, symSize: 0x44 }
  - { offset: 0x6C7E5, size: 0x8, addend: 0x0, symName: __ZN4core3ops8function6FnOnce9call_once17h8a991192a5d8c158E, symObjAddr: 0x2050, symBinAddr: 0x24F08, symSize: 0x44 }
  - { offset: 0x6C825, size: 0x8, addend: 0x0, symName: __ZN4core3ops8function6FnOnce9call_once17h8af999d17bfd4083E, symObjAddr: 0x2094, symBinAddr: 0x24F4C, symSize: 0x3C }
  - { offset: 0x6C869, size: 0x8, addend: 0x0, symName: __ZN4core3ops8function6FnOnce9call_once17h8ca631d6eae7223dE, symObjAddr: 0x20D0, symBinAddr: 0x24F88, symSize: 0x3C }
  - { offset: 0x6C8AD, size: 0x8, addend: 0x0, symName: __ZN4core3ops8function6FnOnce9call_once17h8dbcaf636226801fE, symObjAddr: 0x210C, symBinAddr: 0x24FC4, symSize: 0x4C }
  - { offset: 0x6C8F1, size: 0x8, addend: 0x0, symName: __ZN4core3ops8function6FnOnce9call_once17h8f3e22cf04dc8b51E, symObjAddr: 0x2158, symBinAddr: 0x25010, symSize: 0x44 }
  - { offset: 0x6C935, size: 0x8, addend: 0x0, symName: __ZN4core3ops8function6FnOnce9call_once17h955afdf85edb80abE, symObjAddr: 0x219C, symBinAddr: 0x25054, symSize: 0x5C }
  - { offset: 0x6C979, size: 0x8, addend: 0x0, symName: __ZN4core3ops8function6FnOnce9call_once17h96070ae316e7bf40E, symObjAddr: 0x21F8, symBinAddr: 0x250B0, symSize: 0x40 }
  - { offset: 0x6C9BE, size: 0x8, addend: 0x0, symName: __ZN4core3ops8function6FnOnce9call_once17h96b5175f6a1149e4E, symObjAddr: 0x2238, symBinAddr: 0x250F0, symSize: 0x5C }
  - { offset: 0x6CA02, size: 0x8, addend: 0x0, symName: __ZN4core3ops8function6FnOnce9call_once17h99a1dc41c8ee00ebE, symObjAddr: 0x2294, symBinAddr: 0x2514C, symSize: 0x44 }
  - { offset: 0x6CA46, size: 0x8, addend: 0x0, symName: __ZN4core3ops8function6FnOnce9call_once17h9a96e8c66fd4b498E, symObjAddr: 0x22D8, symBinAddr: 0x25190, symSize: 0x44 }
  - { offset: 0x6CA8A, size: 0x8, addend: 0x0, symName: __ZN4core3ops8function6FnOnce9call_once17h9d2d61d121c5b114E, symObjAddr: 0x231C, symBinAddr: 0x251D4, symSize: 0x58 }
  - { offset: 0x6CACE, size: 0x8, addend: 0x0, symName: __ZN4core3ops8function6FnOnce9call_once17h9ef45b4c8cd2b5c0E, symObjAddr: 0x2374, symBinAddr: 0x2522C, symSize: 0x44 }
  - { offset: 0x6CB12, size: 0x8, addend: 0x0, symName: __ZN4core3ops8function6FnOnce9call_once17h9f4a37bffdc5faadE, symObjAddr: 0x23B8, symBinAddr: 0x25270, symSize: 0x44 }
  - { offset: 0x6CB56, size: 0x8, addend: 0x0, symName: __ZN4core3ops8function6FnOnce9call_once17ha5952d40fa5e980cE, symObjAddr: 0x23FC, symBinAddr: 0x252B4, symSize: 0x2C }
  - { offset: 0x6CB9A, size: 0x8, addend: 0x0, symName: __ZN4core3ops8function6FnOnce9call_once17ha6f57e35d8f85274E, symObjAddr: 0x2428, symBinAddr: 0x252E0, symSize: 0x4C }
  - { offset: 0x6CBDE, size: 0x8, addend: 0x0, symName: __ZN4core3ops8function6FnOnce9call_once17ha7fe11fc2ff5a063E, symObjAddr: 0x2474, symBinAddr: 0x2532C, symSize: 0x24 }
  - { offset: 0x6CC22, size: 0x8, addend: 0x0, symName: __ZN4core3ops8function6FnOnce9call_once17ha818f357a0f79272E, symObjAddr: 0x2498, symBinAddr: 0x25350, symSize: 0x24 }
  - { offset: 0x6CC66, size: 0x8, addend: 0x0, symName: __ZN4core3ops8function6FnOnce9call_once17hac83f1334f7bb835E, symObjAddr: 0x24BC, symBinAddr: 0x25374, symSize: 0x44 }
  - { offset: 0x6CCAA, size: 0x8, addend: 0x0, symName: __ZN4core3ops8function6FnOnce9call_once17haf9d129843f88b6aE, symObjAddr: 0x2500, symBinAddr: 0x253B8, symSize: 0x44 }
  - { offset: 0x6CCEA, size: 0x8, addend: 0x0, symName: __ZN4core3ops8function6FnOnce9call_once17hb0fcec00ee2987a1E, symObjAddr: 0x2544, symBinAddr: 0x253FC, symSize: 0x3C }
  - { offset: 0x6CD2E, size: 0x8, addend: 0x0, symName: __ZN4core3ops8function6FnOnce9call_once17hb2d68e20e0045522E, symObjAddr: 0x2580, symBinAddr: 0x25438, symSize: 0x24 }
  - { offset: 0x6CD72, size: 0x8, addend: 0x0, symName: __ZN4core3ops8function6FnOnce9call_once17hb33a63b9009b44deE, symObjAddr: 0x25A4, symBinAddr: 0x2545C, symSize: 0x44 }
  - { offset: 0x6CDB6, size: 0x8, addend: 0x0, symName: __ZN4core3ops8function6FnOnce9call_once17hb5b2f94f4db6a9ecE, symObjAddr: 0x25E8, symBinAddr: 0x254A0, symSize: 0x4C }
  - { offset: 0x6CDFA, size: 0x8, addend: 0x0, symName: __ZN4core3ops8function6FnOnce9call_once17hb8074e875de9ede1E, symObjAddr: 0x2634, symBinAddr: 0x254EC, symSize: 0x24 }
  - { offset: 0x6CE3E, size: 0x8, addend: 0x0, symName: __ZN4core3ops8function6FnOnce9call_once17hb925250cbd5b6088E, symObjAddr: 0x2658, symBinAddr: 0x25510, symSize: 0x44 }
  - { offset: 0x6CE82, size: 0x8, addend: 0x0, symName: __ZN4core3ops8function6FnOnce9call_once17hb9cf9bbd4ac98769E, symObjAddr: 0x269C, symBinAddr: 0x25554, symSize: 0x3C }
  - { offset: 0x6CEC6, size: 0x8, addend: 0x0, symName: __ZN4core3ops8function6FnOnce9call_once17hb9d858797df04eb5E, symObjAddr: 0x26D8, symBinAddr: 0x25590, symSize: 0x4C }
  - { offset: 0x6CF0A, size: 0x8, addend: 0x0, symName: __ZN4core3ops8function6FnOnce9call_once17hbb46725c018eb4e8E, symObjAddr: 0x2724, symBinAddr: 0x255DC, symSize: 0x20 }
  - { offset: 0x6CF4E, size: 0x8, addend: 0x0, symName: __ZN4core3ops8function6FnOnce9call_once17hbb81474a2635bf82E, symObjAddr: 0x2744, symBinAddr: 0x255FC, symSize: 0x58 }
  - { offset: 0x6CF92, size: 0x8, addend: 0x0, symName: __ZN4core3ops8function6FnOnce9call_once17hbbf13b4e2acc5061E, symObjAddr: 0x279C, symBinAddr: 0x25654, symSize: 0x3C }
  - { offset: 0x6CFD6, size: 0x8, addend: 0x0, symName: __ZN4core3ops8function6FnOnce9call_once17hbc66a35a6aa338e8E, symObjAddr: 0x27D8, symBinAddr: 0x25690, symSize: 0x58 }
  - { offset: 0x6D01A, size: 0x8, addend: 0x0, symName: __ZN4core3ops8function6FnOnce9call_once17hbca4a4b5e52251e2E, symObjAddr: 0x2830, symBinAddr: 0x256E8, symSize: 0x4C }
  - { offset: 0x6D05E, size: 0x8, addend: 0x0, symName: __ZN4core3ops8function6FnOnce9call_once17hbd9219588007bd07E, symObjAddr: 0x287C, symBinAddr: 0x25734, symSize: 0x44 }
  - { offset: 0x6D0A2, size: 0x8, addend: 0x0, symName: __ZN4core3ops8function6FnOnce9call_once17hbec55bc51abfe188E, symObjAddr: 0x28C0, symBinAddr: 0x25778, symSize: 0x3C }
  - { offset: 0x6D0E6, size: 0x8, addend: 0x0, symName: __ZN4core3ops8function6FnOnce9call_once17hc20b7ed06f46eea7E, symObjAddr: 0x28FC, symBinAddr: 0x257B4, symSize: 0x4C }
  - { offset: 0x6D12A, size: 0x8, addend: 0x0, symName: __ZN4core3ops8function6FnOnce9call_once17hc4a409ed2b6d3f8cE, symObjAddr: 0x2948, symBinAddr: 0x25800, symSize: 0x44 }
  - { offset: 0x6D16E, size: 0x8, addend: 0x0, symName: __ZN4core3ops8function6FnOnce9call_once17hc7256248c05fb788E, symObjAddr: 0x298C, symBinAddr: 0x25844, symSize: 0x44 }
  - { offset: 0x6D1B2, size: 0x8, addend: 0x0, symName: __ZN4core3ops8function6FnOnce9call_once17hc77c221d2fe7c445E, symObjAddr: 0x29D0, symBinAddr: 0x25888, symSize: 0x44 }
  - { offset: 0x6D1F6, size: 0x8, addend: 0x0, symName: __ZN4core3ops8function6FnOnce9call_once17hca092173a333dfe7E, symObjAddr: 0x2A14, symBinAddr: 0x258CC, symSize: 0x44 }
  - { offset: 0x6D23A, size: 0x8, addend: 0x0, symName: __ZN4core3ops8function6FnOnce9call_once17hcb73fc1af69e9cccE, symObjAddr: 0x2A58, symBinAddr: 0x25910, symSize: 0x58 }
  - { offset: 0x6D27E, size: 0x8, addend: 0x0, symName: __ZN4core3ops8function6FnOnce9call_once17hccf37a91397502d8E, symObjAddr: 0x2AB0, symBinAddr: 0x25968, symSize: 0x44 }
  - { offset: 0x6D2C2, size: 0x8, addend: 0x0, symName: __ZN4core3ops8function6FnOnce9call_once17hcd6f37793db0ab85E, symObjAddr: 0x2AF4, symBinAddr: 0x259AC, symSize: 0x40 }
  - { offset: 0x6D307, size: 0x8, addend: 0x0, symName: __ZN4core3ops8function6FnOnce9call_once17hcf8967cb2dd16e13E, symObjAddr: 0x2B34, symBinAddr: 0x259EC, symSize: 0x4C }
  - { offset: 0x6D34B, size: 0x8, addend: 0x0, symName: __ZN4core3ops8function6FnOnce9call_once17hcffe6eba4a2349d8E, symObjAddr: 0x2B80, symBinAddr: 0x25A38, symSize: 0x2C }
  - { offset: 0x6D38F, size: 0x8, addend: 0x0, symName: __ZN4core3ops8function6FnOnce9call_once17hd01c501f0f1efb9dE, symObjAddr: 0x2BAC, symBinAddr: 0x25A64, symSize: 0x44 }
  - { offset: 0x6D3D3, size: 0x8, addend: 0x0, symName: __ZN4core3ops8function6FnOnce9call_once17hd141232a674bdcd9E, symObjAddr: 0x2BF0, symBinAddr: 0x25AA8, symSize: 0x20 }
  - { offset: 0x6D417, size: 0x8, addend: 0x0, symName: __ZN4core3ops8function6FnOnce9call_once17hd18ed8bf4f114e60E, symObjAddr: 0x2C10, symBinAddr: 0x25AC8, symSize: 0x4C }
  - { offset: 0x6D45B, size: 0x8, addend: 0x0, symName: __ZN4core3ops8function6FnOnce9call_once17hd24bf827158509b1E, symObjAddr: 0x2C5C, symBinAddr: 0x25B14, symSize: 0x20 }
  - { offset: 0x6D49F, size: 0x8, addend: 0x0, symName: __ZN4core3ops8function6FnOnce9call_once17hd28d6514bff8b3d3E, symObjAddr: 0x2C7C, symBinAddr: 0x25B34, symSize: 0x58 }
  - { offset: 0x6D4E3, size: 0x8, addend: 0x0, symName: __ZN4core3ops8function6FnOnce9call_once17hd53f8e83373dc8c8E, symObjAddr: 0x2CD4, symBinAddr: 0x25B8C, symSize: 0x44 }
  - { offset: 0x6D527, size: 0x8, addend: 0x0, symName: __ZN4core3ops8function6FnOnce9call_once17hd6e904afbe1cf2f5E, symObjAddr: 0x2D18, symBinAddr: 0x25BD0, symSize: 0x3C }
  - { offset: 0x6D56B, size: 0x8, addend: 0x0, symName: __ZN4core3ops8function6FnOnce9call_once17hd9141dd6c15ebeabE, symObjAddr: 0x2D54, symBinAddr: 0x25C0C, symSize: 0x24 }
  - { offset: 0x6D5AF, size: 0x8, addend: 0x0, symName: __ZN4core3ops8function6FnOnce9call_once17hdb82e4bd80e4ad61E, symObjAddr: 0x2D78, symBinAddr: 0x25C30, symSize: 0x24 }
  - { offset: 0x6D5F3, size: 0x8, addend: 0x0, symName: __ZN4core3ops8function6FnOnce9call_once17hdbce8ad0736fa4cfE, symObjAddr: 0x2D9C, symBinAddr: 0x25C54, symSize: 0x58 }
  - { offset: 0x6D637, size: 0x8, addend: 0x0, symName: __ZN4core3ops8function6FnOnce9call_once17hdc517e246cb93adfE, symObjAddr: 0x2DF4, symBinAddr: 0x25CAC, symSize: 0x5C }
  - { offset: 0x6D67B, size: 0x8, addend: 0x0, symName: __ZN4core3ops8function6FnOnce9call_once17hdcf6a3db866b8270E, symObjAddr: 0x2E50, symBinAddr: 0x25D08, symSize: 0x4C }
  - { offset: 0x6D6BF, size: 0x8, addend: 0x0, symName: __ZN4core3ops8function6FnOnce9call_once17hde21ee343adf4254E, symObjAddr: 0x2E9C, symBinAddr: 0x25D54, symSize: 0x44 }
  - { offset: 0x6D703, size: 0x8, addend: 0x0, symName: __ZN4core3ops8function6FnOnce9call_once17hdf6cb2e9d05dd7aaE, symObjAddr: 0x2EE0, symBinAddr: 0x25D98, symSize: 0x24 }
  - { offset: 0x6D747, size: 0x8, addend: 0x0, symName: __ZN4core3ops8function6FnOnce9call_once17he27629e2cd3753f3E, symObjAddr: 0x2F04, symBinAddr: 0x25DBC, symSize: 0x4C }
  - { offset: 0x6D78B, size: 0x8, addend: 0x0, symName: __ZN4core3ops8function6FnOnce9call_once17he6f434d44059c0cbE, symObjAddr: 0x2F50, symBinAddr: 0x25E08, symSize: 0x44 }
  - { offset: 0x6D7CF, size: 0x8, addend: 0x0, symName: __ZN4core3ops8function6FnOnce9call_once17he8d45b83117a9b0fE, symObjAddr: 0x2F94, symBinAddr: 0x25E4C, symSize: 0x58 }
  - { offset: 0x6D813, size: 0x8, addend: 0x0, symName: __ZN4core3ops8function6FnOnce9call_once17hea7c7e54de977bcfE, symObjAddr: 0x2FEC, symBinAddr: 0x25EA4, symSize: 0x44 }
  - { offset: 0x6D853, size: 0x8, addend: 0x0, symName: __ZN4core3ops8function6FnOnce9call_once17heacd39e365759a2bE, symObjAddr: 0x3030, symBinAddr: 0x25EE8, symSize: 0x44 }
  - { offset: 0x6D897, size: 0x8, addend: 0x0, symName: __ZN4core3ops8function6FnOnce9call_once17heb90316eb9a74936E, symObjAddr: 0x3074, symBinAddr: 0x25F2C, symSize: 0x44 }
  - { offset: 0x6D8DB, size: 0x8, addend: 0x0, symName: __ZN4core3ops8function6FnOnce9call_once17hebeb5ef803fc418bE, symObjAddr: 0x30B8, symBinAddr: 0x25F70, symSize: 0x4C }
  - { offset: 0x6D91F, size: 0x8, addend: 0x0, symName: __ZN4core3ops8function6FnOnce9call_once17hf195c3573fa27cdcE, symObjAddr: 0x3104, symBinAddr: 0x25FBC, symSize: 0x3C }
  - { offset: 0x6D963, size: 0x8, addend: 0x0, symName: __ZN4core3ops8function6FnOnce9call_once17hf1a5a5c1b4bc9ebdE, symObjAddr: 0x3140, symBinAddr: 0x25FF8, symSize: 0x44 }
  - { offset: 0x6D9A7, size: 0x8, addend: 0x0, symName: __ZN4core3ops8function6FnOnce9call_once17hf2126f975983cd40E, symObjAddr: 0x3184, symBinAddr: 0x2603C, symSize: 0x4C }
  - { offset: 0x6D9EB, size: 0x8, addend: 0x0, symName: __ZN4core3ops8function6FnOnce9call_once17hf24971ecaec1a328E, symObjAddr: 0x31D0, symBinAddr: 0x26088, symSize: 0x44 }
  - { offset: 0x6DA2F, size: 0x8, addend: 0x0, symName: __ZN4core3ops8function6FnOnce9call_once17hf29dc5a3fec94db3E, symObjAddr: 0x3214, symBinAddr: 0x260CC, symSize: 0x58 }
  - { offset: 0x6DA73, size: 0x8, addend: 0x0, symName: __ZN4core3ops8function6FnOnce9call_once17hf503c085580af877E, symObjAddr: 0x326C, symBinAddr: 0x26124, symSize: 0x4C }
  - { offset: 0x6DAB7, size: 0x8, addend: 0x0, symName: __ZN4core3ops8function6FnOnce9call_once17hf7080c92f52be76eE, symObjAddr: 0x32B8, symBinAddr: 0x26170, symSize: 0x4C }
  - { offset: 0x6DAFB, size: 0x8, addend: 0x0, symName: __ZN4core3ops8function6FnOnce9call_once17hf98ebe3c26b17dd4E, symObjAddr: 0x3304, symBinAddr: 0x261BC, symSize: 0x3C }
  - { offset: 0x6DB3F, size: 0x8, addend: 0x0, symName: __ZN4core3ops8function6FnOnce9call_once17hf9da1edad2184105E, symObjAddr: 0x3340, symBinAddr: 0x261F8, symSize: 0x3C }
  - { offset: 0x6DB83, size: 0x8, addend: 0x0, symName: __ZN4core3ops8function6FnOnce9call_once17hfa4c92a9b6405b72E, symObjAddr: 0x337C, symBinAddr: 0x26234, symSize: 0x24 }
  - { offset: 0x6DBC7, size: 0x8, addend: 0x0, symName: __ZN4core3ops8function6FnOnce9call_once17hfdb4f5a20c2e315bE, symObjAddr: 0x33A0, symBinAddr: 0x26258, symSize: 0x44 }
  - { offset: 0x6DC0B, size: 0x8, addend: 0x0, symName: __ZN4core3ops8function6FnOnce9call_once17hfe640943064fd1b1E, symObjAddr: 0x33E4, symBinAddr: 0x2629C, symSize: 0x44 }
  - { offset: 0x6DC4F, size: 0x8, addend: 0x0, symName: __ZN4core3ops8function6FnOnce9call_once17hfed4ea3122bb84b0E, symObjAddr: 0x3428, symBinAddr: 0x262E0, symSize: 0x40 }
  - { offset: 0x6DC94, size: 0x8, addend: 0x0, symName: __ZN4core3ops8function6FnOnce9call_once17hff3bd9a3f43d03faE, symObjAddr: 0x3468, symBinAddr: 0x26320, symSize: 0x3C }
  - { offset: 0x6DFB8, size: 0x8, addend: 0x0, symName: '__ZN95_$LT$core..slice..sort..stable..merge..MergeState$LT$T$GT$$u20$as$u20$core..ops..drop..Drop$GT$4drop17h1a0fa3b9b1a39c8bE', symObjAddr: 0x75C4, symBinAddr: 0x29D94, symSize: 0xD8 }
  - { offset: 0x6E0AD, size: 0x8, addend: 0x0, symName: '__ZN95_$LT$core..slice..sort..stable..merge..MergeState$LT$T$GT$$u20$as$u20$core..ops..drop..Drop$GT$4drop17h3cbdab3d119812c2E', symObjAddr: 0x769C, symBinAddr: 0x29E6C, symSize: 0xD4 }
  - { offset: 0x6E220, size: 0x8, addend: 0x0, symName: '__ZN99_$LT$core..slice..sort..shared..smallsort..CopyOnDrop$LT$T$GT$$u20$as$u20$core..ops..drop..Drop$GT$4drop17h6b90e696cffb889eE', symObjAddr: 0x77A8, symBinAddr: 0x29F40, symSize: 0x88 }
  - { offset: 0x6E281, size: 0x8, addend: 0x0, symName: '__ZN99_$LT$core..slice..sort..shared..smallsort..CopyOnDrop$LT$T$GT$$u20$as$u20$core..ops..drop..Drop$GT$4drop17hb8cd0646271c56eeE', symObjAddr: 0x7830, symBinAddr: 0x29FC8, symSize: 0x8C }
  - { offset: 0x6E628, size: 0x8, addend: 0x0, symName: '__ZN69_$LT$core..array..Guard$LT$T$GT$$u20$as$u20$core..ops..drop..Drop$GT$4drop17hb63fd61b86e57c29E', symObjAddr: 0x678C, symBinAddr: 0x29078, symSize: 0x90 }
  - { offset: 0x6E721, size: 0x8, addend: 0x0, symName: '__ZN69_$LT$core..array..Guard$LT$T$GT$$u20$as$u20$core..ops..drop..Drop$GT$4drop17hf8ae6c8110d4284cE', symObjAddr: 0x681C, symBinAddr: 0x29108, symSize: 0x90 }
  - { offset: 0x6E825, size: 0x8, addend: 0x0, symName: '__ZN84_$LT$core..array..drain..Drain$LT$T$C$_$C$F$GT$$u20$as$u20$core..ops..drop..Drop$GT$4drop17h2eab447671f1932eE', symObjAddr: 0x6F20, symBinAddr: 0x296F0, symSize: 0x14 }
  - { offset: 0x6E85F, size: 0x8, addend: 0x0, symName: '__ZN84_$LT$core..array..drain..Drain$LT$T$C$_$C$F$GT$$u20$as$u20$core..ops..drop..Drop$GT$4drop17h527cd4b53a9decc5E', symObjAddr: 0x6F34, symBinAddr: 0x29704, symSize: 0x14 }
  - { offset: 0x71E54, size: 0x8, addend: 0x0, symName: '__ZN99_$LT$regex_automata..util..pool..inner..PoolGuard$LT$T$C$F$GT$$u20$as$u20$core..ops..drop..Drop$GT$4drop17hc40122d572232ccbE', symObjAddr: 0x78BC, symBinAddr: 0x2A054, symSize: 0x10C }
  - { offset: 0x73232, size: 0x8, addend: 0x0, symName: '__ZN77_$LT$alloc..raw_vec..RawVec$LT$T$C$A$GT$$u20$as$u20$core..ops..drop..Drop$GT$4drop17h17a1ce7f47b3aaf8E', symObjAddr: 0x6C3C, symBinAddr: 0x2943C, symSize: 0x34 }
  - { offset: 0x7326E, size: 0x8, addend: 0x0, symName: '__ZN77_$LT$alloc..raw_vec..RawVec$LT$T$C$A$GT$$u20$as$u20$core..ops..drop..Drop$GT$4drop17h501980f59db1d230E', symObjAddr: 0x6C70, symBinAddr: 0x29470, symSize: 0x34 }
  - { offset: 0x732AA, size: 0x8, addend: 0x0, symName: '__ZN77_$LT$alloc..raw_vec..RawVec$LT$T$C$A$GT$$u20$as$u20$core..ops..drop..Drop$GT$4drop17hfcba1357f6477748E', symObjAddr: 0x6CD4, symBinAddr: 0x294A4, symSize: 0x34 }
  - { offset: 0x7360C, size: 0x8, addend: 0x0, symName: '__ZN157_$LT$$LT$alloc..vec..into_iter..IntoIter$LT$T$C$A$GT$$u20$as$u20$core..ops..drop..Drop$GT$..drop..DropGuard$LT$T$C$A$GT$$u20$as$u20$core..ops..drop..Drop$GT$4drop17hbd6647fee7341488E', symObjAddr: 0x0, symBinAddr: 0x22EDC, symSize: 0x6C }
  - { offset: 0x7374F, size: 0x8, addend: 0x0, symName: '__ZN157_$LT$$LT$alloc..vec..into_iter..IntoIter$LT$T$C$A$GT$$u20$as$u20$core..ops..drop..Drop$GT$..drop..DropGuard$LT$T$C$A$GT$$u20$as$u20$core..ops..drop..Drop$GT$4drop17hcc271e4fecd48fa0E', symObjAddr: 0x6C, symBinAddr: 0x22F48, symSize: 0x6C }
  - { offset: 0x738E2, size: 0x8, addend: 0x0, symName: '__ZN86_$LT$alloc..vec..into_iter..IntoIter$LT$T$C$A$GT$$u20$as$u20$core..ops..drop..Drop$GT$4drop17h4e8ad1e7476f944eE', symObjAddr: 0x6F48, symBinAddr: 0x29718, symSize: 0x78 }
  - { offset: 0x73934, size: 0x8, addend: 0x0, symName: '__ZN86_$LT$alloc..vec..into_iter..IntoIter$LT$T$C$A$GT$$u20$as$u20$core..ops..drop..Drop$GT$4drop17h9f581a8c7b95f540E', symObjAddr: 0x6FC0, symBinAddr: 0x29790, symSize: 0x64 }
  - { offset: 0x73AE1, size: 0x8, addend: 0x0, symName: '__ZN70_$LT$alloc..vec..Vec$LT$T$C$A$GT$$u20$as$u20$core..ops..drop..Drop$GT$4drop17h15408e40a61840feE', symObjAddr: 0x694C, symBinAddr: 0x29238, symSize: 0x24 }
  - { offset: 0x73B91, size: 0x8, addend: 0x0, symName: '__ZN70_$LT$alloc..vec..Vec$LT$T$C$A$GT$$u20$as$u20$core..ops..drop..Drop$GT$4drop17h4101324342fa0396E', symObjAddr: 0x6970, symBinAddr: 0x2925C, symSize: 0x38 }
  - { offset: 0x73C41, size: 0x8, addend: 0x0, symName: '__ZN70_$LT$alloc..vec..Vec$LT$T$C$A$GT$$u20$as$u20$core..ops..drop..Drop$GT$4drop17h7016c6ab9cc9b7f9E', symObjAddr: 0x69CC, symBinAddr: 0x29294, symSize: 0x38 }
  - { offset: 0x74A19, size: 0x8, addend: 0x0, symName: '__ZN69_$LT$pyo3..instance..Py$LT$T$GT$$u20$as$u20$core..ops..drop..Drop$GT$4drop17h97bd88898e7ee674E', symObjAddr: 0x68AC, symBinAddr: 0x29198, symSize: 0x28 }
  - { offset: 0x74A4C, size: 0x8, addend: 0x0, symName: '__ZN69_$LT$pyo3..instance..Py$LT$T$GT$$u20$as$u20$core..ops..drop..Drop$GT$4drop17hc1df80144ce59f44E', symObjAddr: 0x68D4, symBinAddr: 0x291C0, symSize: 0x28 }
  - { offset: 0x74A7F, size: 0x8, addend: 0x0, symName: '__ZN69_$LT$pyo3..instance..Py$LT$T$GT$$u20$as$u20$core..ops..drop..Drop$GT$4drop17he6d56519e45aba51E', symObjAddr: 0x68FC, symBinAddr: 0x291E8, symSize: 0x28 }
  - { offset: 0x74AB2, size: 0x8, addend: 0x0, symName: '__ZN69_$LT$pyo3..instance..Py$LT$T$GT$$u20$as$u20$core..ops..drop..Drop$GT$4drop17hf3345e6c412944f7E', symObjAddr: 0x6924, symBinAddr: 0x29210, symSize: 0x28 }
  - { offset: 0x74B15, size: 0x8, addend: 0x0, symName: '__ZN72_$LT$pyo3..instance..Bound$LT$T$GT$$u20$as$u20$core..ops..drop..Drop$GT$4drop17h5267edee9af3b3d6E', symObjAddr: 0x6A88, symBinAddr: 0x29350, symSize: 0x30 }
  - { offset: 0x74B66, size: 0x8, addend: 0x0, symName: '__ZN72_$LT$pyo3..instance..Bound$LT$T$GT$$u20$as$u20$core..ops..drop..Drop$GT$4drop17h580bcafd801830a3E', symObjAddr: 0x6AB8, symBinAddr: 0x29380, symSize: 0x30 }
  - { offset: 0x74BB7, size: 0x8, addend: 0x0, symName: '__ZN72_$LT$pyo3..instance..Bound$LT$T$GT$$u20$as$u20$core..ops..drop..Drop$GT$4drop17h66f174199d6cab34E', symObjAddr: 0x6AE8, symBinAddr: 0x293B0, symSize: 0x30 }
  - { offset: 0x74C08, size: 0x8, addend: 0x0, symName: '__ZN72_$LT$pyo3..instance..Bound$LT$T$GT$$u20$as$u20$core..ops..drop..Drop$GT$4drop17hf4958405ac1fe5e2E', symObjAddr: 0x6B18, symBinAddr: 0x293E0, symSize: 0x30 }
  - { offset: 0x751A2, size: 0x8, addend: 0x0, symName: '__ZN70_$LT$pyo3..pycell..PyRef$LT$T$GT$$u20$as$u20$core..ops..drop..Drop$GT$4drop17h11337d23edb20396E', symObjAddr: 0x6A04, symBinAddr: 0x292CC, symSize: 0x2C }
  - { offset: 0x751D5, size: 0x8, addend: 0x0, symName: '__ZN70_$LT$pyo3..pycell..PyRef$LT$T$GT$$u20$as$u20$core..ops..drop..Drop$GT$4drop17h4cd415993546b3c4E', symObjAddr: 0x6A30, symBinAddr: 0x292F8, symSize: 0x2C }
  - { offset: 0x75208, size: 0x8, addend: 0x0, symName: '__ZN70_$LT$pyo3..pycell..PyRef$LT$T$GT$$u20$as$u20$core..ops..drop..Drop$GT$4drop17h71b5332e768a07bcE', symObjAddr: 0x6A5C, symBinAddr: 0x29324, symSize: 0x2C }
  - { offset: 0x75241, size: 0x8, addend: 0x0, symName: '__ZN73_$LT$pyo3..pycell..PyRefMut$LT$T$GT$$u20$as$u20$core..ops..drop..Drop$GT$4drop17h5eb090a34aa5bd4dE', symObjAddr: 0x6B48, symBinAddr: 0x29410, symSize: 0x2C }
  - { offset: 0x75DED, size: 0x8, addend: 0x0, symName: '__ZN87_$LT$std..sync..poison..mutex..MutexGuard$LT$T$GT$$u20$as$u20$core..ops..drop..Drop$GT$4drop17hbbf13562b48fbbaeE', symObjAddr: 0x7024, symBinAddr: 0x297F4, symSize: 0x58 }
  - { offset: 0x75F0D, size: 0x8, addend: 0x0, symName: '__ZN93_$LT$std..sync..poison..rwlock..RwLockReadGuard$LT$T$GT$$u20$as$u20$core..ops..drop..Drop$GT$4drop17h0ba91f5614877a42E', symObjAddr: 0x70D4, symBinAddr: 0x298A4, symSize: 0x60 }
  - { offset: 0x75F78, size: 0x8, addend: 0x0, symName: '__ZN93_$LT$std..sync..poison..rwlock..RwLockReadGuard$LT$T$GT$$u20$as$u20$core..ops..drop..Drop$GT$4drop17h143246e2a70ccf99E', symObjAddr: 0x7134, symBinAddr: 0x29904, symSize: 0x60 }
  - { offset: 0x75FE3, size: 0x8, addend: 0x0, symName: '__ZN93_$LT$std..sync..poison..rwlock..RwLockReadGuard$LT$T$GT$$u20$as$u20$core..ops..drop..Drop$GT$4drop17h32c7450c4bb5d7dbE', symObjAddr: 0x7194, symBinAddr: 0x29964, symSize: 0x60 }
  - { offset: 0x7604E, size: 0x8, addend: 0x0, symName: '__ZN93_$LT$std..sync..poison..rwlock..RwLockReadGuard$LT$T$GT$$u20$as$u20$core..ops..drop..Drop$GT$4drop17h99bb1b3a1a2668e6E', symObjAddr: 0x71F4, symBinAddr: 0x299C4, symSize: 0x60 }
  - { offset: 0x760BF, size: 0x8, addend: 0x0, symName: '__ZN94_$LT$std..sync..poison..rwlock..RwLockWriteGuard$LT$T$GT$$u20$as$u20$core..ops..drop..Drop$GT$4drop17hb237f95d9efbd97aE', symObjAddr: 0x7254, symBinAddr: 0x29A24, symSize: 0xB0 }
  - { offset: 0x7616F, size: 0x8, addend: 0x0, symName: '__ZN94_$LT$std..sync..poison..rwlock..RwLockWriteGuard$LT$T$GT$$u20$as$u20$core..ops..drop..Drop$GT$4drop17hccb956f59d5fb89fE', symObjAddr: 0x7304, symBinAddr: 0x29AD4, symSize: 0xB0 }
  - { offset: 0x7621F, size: 0x8, addend: 0x0, symName: '__ZN94_$LT$std..sync..poison..rwlock..RwLockWriteGuard$LT$T$GT$$u20$as$u20$core..ops..drop..Drop$GT$4drop17he52b41964f6c84e7E', symObjAddr: 0x73B4, symBinAddr: 0x29B84, symSize: 0xB0 }
  - { offset: 0x762CF, size: 0x8, addend: 0x0, symName: '__ZN94_$LT$std..sync..poison..rwlock..RwLockWriteGuard$LT$T$GT$$u20$as$u20$core..ops..drop..Drop$GT$4drop17he7be84c8e393a20bE', symObjAddr: 0x7464, symBinAddr: 0x29C34, symSize: 0xB0 }
  - { offset: 0x7637F, size: 0x8, addend: 0x0, symName: '__ZN94_$LT$std..sync..poison..rwlock..RwLockWriteGuard$LT$T$GT$$u20$as$u20$core..ops..drop..Drop$GT$4drop17hef90f73945784b09E', symObjAddr: 0x7514, symBinAddr: 0x29CE4, symSize: 0xB0 }
  - { offset: 0x76B4F, size: 0x8, addend: 0x0, symName: '__ZN79_$LT$hashbrown..raw..RawTable$LT$T$C$A$GT$$u20$as$u20$core..ops..drop..Drop$GT$4drop17h1a95fd436183f7d6E', symObjAddr: 0x6D08, symBinAddr: 0x294D8, symSize: 0x3C }
  - { offset: 0x76B8B, size: 0x8, addend: 0x0, symName: '__ZN79_$LT$hashbrown..raw..RawTable$LT$T$C$A$GT$$u20$as$u20$core..ops..drop..Drop$GT$4drop17h22382822c69ac583E', symObjAddr: 0x6D44, symBinAddr: 0x29514, symSize: 0x3C }
  - { offset: 0x76BC7, size: 0x8, addend: 0x0, symName: '__ZN79_$LT$hashbrown..raw..RawTable$LT$T$C$A$GT$$u20$as$u20$core..ops..drop..Drop$GT$4drop17h62e8156bdfd7fbd8E', symObjAddr: 0x6D80, symBinAddr: 0x29550, symSize: 0x3C }
  - { offset: 0x76C03, size: 0x8, addend: 0x0, symName: '__ZN79_$LT$hashbrown..raw..RawTable$LT$T$C$A$GT$$u20$as$u20$core..ops..drop..Drop$GT$4drop17h7fc04926ed155d21E', symObjAddr: 0x6DBC, symBinAddr: 0x2958C, symSize: 0x3C }
  - { offset: 0x76C3F, size: 0x8, addend: 0x0, symName: '__ZN79_$LT$hashbrown..raw..RawTable$LT$T$C$A$GT$$u20$as$u20$core..ops..drop..Drop$GT$4drop17h9876e84780df7c9dE', symObjAddr: 0x6DF8, symBinAddr: 0x295C8, symSize: 0x3C }
  - { offset: 0x76C7B, size: 0x8, addend: 0x0, symName: '__ZN79_$LT$hashbrown..raw..RawTable$LT$T$C$A$GT$$u20$as$u20$core..ops..drop..Drop$GT$4drop17ha05cf2106421c3ebE', symObjAddr: 0x6E34, symBinAddr: 0x29604, symSize: 0x3C }
  - { offset: 0x76CB7, size: 0x8, addend: 0x0, symName: '__ZN79_$LT$hashbrown..raw..RawTable$LT$T$C$A$GT$$u20$as$u20$core..ops..drop..Drop$GT$4drop17hc94819fa2d466392E', symObjAddr: 0x6E70, symBinAddr: 0x29640, symSize: 0x3C }
  - { offset: 0x76CF9, size: 0x8, addend: 0x0, symName: '__ZN82_$LT$hashbrown..raw..RawIntoIter$LT$T$C$A$GT$$u20$as$u20$core..ops..drop..Drop$GT$4drop17hbdf414d130caae93E', symObjAddr: 0x6EAC, symBinAddr: 0x2967C, symSize: 0x74 }
  - { offset: 0x7734E, size: 0x8, addend: 0x0, symName: '__ZN88_$LT$hashbrown..scopeguard..ScopeGuard$LT$T$C$F$GT$$u20$as$u20$core..ops..drop..Drop$GT$4drop17h81aadcf7a0550984E', symObjAddr: 0x707C, symBinAddr: 0x2984C, symSize: 0x2C }
  - { offset: 0x77388, size: 0x8, addend: 0x0, symName: '__ZN88_$LT$hashbrown..scopeguard..ScopeGuard$LT$T$C$F$GT$$u20$as$u20$core..ops..drop..Drop$GT$4drop17hc0424d4ebbae3525E', symObjAddr: 0x70A8, symBinAddr: 0x29878, symSize: 0x2C }
  - { offset: 0x7A4C7, size: 0x8, addend: 0x0, symName: '__ZN100_$LT$core..iter..adapters..take..Take$LT$I$GT$$u20$as$u20$core..iter..traits..iterator..Iterator$GT$4next17h714f14fad0a7f84cE', symObjAddr: 0x0, symBinAddr: 0x2A160, symSize: 0x58 }
  - { offset: 0x7A554, size: 0x8, addend: 0x0, symName: '__ZN100_$LT$core..iter..adapters..take..Take$LT$I$GT$$u20$as$u20$core..iter..traits..iterator..Iterator$GT$4next17h714f14fad0a7f84cE', symObjAddr: 0x0, symBinAddr: 0x2A160, symSize: 0x58 }
  - { offset: 0x7A589, size: 0x8, addend: 0x0, symName: '__ZN100_$LT$core..iter..adapters..take..Take$LT$I$GT$$u20$as$u20$core..iter..traits..iterator..Iterator$GT$8try_fold17h5014012525d91c7dE', symObjAddr: 0x58, symBinAddr: 0x2A1B8, symSize: 0x100 }
  - { offset: 0x7A641, size: 0x8, addend: 0x0, symName: '__ZN100_$LT$core..iter..adapters..take..Take$LT$I$GT$$u20$as$u20$core..iter..traits..iterator..Iterator$GT$8try_fold17h82e5dc41537782eaE', symObjAddr: 0x158, symBinAddr: 0x2A2B8, symSize: 0x100 }
  - { offset: 0x7A6F9, size: 0x8, addend: 0x0, symName: '__ZN100_$LT$core..iter..adapters..take..Take$LT$I$GT$$u20$as$u20$core..iter..traits..iterator..Iterator$GT$8try_fold17hb71ed1f661f36934E', symObjAddr: 0x258, symBinAddr: 0x2A3B8, symSize: 0x100 }
  - { offset: 0x7A7B1, size: 0x8, addend: 0x0, symName: '__ZN100_$LT$core..iter..adapters..take..Take$LT$I$GT$$u20$as$u20$core..iter..traits..iterator..Iterator$GT$8try_fold17hdb66dd624de4fd90E', symObjAddr: 0x358, symBinAddr: 0x2A4B8, symSize: 0x100 }
  - { offset: 0x7A873, size: 0x8, addend: 0x0, symName: '__ZN100_$LT$core..iter..adapters..take..Take$LT$I$GT$$u20$as$u20$core..iter..traits..iterator..Iterator$GT$8try_fold5check28_$u7b$$u7b$closure$u7d$$u7d$17h1231f4d5c324275fE', symObjAddr: 0x458, symBinAddr: 0x2A5B8, symSize: 0x138 }
  - { offset: 0x7A95B, size: 0x8, addend: 0x0, symName: '__ZN100_$LT$core..iter..adapters..take..Take$LT$I$GT$$u20$as$u20$core..iter..traits..iterator..Iterator$GT$8try_fold5check28_$u7b$$u7b$closure$u7d$$u7d$17h37af2994c5bf2fcfE', symObjAddr: 0x590, symBinAddr: 0x2A6F0, symSize: 0x138 }
  - { offset: 0x7AA43, size: 0x8, addend: 0x0, symName: '__ZN100_$LT$core..iter..adapters..take..Take$LT$I$GT$$u20$as$u20$core..iter..traits..iterator..Iterator$GT$8try_fold5check28_$u7b$$u7b$closure$u7d$$u7d$17h3a1a475d016e405bE', symObjAddr: 0x6C8, symBinAddr: 0x2A828, symSize: 0x138 }
  - { offset: 0x7AB2B, size: 0x8, addend: 0x0, symName: '__ZN100_$LT$core..iter..adapters..take..Take$LT$I$GT$$u20$as$u20$core..iter..traits..iterator..Iterator$GT$8try_fold5check28_$u7b$$u7b$closure$u7d$$u7d$17h3db62f0175728857E', symObjAddr: 0x800, symBinAddr: 0x2A960, symSize: 0x138 }
  - { offset: 0x7AE19, size: 0x8, addend: 0x0, symName: __ZN4core4iter6traits8iterator8Iterator9enumerate17h47f5b39ba9e51135E, symObjAddr: 0x938, symBinAddr: 0x2AA98, symSize: 0x18 }
  - { offset: 0x7AE4A, size: 0x8, addend: 0x0, symName: __ZN4core4iter6traits8iterator8Iterator9enumerate17h47f5b39ba9e51135E, symObjAddr: 0x938, symBinAddr: 0x2AA98, symSize: 0x18 }
  - { offset: 0x7C23C, size: 0x8, addend: 0x0, symName: '__ZN49_$LT$F$u20$as$u20$core..str..pattern..Pattern$GT$13into_searcher17h465ce591c7e3ebc1E', symObjAddr: 0x0, symBinAddr: 0x2AAB0, symSize: 0x48 }
  - { offset: 0x7C25D, size: 0x8, addend: 0x0, symName: '__ZN49_$LT$F$u20$as$u20$core..str..pattern..Pattern$GT$13into_searcher17h465ce591c7e3ebc1E', symObjAddr: 0x0, symBinAddr: 0x2AAB0, symSize: 0x48 }
  - { offset: 0x7C2A9, size: 0x8, addend: 0x0, symName: '__ZN53_$LT$F$u20$as$u20$core..str..pattern..MultiCharEq$GT$7matches17h9f9bdf551fac26d1E', symObjAddr: 0x48, symBinAddr: 0x2AAF8, symSize: 0x28 }
  - { offset: 0x7C4E0, size: 0x8, addend: 0x0, symName: '__ZN9_translit8filename18_sanitize_filename28_$u7b$$u7b$closure$u7d$$u7d$17h39c7ca9758105b0dE', symObjAddr: 0x70, symBinAddr: 0x2AB20, symSize: 0x30 }
  - { offset: 0x7C51D, size: 0x8, addend: 0x0, symName: '__ZN9_translit8filename18_sanitize_filename28_$u7b$$u7b$closure$u7d$$u7d$17h5f99cc69c4c7b206E', symObjAddr: 0xA0, symBinAddr: 0x2AB50, symSize: 0x1E4 }
  - { offset: 0x7C59A, size: 0x8, addend: 0x0, symName: '__ZN9_translit8filename18_sanitize_filename28_$u7b$$u7b$closure$u7d$$u7d$17h774f8800389fe5f1E', symObjAddr: 0x284, symBinAddr: 0x2AD34, symSize: 0x4C }
  - { offset: 0x7C5D0, size: 0x8, addend: 0x0, symName: '__ZN9_translit8filename18_sanitize_filename28_$u7b$$u7b$closure$u7d$$u7d$17hd1912b3d6cb9b144E', symObjAddr: 0x2D0, symBinAddr: 0x2AD80, symSize: 0x30 }
  - { offset: 0x7C61A, size: 0x8, addend: 0x0, symName: '__ZN9_translit8filename31__pyfunction__sanitize_filename28_$u7b$$u7b$closure$u7d$$u7d$17h10b5242cfd7c1b7aE', symObjAddr: 0x300, symBinAddr: 0x2ADB0, symSize: 0x18 }
  - { offset: 0x7C642, size: 0x8, addend: 0x0, symName: '__ZN9_translit8filename31__pyfunction__sanitize_filename28_$u7b$$u7b$closure$u7d$$u7d$17h465a4b3dbdebb6c6E', symObjAddr: 0x318, symBinAddr: 0x2ADC8, symSize: 0x20 }
  - { offset: 0x7C66A, size: 0x8, addend: 0x0, symName: '__ZN9_translit8filename31__pyfunction__sanitize_filename28_$u7b$$u7b$closure$u7d$$u7d$17hb1e04342ac87fc90E', symObjAddr: 0x338, symBinAddr: 0x2ADE8, symSize: 0x18 }
  - { offset: 0x7C692, size: 0x8, addend: 0x0, symName: '__ZN9_translit8filename31__pyfunction__sanitize_filename28_$u7b$$u7b$closure$u7d$$u7d$17hd8ad65fe23db1a93E', symObjAddr: 0x350, symBinAddr: 0x2AE00, symSize: 0x24 }
  - { offset: 0x7C6BA, size: 0x8, addend: 0x0, symName: '__ZN9_translit8filename31__pyfunction__sanitize_filename28_$u7b$$u7b$closure$u7d$$u7d$17hdf7be79b43247553E', symObjAddr: 0x374, symBinAddr: 0x2AE24, symSize: 0x20 }
  - { offset: 0x7C8C9, size: 0x8, addend: 0x0, symName: '__ZN4core3ops8function5impls79_$LT$impl$u20$core..ops..function..FnMut$LT$A$GT$$u20$for$u20$$RF$mut$u20$F$GT$8call_mut17h91f984fde4c2c483E', symObjAddr: 0x0, symBinAddr: 0x2AE44, symSize: 0x30 }
  - { offset: 0x7D16D, size: 0x8, addend: 0x0, symName: '__ZN4core3ops8function5impls79_$LT$impl$u20$core..ops..function..FnMut$LT$A$GT$$u20$for$u20$$RF$mut$u20$F$GT$8call_mut17h91f984fde4c2c483E', symObjAddr: 0x0, symBinAddr: 0x2AE44, symSize: 0x30 }
  - { offset: 0x7D1CA, size: 0x8, addend: 0x0, symName: '__ZN50_$LT$T$u20$as$u20$core..convert..Into$LT$U$GT$$GT$4into17h3dff82cb276b4c50E', symObjAddr: 0x1C0, symBinAddr: 0x2B004, symSize: 0x14 }
  - { offset: 0x7D20B, size: 0x8, addend: 0x0, symName: '__ZN50_$LT$T$u20$as$u20$core..convert..Into$LT$U$GT$$GT$4into17hdb100dd3086f1effE', symObjAddr: 0x1D4, symBinAddr: 0x2B018, symSize: 0x14 }
  - { offset: 0x7E617, size: 0x8, addend: 0x0, symName: __ZN4pyo311type_object10PyTypeInfo10is_type_of17h0d61052716c7baefE, symObjAddr: 0x30, symBinAddr: 0x2AE74, symSize: 0x50 }
  - { offset: 0x7E64C, size: 0x8, addend: 0x0, symName: __ZN4pyo311type_object10PyTypeInfo10is_type_of17h3fc440cb9bb3a21eE, symObjAddr: 0x80, symBinAddr: 0x2AEC4, symSize: 0x50 }
  - { offset: 0x7E687, size: 0x8, addend: 0x0, symName: '__ZN52_$LT$T$u20$as$u20$pyo3..type_object..PyTypeCheck$GT$10type_check17hcdc3a457119ad58eE', symObjAddr: 0x1E8, symBinAddr: 0x2B02C, symSize: 0x24 }
  - { offset: 0x7E6BC, size: 0x8, addend: 0x0, symName: '__ZN52_$LT$T$u20$as$u20$pyo3..type_object..PyTypeCheck$GT$10type_check17hea5845c113105a29E', symObjAddr: 0x20C, symBinAddr: 0x2B050, symSize: 0x24 }
  - { offset: 0x7E6FD, size: 0x8, addend: 0x0, symName: '__ZN4pyo312pyclass_init130_$LT$impl$u20$pyo3..impl_..callback..IntoPyCallbackOutput$LT$pyo3..pyclass_init..PyClassInitializer$LT$T$GT$$GT$$u20$for$u20$U$GT$7convert17h0339989b94cd9019E', symObjAddr: 0xD0, symBinAddr: 0x2AF14, symSize: 0x68 }
  - { offset: 0x7E75B, size: 0x8, addend: 0x0, symName: '__ZN4pyo312pyclass_init130_$LT$impl$u20$pyo3..impl_..callback..IntoPyCallbackOutput$LT$pyo3..pyclass_init..PyClassInitializer$LT$T$GT$$GT$$u20$for$u20$U$GT$7convert17h380d2e5bcd42f8bbE', symObjAddr: 0x138, symBinAddr: 0x2AF7C, symSize: 0x68 }
  - { offset: 0x7E906, size: 0x8, addend: 0x0, symName: __ZN4pyo35impl_7pyclass11PyClassImpl11dict_offset17h422131fd1796b3e6E, symObjAddr: 0x1A0, symBinAddr: 0x2AFE4, symSize: 0x8 }
  - { offset: 0x7E92D, size: 0x8, addend: 0x0, symName: __ZN4pyo35impl_7pyclass11PyClassImpl11dict_offset17hdf22dd0a80a43f16E, symObjAddr: 0x1A8, symBinAddr: 0x2AFEC, symSize: 0x8 }
  - { offset: 0x7E954, size: 0x8, addend: 0x0, symName: __ZN4pyo35impl_7pyclass11PyClassImpl15weaklist_offset17h346bf5f964f4d70cE, symObjAddr: 0x1B0, symBinAddr: 0x2AFF4, symSize: 0x8 }
  - { offset: 0x7E97B, size: 0x8, addend: 0x0, symName: __ZN4pyo35impl_7pyclass11PyClassImpl15weaklist_offset17hfea97d2add5d9094E, symObjAddr: 0x1B8, symBinAddr: 0x2AFFC, symSize: 0x8 }
  - { offset: 0x7ED18, size: 0x8, addend: 0x0, symName: '__ZN84_$LT$_translit..slugify.._Slugifier$u20$as$u20$pyo3..impl_..pyclass..PyClassImpl$GT$3doc28_$u7b$$u7b$closure$u7d$$u7d$17h97d2264182664989E', symObjAddr: 0x230, symBinAddr: 0x2B074, symSize: 0x54 }
  - { offset: 0x7ED73, size: 0x8, addend: 0x0, symName: '__ZN90_$LT$_translit..slugify.._UniqueSlugifier$u20$as$u20$pyo3..impl_..pyclass..PyClassImpl$GT$3doc28_$u7b$$u7b$closure$u7d$$u7d$17hecf861d1b6dcec42E', symObjAddr: 0x284, symBinAddr: 0x2B0C8, symSize: 0x54 }
  - { offset: 0x7EDCE, size: 0x8, addend: 0x0, symName: '__ZN9_translit7slugify10_Slugifier20__pymethod___new____28_$u7b$$u7b$closure$u7d$$u7d$17h0778ac34fc9ae762E', symObjAddr: 0x2D8, symBinAddr: 0x2B11C, symSize: 0x24 }
  - { offset: 0x7EDF8, size: 0x8, addend: 0x0, symName: '__ZN9_translit7slugify10_Slugifier20__pymethod___new____28_$u7b$$u7b$closure$u7d$$u7d$17h195785fc66f8fb8eE', symObjAddr: 0x2FC, symBinAddr: 0x2B140, symSize: 0x18 }
  - { offset: 0x7EE22, size: 0x8, addend: 0x0, symName: '__ZN9_translit7slugify10_Slugifier20__pymethod___new____28_$u7b$$u7b$closure$u7d$$u7d$17h200f77ee021590dfE', symObjAddr: 0x314, symBinAddr: 0x2B158, symSize: 0x20 }
  - { offset: 0x7EE4C, size: 0x8, addend: 0x0, symName: '__ZN9_translit7slugify10_Slugifier20__pymethod___new____28_$u7b$$u7b$closure$u7d$$u7d$17h43a5de475eba2ff8E', symObjAddr: 0x334, symBinAddr: 0x2B178, symSize: 0x20 }
  - { offset: 0x7EE76, size: 0x8, addend: 0x0, symName: '__ZN9_translit7slugify10_Slugifier20__pymethod___new____28_$u7b$$u7b$closure$u7d$$u7d$17h4fd79478f2de302aE', symObjAddr: 0x354, symBinAddr: 0x2B198, symSize: 0x18 }
  - { offset: 0x7EEA0, size: 0x8, addend: 0x0, symName: '__ZN9_translit7slugify10_Slugifier20__pymethod___new____28_$u7b$$u7b$closure$u7d$$u7d$17h8dea97a5812bd331E', symObjAddr: 0x36C, symBinAddr: 0x2B1B0, symSize: 0x14 }
  - { offset: 0x7EECA, size: 0x8, addend: 0x0, symName: '__ZN9_translit7slugify10_Slugifier20__pymethod___new____28_$u7b$$u7b$closure$u7d$$u7d$17h9c375556d856f463E', symObjAddr: 0x380, symBinAddr: 0x2B1C4, symSize: 0x18 }
  - { offset: 0x7EEF4, size: 0x8, addend: 0x0, symName: '__ZN9_translit7slugify10_Slugifier20__pymethod___new____28_$u7b$$u7b$closure$u7d$$u7d$17had093fb32103e6eaE', symObjAddr: 0x398, symBinAddr: 0x2B1DC, symSize: 0x18 }
  - { offset: 0x7EF1E, size: 0x8, addend: 0x0, symName: '__ZN9_translit7slugify10_Slugifier20__pymethod___new____28_$u7b$$u7b$closure$u7d$$u7d$17hd03011baf9b354b8E', symObjAddr: 0x3B0, symBinAddr: 0x2B1F4, symSize: 0x18 }
  - { offset: 0x7EF48, size: 0x8, addend: 0x0, symName: '__ZN9_translit7slugify10_Slugifier20__pymethod___new____28_$u7b$$u7b$closure$u7d$$u7d$17hd6fc3cf3f3c43616E', symObjAddr: 0x3C8, symBinAddr: 0x2B20C, symSize: 0x18 }
  - { offset: 0x7EF72, size: 0x8, addend: 0x0, symName: '__ZN9_translit7slugify10_Slugifier20__pymethod___new____28_$u7b$$u7b$closure$u7d$$u7d$17hdaa6e76e7670cfbbE', symObjAddr: 0x3E0, symBinAddr: 0x2B224, symSize: 0x24 }
  - { offset: 0x7EF9C, size: 0x8, addend: 0x0, symName: '__ZN9_translit7slugify10_Slugifier20__pymethod___new____28_$u7b$$u7b$closure$u7d$$u7d$17he67b70e6e34aebdbE', symObjAddr: 0x404, symBinAddr: 0x2B248, symSize: 0x20 }
  - { offset: 0x7EFC6, size: 0x8, addend: 0x0, symName: '__ZN9_translit7slugify10_Slugifier20__pymethod___new____28_$u7b$$u7b$closure$u7d$$u7d$17hf528d7fd9e966908E', symObjAddr: 0x424, symBinAddr: 0x2B268, symSize: 0x18 }
  - { offset: 0x7F057, size: 0x8, addend: 0x0, symName: '__ZN9_translit7slugify10_Slugifier3new28_$u7b$$u7b$closure$u7d$$u7d$17h081979ff8acc1727E', symObjAddr: 0x43C, symBinAddr: 0x2B280, symSize: 0x28 }
  - { offset: 0x7F090, size: 0x8, addend: 0x0, symName: '__ZN9_translit7slugify10_Slugifier3new28_$u7b$$u7b$closure$u7d$$u7d$17h454e2f7a144bd738E', symObjAddr: 0x464, symBinAddr: 0x2B2A8, symSize: 0xBC }
  - { offset: 0x7F131, size: 0x8, addend: 0x0, symName: '__ZN9_translit7slugify12slugify_impl28_$u7b$$u7b$closure$u7d$$u7d$17h4712190eb4e12d21E', symObjAddr: 0x520, symBinAddr: 0x2B364, symSize: 0x34 }
  - { offset: 0x7F187, size: 0x8, addend: 0x0, symName: '__ZN9_translit7slugify14_slugify_batch28_$u7b$$u7b$closure$u7d$$u7d$17hbeca9007f100f656E', symObjAddr: 0x554, symBinAddr: 0x2B398, symSize: 0x48 }
  - { offset: 0x7F1C7, size: 0x8, addend: 0x0, symName: '__ZN9_translit7slugify14_slugify_batch28_$u7b$$u7b$closure$u7d$$u7d$17hc9aca5ff6b1de283E', symObjAddr: 0x59C, symBinAddr: 0x2B3E0, symSize: 0xBC }
  - { offset: 0x7F265, size: 0x8, addend: 0x0, symName: '__ZN9_translit7slugify16_UniqueSlugifier20__pymethod___new____28_$u7b$$u7b$closure$u7d$$u7d$17h59d79b137b095f4aE', symObjAddr: 0x658, symBinAddr: 0x2B49C, symSize: 0x20 }
  - { offset: 0x7F28F, size: 0x8, addend: 0x0, symName: '__ZN9_translit7slugify16_UniqueSlugifier20__pymethod___new____28_$u7b$$u7b$closure$u7d$$u7d$17h5dc0fe42905c5991E', symObjAddr: 0x678, symBinAddr: 0x2B4BC, symSize: 0x24 }
  - { offset: 0x7F2B9, size: 0x8, addend: 0x0, symName: '__ZN9_translit7slugify16_UniqueSlugifier20__pymethod___new____28_$u7b$$u7b$closure$u7d$$u7d$17h7014ffc26e937832E', symObjAddr: 0x69C, symBinAddr: 0x2B4E0, symSize: 0x18 }
  - { offset: 0x7F2E3, size: 0x8, addend: 0x0, symName: '__ZN9_translit7slugify16_UniqueSlugifier20__pymethod___new____28_$u7b$$u7b$closure$u7d$$u7d$17h76526cfc29b4f46dE', symObjAddr: 0x6B4, symBinAddr: 0x2B4F8, symSize: 0x24 }
  - { offset: 0x7F30D, size: 0x8, addend: 0x0, symName: '__ZN9_translit7slugify16_UniqueSlugifier20__pymethod___new____28_$u7b$$u7b$closure$u7d$$u7d$17h8699ad6f4c5c155bE', symObjAddr: 0x6D8, symBinAddr: 0x2B51C, symSize: 0x20 }
  - { offset: 0x7F337, size: 0x8, addend: 0x0, symName: '__ZN9_translit7slugify16_UniqueSlugifier20__pymethod___new____28_$u7b$$u7b$closure$u7d$$u7d$17h8f5a9b08d116fde1E', symObjAddr: 0x6F8, symBinAddr: 0x2B53C, symSize: 0x18 }
  - { offset: 0x7F361, size: 0x8, addend: 0x0, symName: '__ZN9_translit7slugify16_UniqueSlugifier20__pymethod___new____28_$u7b$$u7b$closure$u7d$$u7d$17h942ec42e31ee3d4cE', symObjAddr: 0x710, symBinAddr: 0x2B554, symSize: 0x18 }
  - { offset: 0x7F38B, size: 0x8, addend: 0x0, symName: '__ZN9_translit7slugify16_UniqueSlugifier20__pymethod___new____28_$u7b$$u7b$closure$u7d$$u7d$17h989267b79b24efbdE', symObjAddr: 0x728, symBinAddr: 0x2B56C, symSize: 0x18 }
  - { offset: 0x7F3B5, size: 0x8, addend: 0x0, symName: '__ZN9_translit7slugify16_UniqueSlugifier20__pymethod___new____28_$u7b$$u7b$closure$u7d$$u7d$17haa4145bcc5515f79E', symObjAddr: 0x740, symBinAddr: 0x2B584, symSize: 0x14 }
  - { offset: 0x7F3DF, size: 0x8, addend: 0x0, symName: '__ZN9_translit7slugify16_UniqueSlugifier20__pymethod___new____28_$u7b$$u7b$closure$u7d$$u7d$17hc2f1aac24ca735daE', symObjAddr: 0x754, symBinAddr: 0x2B598, symSize: 0x24 }
  - { offset: 0x7F409, size: 0x8, addend: 0x0, symName: '__ZN9_translit7slugify16_UniqueSlugifier20__pymethod___new____28_$u7b$$u7b$closure$u7d$$u7d$17hd3f998d7156175d5E', symObjAddr: 0x778, symBinAddr: 0x2B5BC, symSize: 0x18 }
  - { offset: 0x7F433, size: 0x8, addend: 0x0, symName: '__ZN9_translit7slugify16_UniqueSlugifier20__pymethod___new____28_$u7b$$u7b$closure$u7d$$u7d$17hd4431105c7317dbfE', symObjAddr: 0x790, symBinAddr: 0x2B5D4, symSize: 0x18 }
  - { offset: 0x7F45D, size: 0x8, addend: 0x0, symName: '__ZN9_translit7slugify16_UniqueSlugifier20__pymethod___new____28_$u7b$$u7b$closure$u7d$$u7d$17hf414473392022568E', symObjAddr: 0x7A8, symBinAddr: 0x2B5EC, symSize: 0x20 }
  - { offset: 0x7F487, size: 0x8, addend: 0x0, symName: '__ZN9_translit7slugify16_UniqueSlugifier20__pymethod___new____28_$u7b$$u7b$closure$u7d$$u7d$17hf61d22edb2dae175E', symObjAddr: 0x7C8, symBinAddr: 0x2B60C, symSize: 0x18 }
  - { offset: 0x7F51A, size: 0x8, addend: 0x0, symName: '__ZN9_translit7slugify21__pyfunction__slugify28_$u7b$$u7b$closure$u7d$$u7d$17h05c528cbef43534fE', symObjAddr: 0x7E0, symBinAddr: 0x2B624, symSize: 0x20 }
  - { offset: 0x7F542, size: 0x8, addend: 0x0, symName: '__ZN9_translit7slugify21__pyfunction__slugify28_$u7b$$u7b$closure$u7d$$u7d$17h1cedc3276a890075E', symObjAddr: 0x800, symBinAddr: 0x2B644, symSize: 0x18 }
  - { offset: 0x7F56A, size: 0x8, addend: 0x0, symName: '__ZN9_translit7slugify21__pyfunction__slugify28_$u7b$$u7b$closure$u7d$$u7d$17h1cfb73cb65142fc0E', symObjAddr: 0x818, symBinAddr: 0x2B65C, symSize: 0x20 }
  - { offset: 0x7F592, size: 0x8, addend: 0x0, symName: '__ZN9_translit7slugify21__pyfunction__slugify28_$u7b$$u7b$closure$u7d$$u7d$17h2622756405d1f6ccE', symObjAddr: 0x838, symBinAddr: 0x2B67C, symSize: 0x18 }
  - { offset: 0x7F5BA, size: 0x8, addend: 0x0, symName: '__ZN9_translit7slugify21__pyfunction__slugify28_$u7b$$u7b$closure$u7d$$u7d$17h2bc90c966c02c6beE', symObjAddr: 0x850, symBinAddr: 0x2B694, symSize: 0x18 }
  - { offset: 0x7F5E2, size: 0x8, addend: 0x0, symName: '__ZN9_translit7slugify21__pyfunction__slugify28_$u7b$$u7b$closure$u7d$$u7d$17h636d708daf214589E', symObjAddr: 0x868, symBinAddr: 0x2B6AC, symSize: 0x18 }
  - { offset: 0x7F60A, size: 0x8, addend: 0x0, symName: '__ZN9_translit7slugify21__pyfunction__slugify28_$u7b$$u7b$closure$u7d$$u7d$17h6b9decda2a7d9635E', symObjAddr: 0x880, symBinAddr: 0x2B6C4, symSize: 0x20 }
  - { offset: 0x7F632, size: 0x8, addend: 0x0, symName: '__ZN9_translit7slugify21__pyfunction__slugify28_$u7b$$u7b$closure$u7d$$u7d$17h850d36b1dff202d4E', symObjAddr: 0x8A0, symBinAddr: 0x2B6E4, symSize: 0x24 }
  - { offset: 0x7F65A, size: 0x8, addend: 0x0, symName: '__ZN9_translit7slugify21__pyfunction__slugify28_$u7b$$u7b$closure$u7d$$u7d$17h885f0ad75d6ee675E', symObjAddr: 0x8C4, symBinAddr: 0x2B708, symSize: 0x18 }
  - { offset: 0x7F682, size: 0x8, addend: 0x0, symName: '__ZN9_translit7slugify21__pyfunction__slugify28_$u7b$$u7b$closure$u7d$$u7d$17h8aa8c5c9f8a1406dE', symObjAddr: 0x8DC, symBinAddr: 0x2B720, symSize: 0x18 }
  - { offset: 0x7F6AA, size: 0x8, addend: 0x0, symName: '__ZN9_translit7slugify21__pyfunction__slugify28_$u7b$$u7b$closure$u7d$$u7d$17h9aaf3e2946ac5a0cE', symObjAddr: 0x8F4, symBinAddr: 0x2B738, symSize: 0x18 }
  - { offset: 0x7F6D2, size: 0x8, addend: 0x0, symName: '__ZN9_translit7slugify21__pyfunction__slugify28_$u7b$$u7b$closure$u7d$$u7d$17hb2b5ff962db649c5E', symObjAddr: 0x90C, symBinAddr: 0x2B750, symSize: 0x24 }
  - { offset: 0x7F6FA, size: 0x8, addend: 0x0, symName: '__ZN9_translit7slugify21__pyfunction__slugify28_$u7b$$u7b$closure$u7d$$u7d$17hf0d1ed3c8a948b61E', symObjAddr: 0x930, symBinAddr: 0x2B774, symSize: 0x14 }
  - { offset: 0x7F783, size: 0x8, addend: 0x0, symName: '__ZN9_translit7slugify27__pyfunction__slugify_batch28_$u7b$$u7b$closure$u7d$$u7d$17h158b10c7921ff2b0E', symObjAddr: 0x944, symBinAddr: 0x2B788, symSize: 0x18 }
  - { offset: 0x7F7AD, size: 0x8, addend: 0x0, symName: '__ZN9_translit7slugify27__pyfunction__slugify_batch28_$u7b$$u7b$closure$u7d$$u7d$17h1d0a6a2439c447cdE', symObjAddr: 0x95C, symBinAddr: 0x2B7A0, symSize: 0x18 }
  - { offset: 0x7F7D7, size: 0x8, addend: 0x0, symName: '__ZN9_translit7slugify27__pyfunction__slugify_batch28_$u7b$$u7b$closure$u7d$$u7d$17h20f6c109a42f9267E', symObjAddr: 0x974, symBinAddr: 0x2B7B8, symSize: 0x18 }
  - { offset: 0x7F801, size: 0x8, addend: 0x0, symName: '__ZN9_translit7slugify27__pyfunction__slugify_batch28_$u7b$$u7b$closure$u7d$$u7d$17h34f250e307c8f488E', symObjAddr: 0x98C, symBinAddr: 0x2B7D0, symSize: 0x18 }
  - { offset: 0x7F82B, size: 0x8, addend: 0x0, symName: '__ZN9_translit7slugify27__pyfunction__slugify_batch28_$u7b$$u7b$closure$u7d$$u7d$17h4a7e6ed84c3d764cE', symObjAddr: 0x9A4, symBinAddr: 0x2B7E8, symSize: 0x18 }
  - { offset: 0x7F855, size: 0x8, addend: 0x0, symName: '__ZN9_translit7slugify27__pyfunction__slugify_batch28_$u7b$$u7b$closure$u7d$$u7d$17h504d7c086217fdb2E', symObjAddr: 0x9BC, symBinAddr: 0x2B800, symSize: 0x18 }
  - { offset: 0x7F87F, size: 0x8, addend: 0x0, symName: '__ZN9_translit7slugify27__pyfunction__slugify_batch28_$u7b$$u7b$closure$u7d$$u7d$17h5c215967e8e4bd81E', symObjAddr: 0x9D4, symBinAddr: 0x2B818, symSize: 0x20 }
  - { offset: 0x7F8A9, size: 0x8, addend: 0x0, symName: '__ZN9_translit7slugify27__pyfunction__slugify_batch28_$u7b$$u7b$closure$u7d$$u7d$17h7d987ee10988cfebE', symObjAddr: 0x9F4, symBinAddr: 0x2B838, symSize: 0x24 }
  - { offset: 0x7F8D3, size: 0x8, addend: 0x0, symName: '__ZN9_translit7slugify27__pyfunction__slugify_batch28_$u7b$$u7b$closure$u7d$$u7d$17h8ee57c67e0b3d13bE', symObjAddr: 0xA18, symBinAddr: 0x2B85C, symSize: 0x20 }
  - { offset: 0x7F8FD, size: 0x8, addend: 0x0, symName: '__ZN9_translit7slugify27__pyfunction__slugify_batch28_$u7b$$u7b$closure$u7d$$u7d$17h92e1c3593a5425c2E', symObjAddr: 0xA38, symBinAddr: 0x2B87C, symSize: 0x14 }
  - { offset: 0x7F927, size: 0x8, addend: 0x0, symName: '__ZN9_translit7slugify27__pyfunction__slugify_batch28_$u7b$$u7b$closure$u7d$$u7d$17hb37a4118818146c0E', symObjAddr: 0xA4C, symBinAddr: 0x2B890, symSize: 0x20 }
  - { offset: 0x7F951, size: 0x8, addend: 0x0, symName: '__ZN9_translit7slugify27__pyfunction__slugify_batch28_$u7b$$u7b$closure$u7d$$u7d$17hcdd8d8c1456ef243E', symObjAddr: 0xA6C, symBinAddr: 0x2B8B0, symSize: 0x24 }
  - { offset: 0x7F97B, size: 0x8, addend: 0x0, symName: '__ZN9_translit7slugify27__pyfunction__slugify_batch28_$u7b$$u7b$closure$u7d$$u7d$17hd0e181fef22a28a1E', symObjAddr: 0xA90, symBinAddr: 0x2B8D4, symSize: 0x18 }
  - { offset: 0x7FA06, size: 0x8, addend: 0x0, symName: '__ZN9_translit7slugify8_slugify28_$u7b$$u7b$closure$u7d$$u7d$17h1d744a5256b058e6E', symObjAddr: 0xAA8, symBinAddr: 0x2B8EC, symSize: 0x28 }
  - { offset: 0x7FA3C, size: 0x8, addend: 0x0, symName: '__ZN9_translit7slugify8_slugify28_$u7b$$u7b$closure$u7d$$u7d$17h9e2b2584039dca7aE', symObjAddr: 0xAD0, symBinAddr: 0x2B914, symSize: 0xBC }
  - { offset: 0x81507, size: 0x8, addend: 0x0, symName: '__ZN103_$LT$pyo3..instance..Bound$LT$pyo3..types..any..PyAny$GT$$u20$as$u20$pyo3..types..any..PyAnyMethods$GT$11call_method17hb7da0cd4a4ffdabeE', symObjAddr: 0x0, symBinAddr: 0x2B9D0, symSize: 0xA0 }
  - { offset: 0x8413B, size: 0x8, addend: 0x0, symName: '__ZN63_$LT$I$u20$as$u20$core..iter..traits..collect..IntoIterator$GT$9into_iter17haa6ad988c65f5e04E', symObjAddr: 0x2318, symBinAddr: 0x2DCE8, symSize: 0x14 }
  - { offset: 0x8419B, size: 0x8, addend: 0x0, symName: '__ZN103_$LT$pyo3..instance..Bound$LT$pyo3..types..any..PyAny$GT$$u20$as$u20$pyo3..types..any..PyAnyMethods$GT$11call_method17hb7da0cd4a4ffdabeE', symObjAddr: 0x0, symBinAddr: 0x2B9D0, symSize: 0xA0 }
  - { offset: 0x84208, size: 0x8, addend: 0x0, symName: '__ZN103_$LT$pyo3..instance..Bound$LT$pyo3..types..any..PyAny$GT$$u20$as$u20$pyo3..types..any..PyAnyMethods$GT$12call_method117h664d22e54c66c316E', symObjAddr: 0xA0, symBinAddr: 0x2BA70, symSize: 0x3C }
  - { offset: 0x84266, size: 0x8, addend: 0x0, symName: '__ZN103_$LT$pyo3..instance..Bound$LT$pyo3..types..any..PyAny$GT$$u20$as$u20$pyo3..types..any..PyAnyMethods$GT$14is_instance_of17h1af5a429fe3f9db2E', symObjAddr: 0xDC, symBinAddr: 0x2BAAC, symSize: 0x24 }
  - { offset: 0x8429D, size: 0x8, addend: 0x0, symName: '__ZN103_$LT$pyo3..instance..Bound$LT$pyo3..types..any..PyAny$GT$$u20$as$u20$pyo3..types..any..PyAnyMethods$GT$18downcast_unchecked17h15e956c1e3e74c7cE', symObjAddr: 0x100, symBinAddr: 0x2BAD0, symSize: 0x74 }
  - { offset: 0x842D4, size: 0x8, addend: 0x0, symName: '__ZN103_$LT$pyo3..instance..Bound$LT$pyo3..types..any..PyAny$GT$$u20$as$u20$pyo3..types..any..PyAnyMethods$GT$18downcast_unchecked17h2a7c5dcbcce09ae7E', symObjAddr: 0x174, symBinAddr: 0x2BB44, symSize: 0x74 }
  - { offset: 0x8430B, size: 0x8, addend: 0x0, symName: '__ZN103_$LT$pyo3..instance..Bound$LT$pyo3..types..any..PyAny$GT$$u20$as$u20$pyo3..types..any..PyAnyMethods$GT$18downcast_unchecked17hb85a651b54366110E', symObjAddr: 0x1E8, symBinAddr: 0x2BBB8, symSize: 0x74 }
  - { offset: 0x84342, size: 0x8, addend: 0x0, symName: '__ZN103_$LT$pyo3..instance..Bound$LT$pyo3..types..any..PyAny$GT$$u20$as$u20$pyo3..types..any..PyAnyMethods$GT$18downcast_unchecked17hc2fb50f4741abe8eE', symObjAddr: 0x25C, symBinAddr: 0x2BC2C, symSize: 0x74 }
  - { offset: 0x84379, size: 0x8, addend: 0x0, symName: '__ZN103_$LT$pyo3..instance..Bound$LT$pyo3..types..any..PyAny$GT$$u20$as$u20$pyo3..types..any..PyAnyMethods$GT$18downcast_unchecked17hfa49c63b48f18f84E', symObjAddr: 0x2D0, symBinAddr: 0x2BCA0, symSize: 0x74 }
  - { offset: 0x843B0, size: 0x8, addend: 0x0, symName: '__ZN103_$LT$pyo3..instance..Bound$LT$pyo3..types..any..PyAny$GT$$u20$as$u20$pyo3..types..any..PyAnyMethods$GT$23downcast_into_unchecked17h03a8d643b83718daE', symObjAddr: 0x344, symBinAddr: 0x2BD14, symSize: 0x14 }
  - { offset: 0x843E7, size: 0x8, addend: 0x0, symName: '__ZN103_$LT$pyo3..instance..Bound$LT$pyo3..types..any..PyAny$GT$$u20$as$u20$pyo3..types..any..PyAnyMethods$GT$23downcast_into_unchecked17h841ae0df968441e0E', symObjAddr: 0x358, symBinAddr: 0x2BD28, symSize: 0x14 }
  - { offset: 0x8441E, size: 0x8, addend: 0x0, symName: '__ZN103_$LT$pyo3..instance..Bound$LT$pyo3..types..any..PyAny$GT$$u20$as$u20$pyo3..types..any..PyAnyMethods$GT$23downcast_into_unchecked17h8f57b8d92828d228E', symObjAddr: 0x36C, symBinAddr: 0x2BD3C, symSize: 0x14 }
  - { offset: 0x84455, size: 0x8, addend: 0x0, symName: '__ZN103_$LT$pyo3..instance..Bound$LT$pyo3..types..any..PyAny$GT$$u20$as$u20$pyo3..types..any..PyAnyMethods$GT$23downcast_into_unchecked17hba94c701e19c010fE', symObjAddr: 0x380, symBinAddr: 0x2BD50, symSize: 0x14 }
  - { offset: 0x8448C, size: 0x8, addend: 0x0, symName: '__ZN103_$LT$pyo3..instance..Bound$LT$pyo3..types..any..PyAny$GT$$u20$as$u20$pyo3..types..any..PyAnyMethods$GT$4call17h6033d05bb1443cf9E', symObjAddr: 0x394, symBinAddr: 0x2BD64, symSize: 0x160 }
  - { offset: 0x84530, size: 0x8, addend: 0x0, symName: '__ZN103_$LT$pyo3..instance..Bound$LT$pyo3..types..any..PyAny$GT$$u20$as$u20$pyo3..types..any..PyAnyMethods$GT$5call117h3c39a013df54114eE', symObjAddr: 0x4F4, symBinAddr: 0x2BEC4, symSize: 0x30 }
  - { offset: 0x84576, size: 0x8, addend: 0x0, symName: '__ZN103_$LT$pyo3..instance..Bound$LT$pyo3..types..any..PyAny$GT$$u20$as$u20$pyo3..types..any..PyAnyMethods$GT$7extract17h035d53a72057a3ffE', symObjAddr: 0x524, symBinAddr: 0x2BEF4, symSize: 0x30 }
  - { offset: 0x845AD, size: 0x8, addend: 0x0, symName: '__ZN103_$LT$pyo3..instance..Bound$LT$pyo3..types..any..PyAny$GT$$u20$as$u20$pyo3..types..any..PyAnyMethods$GT$7extract17h0c3811e910fdb6b5E', symObjAddr: 0x554, symBinAddr: 0x2BF24, symSize: 0x30 }
  - { offset: 0x845E4, size: 0x8, addend: 0x0, symName: '__ZN103_$LT$pyo3..instance..Bound$LT$pyo3..types..any..PyAny$GT$$u20$as$u20$pyo3..types..any..PyAnyMethods$GT$7extract17h5a9ecc5220d73dacE', symObjAddr: 0x584, symBinAddr: 0x2BF54, symSize: 0x30 }
  - { offset: 0x8461B, size: 0x8, addend: 0x0, symName: '__ZN103_$LT$pyo3..instance..Bound$LT$pyo3..types..any..PyAny$GT$$u20$as$u20$pyo3..types..any..PyAnyMethods$GT$7extract17h5c73c02ffc4e774bE', symObjAddr: 0x5B4, symBinAddr: 0x2BF84, symSize: 0x30 }
  - { offset: 0x84652, size: 0x8, addend: 0x0, symName: '__ZN103_$LT$pyo3..instance..Bound$LT$pyo3..types..any..PyAny$GT$$u20$as$u20$pyo3..types..any..PyAnyMethods$GT$7extract17h6d2d7478df8c9e33E', symObjAddr: 0x5E4, symBinAddr: 0x2BFB4, symSize: 0x30 }
  - { offset: 0x84689, size: 0x8, addend: 0x0, symName: '__ZN103_$LT$pyo3..instance..Bound$LT$pyo3..types..any..PyAny$GT$$u20$as$u20$pyo3..types..any..PyAnyMethods$GT$7extract17h936ebf6d82067b08E', symObjAddr: 0x614, symBinAddr: 0x2BFE4, symSize: 0x30 }
  - { offset: 0x846C0, size: 0x8, addend: 0x0, symName: '__ZN103_$LT$pyo3..instance..Bound$LT$pyo3..types..any..PyAny$GT$$u20$as$u20$pyo3..types..any..PyAnyMethods$GT$7extract17ha5b15a1301220b99E', symObjAddr: 0x644, symBinAddr: 0x2C014, symSize: 0x30 }
  - { offset: 0x846F7, size: 0x8, addend: 0x0, symName: '__ZN103_$LT$pyo3..instance..Bound$LT$pyo3..types..any..PyAny$GT$$u20$as$u20$pyo3..types..any..PyAnyMethods$GT$7extract17ha99ff7725b035ac0E', symObjAddr: 0x674, symBinAddr: 0x2C044, symSize: 0x30 }
  - { offset: 0x8472E, size: 0x8, addend: 0x0, symName: '__ZN103_$LT$pyo3..instance..Bound$LT$pyo3..types..any..PyAny$GT$$u20$as$u20$pyo3..types..any..PyAnyMethods$GT$7extract17hb6fee26fce4c0e58E', symObjAddr: 0x6A4, symBinAddr: 0x2C074, symSize: 0x30 }
  - { offset: 0x84765, size: 0x8, addend: 0x0, symName: '__ZN103_$LT$pyo3..instance..Bound$LT$pyo3..types..any..PyAny$GT$$u20$as$u20$pyo3..types..any..PyAnyMethods$GT$7extract17hee85f573a19b994dE', symObjAddr: 0x6D4, symBinAddr: 0x2C0A4, symSize: 0x30 }
  - { offset: 0x8479C, size: 0x8, addend: 0x0, symName: '__ZN103_$LT$pyo3..instance..Bound$LT$pyo3..types..any..PyAny$GT$$u20$as$u20$pyo3..types..any..PyAnyMethods$GT$7extract17hf201436bf1068f02E', symObjAddr: 0x704, symBinAddr: 0x2C0D4, symSize: 0x30 }
  - { offset: 0x847D3, size: 0x8, addend: 0x0, symName: '__ZN103_$LT$pyo3..instance..Bound$LT$pyo3..types..any..PyAny$GT$$u20$as$u20$pyo3..types..any..PyAnyMethods$GT$7extract17hf5fb60a1cb519b78E', symObjAddr: 0x734, symBinAddr: 0x2C104, symSize: 0x30 }
  - { offset: 0x8480A, size: 0x8, addend: 0x0, symName: '__ZN103_$LT$pyo3..instance..Bound$LT$pyo3..types..any..PyAny$GT$$u20$as$u20$pyo3..types..any..PyAnyMethods$GT$8downcast17h4f11902103c4b54cE', symObjAddr: 0x764, symBinAddr: 0x2C134, symSize: 0x84 }
  - { offset: 0x84841, size: 0x8, addend: 0x0, symName: '__ZN103_$LT$pyo3..instance..Bound$LT$pyo3..types..any..PyAny$GT$$u20$as$u20$pyo3..types..any..PyAnyMethods$GT$8downcast17h8b312e6a8265e160E', symObjAddr: 0x7E8, symBinAddr: 0x2C1B8, symSize: 0x84 }
  - { offset: 0x84878, size: 0x8, addend: 0x0, symName: '__ZN103_$LT$pyo3..instance..Bound$LT$pyo3..types..any..PyAny$GT$$u20$as$u20$pyo3..types..any..PyAnyMethods$GT$8downcast17ha051e1c38cd6c86fE', symObjAddr: 0x86C, symBinAddr: 0x2C23C, symSize: 0x84 }
  - { offset: 0x848AF, size: 0x8, addend: 0x0, symName: '__ZN103_$LT$pyo3..instance..Bound$LT$pyo3..types..any..PyAny$GT$$u20$as$u20$pyo3..types..any..PyAnyMethods$GT$8downcast17hf6b83c2a741e549dE', symObjAddr: 0x8F0, symBinAddr: 0x2C2C0, symSize: 0x84 }
  - { offset: 0x84907, size: 0x8, addend: 0x0, symName: '__ZN115_$LT$pyo3..instance..Bound$LT$pyo3..types..module..PyModule$GT$$u20$as$u20$pyo3..types..module..PyModuleMethods$GT$3add17h6d81d227e3afe33eE', symObjAddr: 0x9B4, symBinAddr: 0x2C384, symSize: 0x288 }
  - { offset: 0x849D4, size: 0x8, addend: 0x0, symName: '__ZN115_$LT$pyo3..instance..Bound$LT$pyo3..types..module..PyModule$GT$$u20$as$u20$pyo3..types..module..PyModuleMethods$GT$3add17h954a6b3df4fb2be0E', symObjAddr: 0xC3C, symBinAddr: 0x2C60C, symSize: 0x25C }
  - { offset: 0x84AA1, size: 0x8, addend: 0x0, symName: '__ZN115_$LT$pyo3..instance..Bound$LT$pyo3..types..module..PyModule$GT$$u20$as$u20$pyo3..types..module..PyModuleMethods$GT$9add_class17h04b2fa087f741f39E', symObjAddr: 0xE98, symBinAddr: 0x2C868, symSize: 0xD0 }
  - { offset: 0x84B17, size: 0x8, addend: 0x0, symName: '__ZN115_$LT$pyo3..instance..Bound$LT$pyo3..types..module..PyModule$GT$$u20$as$u20$pyo3..types..module..PyModuleMethods$GT$9add_class17h26eb0efc9cc53181E', symObjAddr: 0xF68, symBinAddr: 0x2C938, symSize: 0xD0 }
  - { offset: 0x84B8D, size: 0x8, addend: 0x0, symName: '__ZN115_$LT$pyo3..instance..Bound$LT$pyo3..types..module..PyModule$GT$$u20$as$u20$pyo3..types..module..PyModuleMethods$GT$9add_class17h9876296e7ebbf25aE', symObjAddr: 0x1038, symBinAddr: 0x2CA08, symSize: 0xD0 }
  - { offset: 0x84C03, size: 0x8, addend: 0x0, symName: '__ZN115_$LT$pyo3..instance..Bound$LT$pyo3..types..module..PyModule$GT$$u20$as$u20$pyo3..types..module..PyModuleMethods$GT$9add_class17h9977f26d8610ba9fE', symObjAddr: 0x1108, symBinAddr: 0x2CAD8, symSize: 0xD0 }
  - { offset: 0x84C9A, size: 0x8, addend: 0x0, symName: '__ZN4pyo35types5tuple74_$LT$impl$u20$pyo3..conversion..IntoPyObject$u20$for$u20$$LP$T0$C$$RP$$GT$13into_pyobject17h4b9395b94eedfb65E', symObjAddr: 0x1338, symBinAddr: 0x2CD08, symSize: 0xC8 }
  - { offset: 0x84E43, size: 0x8, addend: 0x0, symName: '__ZN104_$LT$$RF$pyo3..instance..Bound$LT$T$GT$$u20$as$u20$pyo3..impl_..extract_argument..PyFunctionArgument$GT$7extract17h706d054877ccdc0aE', symObjAddr: 0x974, symBinAddr: 0x2C344, symSize: 0x40 }
  - { offset: 0x84E88, size: 0x8, addend: 0x0, symName: '__ZN71_$LT$T$u20$as$u20$pyo3..impl_..extract_argument..PyFunctionArgument$GT$7extract17hb8fe09f77be069c0E', symObjAddr: 0x2430, symBinAddr: 0x2DE00, symSize: 0x28 }
  - { offset: 0x84ED3, size: 0x8, addend: 0x0, symName: '__ZN4pyo35impl_9pymethods133_$LT$impl$u20$core..convert..From$LT$pyo3..impl_..pymethods..BoundRef$LT$T$GT$$GT$$u20$for$u20$$RF$pyo3..instance..Bound$LT$T$GT$$GT$4from17h0d6b0b83418f22b9E', symObjAddr: 0x1324, symBinAddr: 0x2CCF4, symSize: 0x14 }
  - { offset: 0x84FD6, size: 0x8, addend: 0x0, symName: __ZN4pyo310conversion15IntoPyObjectExt17into_bound_py_any17h849f95843dc4abdcE, symObjAddr: 0x11FC, symBinAddr: 0x2CBCC, symSize: 0x50 }
  - { offset: 0x85046, size: 0x8, addend: 0x0, symName: __ZN4pyo310conversion15IntoPyObjectExt22into_pyobject_or_pyerr17h31ea4dcb7221665cE, symObjAddr: 0x124C, symBinAddr: 0x2CC1C, symSize: 0x48 }
  - { offset: 0x850B6, size: 0x8, addend: 0x0, symName: __ZN4pyo310conversion15IntoPyObjectExt22into_pyobject_or_pyerr17h834a5ac6735a5dd2E, symObjAddr: 0x1294, symBinAddr: 0x2CC64, symSize: 0x48 }
  - { offset: 0x85126, size: 0x8, addend: 0x0, symName: __ZN4pyo310conversion15IntoPyObjectExt22into_pyobject_or_pyerr17heb0a860c0fea915bE, symObjAddr: 0x12DC, symBinAddr: 0x2CCAC, symSize: 0x48 }
  - { offset: 0x8519C, size: 0x8, addend: 0x0, symName: '__ZN57_$LT$T$u20$as$u20$pyo3..conversion..FromPyObjectBound$GT$20from_py_object_bound17h76a46968a570d15bE', symObjAddr: 0x22B0, symBinAddr: 0x2DC80, symSize: 0x34 }
  - { offset: 0x851D3, size: 0x8, addend: 0x0, symName: '__ZN57_$LT$T$u20$as$u20$pyo3..conversion..FromPyObjectBound$GT$20from_py_object_bound17hd835c571a8939743E', symObjAddr: 0x22E4, symBinAddr: 0x2DCB4, symSize: 0x34 }
  - { offset: 0x85210, size: 0x8, addend: 0x0, symName: '__ZN81_$LT$pyo3..instance..Bound$LT$T$GT$$u20$as$u20$pyo3..conversion..IntoPyObject$GT$13into_pyobject17h0dbcd684bf5c7362E', symObjAddr: 0x2554, symBinAddr: 0x2DF24, symSize: 0x14 }
  - { offset: 0x85262, size: 0x8, addend: 0x0, symName: '__ZN81_$LT$pyo3..instance..Bound$LT$T$GT$$u20$as$u20$pyo3..conversion..IntoPyObject$GT$13into_pyobject17h2c875df926690c11E', symObjAddr: 0x2568, symBinAddr: 0x2DF38, symSize: 0x14 }
  - { offset: 0x852B4, size: 0x8, addend: 0x0, symName: '__ZN81_$LT$pyo3..instance..Bound$LT$T$GT$$u20$as$u20$pyo3..conversion..IntoPyObject$GT$13into_pyobject17h5a08cd9aa4d5d9f7E', symObjAddr: 0x257C, symBinAddr: 0x2DF4C, symSize: 0x14 }
  - { offset: 0x85FA6, size: 0x8, addend: 0x0, symName: '__ZN4pyo38instance39Borrowed$LT$pyo3..types..any..PyAny$GT$15from_ptr_or_opt28_$u7b$$u7b$closure$u7d$$u7d$17h85961fce4c817777E', symObjAddr: 0x220C, symBinAddr: 0x2DBDC, symSize: 0x20 }
  - { offset: 0x860AD, size: 0x8, addend: 0x0, symName: '__ZN69_$LT$pyo3..instance..Bound$LT$T$GT$$u20$as$u20$core..clone..Clone$GT$5clone17h16aba9c4a419fcb5E', symObjAddr: 0x232C, symBinAddr: 0x2DCFC, symSize: 0x34 }
  - { offset: 0x860E4, size: 0x8, addend: 0x0, symName: '__ZN69_$LT$pyo3..instance..Bound$LT$T$GT$$u20$as$u20$core..clone..Clone$GT$5clone17h52d1fba22212f6c1E', symObjAddr: 0x2360, symBinAddr: 0x2DD30, symSize: 0x34 }
  - { offset: 0x8611B, size: 0x8, addend: 0x0, symName: '__ZN69_$LT$pyo3..instance..Bound$LT$T$GT$$u20$as$u20$core..clone..Clone$GT$5clone17h84dcf0a751bbbd98E', symObjAddr: 0x2394, symBinAddr: 0x2DD64, symSize: 0x34 }
  - { offset: 0x86152, size: 0x8, addend: 0x0, symName: '__ZN69_$LT$pyo3..instance..Bound$LT$T$GT$$u20$as$u20$core..clone..Clone$GT$5clone17h9e10bbf286836517E', symObjAddr: 0x23C8, symBinAddr: 0x2DD98, symSize: 0x34 }
  - { offset: 0x86189, size: 0x8, addend: 0x0, symName: '__ZN69_$LT$pyo3..instance..Bound$LT$T$GT$$u20$as$u20$core..clone..Clone$GT$5clone17hec4838cec9d1c897E', symObjAddr: 0x23FC, symBinAddr: 0x2DDCC, symSize: 0x34 }
  - { offset: 0x861C6, size: 0x8, addend: 0x0, symName: '__ZN77_$LT$pyo3..instance..Borrowed$LT$T$GT$$u20$as$u20$core..ops..deref..Deref$GT$5deref17h4949053bd640922cE', symObjAddr: 0x2458, symBinAddr: 0x2DE28, symSize: 0x74 }
  - { offset: 0x86203, size: 0x8, addend: 0x0, symName: '__ZN78_$LT$pyo3..instance..Py$LT$T$GT$$u20$as$u20$pyo3..conversion..FromPyObject$GT$13extract_bound17h6cf2fb000e369487E', symObjAddr: 0x24CC, symBinAddr: 0x2DE9C, symSize: 0x3C }
  - { offset: 0x86240, size: 0x8, addend: 0x0, symName: '__ZN81_$LT$pyo3..instance..Bound$LT$T$GT$$u20$as$u20$pyo3..conversion..FromPyObject$GT$13extract_bound17h1ed8591459179482E', symObjAddr: 0x2508, symBinAddr: 0x2DED8, symSize: 0x4C }
  - { offset: 0x8627D, size: 0x8, addend: 0x0, symName: '__ZN87_$LT$pyo3..instance..Bound$LT$T$GT$$u20$as$u20$pyo3..instance..BoundObject$LT$T$GT$$GT$10into_bound17hcbc0d3d53888b9bcE', symObjAddr: 0x2590, symBinAddr: 0x2DF60, symSize: 0x14 }
  - { offset: 0x862B4, size: 0x8, addend: 0x0, symName: '__ZN87_$LT$pyo3..instance..Bound$LT$T$GT$$u20$as$u20$pyo3..instance..BoundObject$LT$T$GT$$GT$8into_any17h06a5e374275d1c10E', symObjAddr: 0x25A4, symBinAddr: 0x2DF74, symSize: 0x24 }
  - { offset: 0x862EB, size: 0x8, addend: 0x0, symName: '__ZN87_$LT$pyo3..instance..Bound$LT$T$GT$$u20$as$u20$pyo3..instance..BoundObject$LT$T$GT$$GT$8into_any17h0d7a47f096aa8a9fE', symObjAddr: 0x25C8, symBinAddr: 0x2DF98, symSize: 0x24 }
  - { offset: 0x86322, size: 0x8, addend: 0x0, symName: '__ZN87_$LT$pyo3..instance..Bound$LT$T$GT$$u20$as$u20$pyo3..instance..BoundObject$LT$T$GT$$GT$8into_any17h22716486d0226030E', symObjAddr: 0x25EC, symBinAddr: 0x2DFBC, symSize: 0x24 }
  - { offset: 0x86359, size: 0x8, addend: 0x0, symName: '__ZN87_$LT$pyo3..instance..Bound$LT$T$GT$$u20$as$u20$pyo3..instance..BoundObject$LT$T$GT$$GT$8into_any17hb7a1b825f2d99edeE', symObjAddr: 0x2610, symBinAddr: 0x2DFE0, symSize: 0x24 }
  - { offset: 0x86390, size: 0x8, addend: 0x0, symName: '__ZN87_$LT$pyo3..instance..Bound$LT$T$GT$$u20$as$u20$pyo3..instance..BoundObject$LT$T$GT$$GT$8into_ptr17h408617e3633931faE', symObjAddr: 0x2634, symBinAddr: 0x2E004, symSize: 0x24 }
  - { offset: 0x863C7, size: 0x8, addend: 0x0, symName: '__ZN87_$LT$pyo3..instance..Bound$LT$T$GT$$u20$as$u20$pyo3..instance..BoundObject$LT$T$GT$$GT$8into_ptr17had9950e5fc2f4b24E', symObjAddr: 0x2658, symBinAddr: 0x2E028, symSize: 0x24 }
  - { offset: 0x86404, size: 0x8, addend: 0x0, symName: '__ZN90_$LT$pyo3..instance..Borrowed$LT$T$GT$$u20$as$u20$pyo3..instance..BoundObject$LT$T$GT$$GT$8into_any17hfc6822431746805fE', symObjAddr: 0x267C, symBinAddr: 0x2E04C, symSize: 0x24 }
  - { offset: 0x8643B, size: 0x8, addend: 0x0, symName: '__ZN90_$LT$pyo3..instance..Borrowed$LT$T$GT$$u20$as$u20$pyo3..instance..BoundObject$LT$T$GT$$GT$8into_ptr17h36cc86208eced325E', symObjAddr: 0x26A0, symBinAddr: 0x2E070, symSize: 0x30 }
  - { offset: 0x86A4B, size: 0x8, addend: 0x0, symName: '__ZN44_$LT$T$u20$as$u20$alloc..borrow..ToOwned$GT$8to_owned17hd91261cb1af417c6E', symObjAddr: 0x11D8, symBinAddr: 0x2CBA8, symSize: 0x24 }
  - { offset: 0x88023, size: 0x8, addend: 0x0, symName: '__ZN4pyo38instance11Py$LT$T$GT$10into_bound17h11800f14ca7429b3E', symObjAddr: 0x1400, symBinAddr: 0x2CDD0, symSize: 0x1C }
  - { offset: 0x8806A, size: 0x8, addend: 0x0, symName: '__ZN4pyo38instance11Py$LT$T$GT$10into_bound17h36b97a3cd17194ebE', symObjAddr: 0x141C, symBinAddr: 0x2CDEC, symSize: 0x1C }
  - { offset: 0x880B1, size: 0x8, addend: 0x0, symName: '__ZN4pyo38instance11Py$LT$T$GT$10into_bound17h7c84e3c1d79c5443E', symObjAddr: 0x1438, symBinAddr: 0x2CE08, symSize: 0x1C }
  - { offset: 0x880FF, size: 0x8, addend: 0x0, symName: '__ZN4pyo38instance11Py$LT$T$GT$10into_bound17hdd204150419828a7E', symObjAddr: 0x1454, symBinAddr: 0x2CE24, symSize: 0x1C }
  - { offset: 0x881E2, size: 0x8, addend: 0x0, symName: '__ZN4pyo38instance11Py$LT$T$GT$12call_method117h5c0d382860b6a23bE', symObjAddr: 0x1470, symBinAddr: 0x2CE40, symSize: 0x1DC }
  - { offset: 0x8827D, size: 0x8, addend: 0x0, symName: '__ZN4pyo38instance11Py$LT$T$GT$13from_non_null17h0782a77bd6396747E', symObjAddr: 0x164C, symBinAddr: 0x2D01C, symSize: 0x14 }
  - { offset: 0x882A9, size: 0x8, addend: 0x0, symName: '__ZN4pyo38instance11Py$LT$T$GT$13from_non_null17h4574f5cc1beda9b5E', symObjAddr: 0x1660, symBinAddr: 0x2D030, symSize: 0x14 }
  - { offset: 0x882D5, size: 0x8, addend: 0x0, symName: '__ZN4pyo38instance11Py$LT$T$GT$13from_non_null17h8d33cb6cc29bf53cE', symObjAddr: 0x1674, symBinAddr: 0x2D044, symSize: 0x14 }
  - { offset: 0x88301, size: 0x8, addend: 0x0, symName: '__ZN4pyo38instance11Py$LT$T$GT$13from_non_null17ha233fa095514471dE', symObjAddr: 0x1688, symBinAddr: 0x2D058, symSize: 0x14 }
  - { offset: 0x8832D, size: 0x8, addend: 0x0, symName: '__ZN4pyo38instance11Py$LT$T$GT$13from_non_null17hae73c423bac45beaE', symObjAddr: 0x169C, symBinAddr: 0x2D06C, symSize: 0x14 }
  - { offset: 0x88359, size: 0x8, addend: 0x0, symName: '__ZN4pyo38instance11Py$LT$T$GT$13from_non_null17hbea885eab5c7e083E', symObjAddr: 0x16B0, symBinAddr: 0x2D080, symSize: 0x14 }
  - { offset: 0x8839F, size: 0x8, addend: 0x0, symName: '__ZN4pyo38instance11Py$LT$T$GT$16get_class_object17h5585a896b1f5ef03E', symObjAddr: 0x16C4, symBinAddr: 0x2D094, symSize: 0x78 }
  - { offset: 0x883FB, size: 0x8, addend: 0x0, symName: '__ZN4pyo38instance11Py$LT$T$GT$16get_class_object17ha26eea2f199cb8c6E', symObjAddr: 0x173C, symBinAddr: 0x2D10C, symSize: 0x78 }
  - { offset: 0x88457, size: 0x8, addend: 0x0, symName: '__ZN4pyo38instance11Py$LT$T$GT$16get_class_object17ha5b1f660a15da339E', symObjAddr: 0x17B4, symBinAddr: 0x2D184, symSize: 0x78 }
  - { offset: 0x884B3, size: 0x8, addend: 0x0, symName: '__ZN4pyo38instance11Py$LT$T$GT$16get_class_object17heacd52dff5487626E', symObjAddr: 0x182C, symBinAddr: 0x2D1FC, symSize: 0x78 }
  - { offset: 0x88515, size: 0x8, addend: 0x0, symName: '__ZN4pyo38instance11Py$LT$T$GT$5call117ha6dbf97361c21c2aE', symObjAddr: 0x18A4, symBinAddr: 0x2D274, symSize: 0x150 }
  - { offset: 0x8859C, size: 0x8, addend: 0x0, symName: '__ZN4pyo38instance11Py$LT$T$GT$6as_ptr17h0e004d0e8bdef129E', symObjAddr: 0x19F4, symBinAddr: 0x2D3C4, symSize: 0x1C }
  - { offset: 0x885C8, size: 0x8, addend: 0x0, symName: '__ZN4pyo38instance11Py$LT$T$GT$6as_ptr17h9fece46c60874f64E', symObjAddr: 0x1A10, symBinAddr: 0x2D3E0, symSize: 0x1C }
  - { offset: 0x885F4, size: 0x8, addend: 0x0, symName: '__ZN4pyo38instance11Py$LT$T$GT$6as_ptr17haa550ab730effec9E', symObjAddr: 0x1A2C, symBinAddr: 0x2D3FC, symSize: 0x1C }
  - { offset: 0x88620, size: 0x8, addend: 0x0, symName: '__ZN4pyo38instance11Py$LT$T$GT$6as_ptr17hc0f80218a180630aE', symObjAddr: 0x1A48, symBinAddr: 0x2D418, symSize: 0x1C }
  - { offset: 0x8864C, size: 0x8, addend: 0x0, symName: '__ZN4pyo38instance11Py$LT$T$GT$7extract17h8badb90e8127c3d7E', symObjAddr: 0x1A64, symBinAddr: 0x2D434, symSize: 0x34 }
  - { offset: 0x8869C, size: 0x8, addend: 0x0, symName: '__ZN4pyo38instance11Py$LT$T$GT$7extract17hdd1e6c97d1f1f827E', symObjAddr: 0x1A98, symBinAddr: 0x2D468, symSize: 0x34 }
  - { offset: 0x886EC, size: 0x8, addend: 0x0, symName: '__ZN4pyo38instance11Py$LT$T$GT$7is_none17h4c614e458bb56b59E', symObjAddr: 0x1ACC, symBinAddr: 0x2D49C, symSize: 0x44 }
  - { offset: 0x88733, size: 0x8, addend: 0x0, symName: '__ZN4pyo38instance11Py$LT$T$GT$8into_any17h4a5112890c680ab5E', symObjAddr: 0x1B10, symBinAddr: 0x2D4E0, symSize: 0x3C }
  - { offset: 0x8875F, size: 0x8, addend: 0x0, symName: '__ZN4pyo38instance11Py$LT$T$GT$8into_any17h514da3da91f881fbE', symObjAddr: 0x1B4C, symBinAddr: 0x2D51C, symSize: 0x3C }
  - { offset: 0x8878B, size: 0x8, addend: 0x0, symName: '__ZN4pyo38instance11Py$LT$T$GT$8into_ptr17hf76a800acc3be95fE', symObjAddr: 0x1B88, symBinAddr: 0x2D558, symSize: 0x30 }
  - { offset: 0x887C4, size: 0x8, addend: 0x0, symName: '__ZN4pyo38instance11Py$LT$T$GT$9clone_ref17h08618c900aa57049E', symObjAddr: 0x1BB8, symBinAddr: 0x2D588, symSize: 0x40 }
  - { offset: 0x88829, size: 0x8, addend: 0x0, symName: '__ZN4pyo38instance11Py$LT$T$GT$9clone_ref17h1931ce2472595da2E', symObjAddr: 0x1BF8, symBinAddr: 0x2D5C8, symSize: 0x40 }
  - { offset: 0x8888E, size: 0x8, addend: 0x0, symName: '__ZN4pyo38instance11Py$LT$T$GT$9clone_ref17h5127fd86c378581bE', symObjAddr: 0x1C38, symBinAddr: 0x2D608, symSize: 0x40 }
  - { offset: 0x888F3, size: 0x8, addend: 0x0, symName: '__ZN4pyo38instance11Py$LT$T$GT$9clone_ref17h906eb3aec3c84ddaE', symObjAddr: 0x1C78, symBinAddr: 0x2D648, symSize: 0x40 }
  - { offset: 0x88958, size: 0x8, addend: 0x0, symName: '__ZN4pyo38instance11Py$LT$T$GT$9clone_ref17he92c0eea50d2c885E', symObjAddr: 0x1CB8, symBinAddr: 0x2D688, symSize: 0x40 }
  - { offset: 0x889CA, size: 0x8, addend: 0x0, symName: '__ZN4pyo38instance14Bound$LT$T$GT$10try_borrow17h8e65e1c8528926c6E', symObjAddr: 0x1CF8, symBinAddr: 0x2D6C8, symSize: 0x24 }
  - { offset: 0x88A03, size: 0x8, addend: 0x0, symName: '__ZN4pyo38instance14Bound$LT$T$GT$10try_borrow17hd9095375f8ab3c32E', symObjAddr: 0x1D1C, symBinAddr: 0x2D6EC, symSize: 0x24 }
  - { offset: 0x88A3C, size: 0x8, addend: 0x0, symName: '__ZN4pyo38instance14Bound$LT$T$GT$10try_borrow17hfd5346aaf3032d37E', symObjAddr: 0x1D40, symBinAddr: 0x2D710, symSize: 0x24 }
  - { offset: 0x88A75, size: 0x8, addend: 0x0, symName: '__ZN4pyo38instance14Bound$LT$T$GT$14try_borrow_mut17he0229bd793940fc9E', symObjAddr: 0x1D64, symBinAddr: 0x2D734, symSize: 0x24 }
  - { offset: 0x88AA1, size: 0x8, addend: 0x0, symName: '__ZN4pyo38instance14Bound$LT$T$GT$16get_class_object17h231f2cfa4051c905E', symObjAddr: 0x1D88, symBinAddr: 0x2D758, symSize: 0x2C }
  - { offset: 0x88ACD, size: 0x8, addend: 0x0, symName: '__ZN4pyo38instance14Bound$LT$T$GT$16get_class_object17h40c66e9b86dda55cE', symObjAddr: 0x1DB4, symBinAddr: 0x2D784, symSize: 0x2C }
  - { offset: 0x88AF9, size: 0x8, addend: 0x0, symName: '__ZN4pyo38instance14Bound$LT$T$GT$16get_class_object17h747d747dcf41f5b7E', symObjAddr: 0x1DE0, symBinAddr: 0x2D7B0, symSize: 0x2C }
  - { offset: 0x88B25, size: 0x8, addend: 0x0, symName: '__ZN4pyo38instance14Bound$LT$T$GT$16get_class_object17h9e817d8cbbcf4e06E', symObjAddr: 0x1E0C, symBinAddr: 0x2D7DC, symSize: 0x2C }
  - { offset: 0x88B51, size: 0x8, addend: 0x0, symName: '__ZN4pyo38instance14Bound$LT$T$GT$3new17h30a068dd15b16bc7E', symObjAddr: 0x1E38, symBinAddr: 0x2D808, symSize: 0x58 }
  - { offset: 0x88B9F, size: 0x8, addend: 0x0, symName: '__ZN4pyo38instance14Bound$LT$T$GT$6as_ptr17h36a2834497a5ae69E', symObjAddr: 0x1E90, symBinAddr: 0x2D860, symSize: 0x2C }
  - { offset: 0x88BCB, size: 0x8, addend: 0x0, symName: '__ZN4pyo38instance14Bound$LT$T$GT$6as_ptr17h710d9f30e31ea9efE', symObjAddr: 0x1EBC, symBinAddr: 0x2D88C, symSize: 0x2C }
  - { offset: 0x88C04, size: 0x8, addend: 0x0, symName: '__ZN4pyo38instance14Bound$LT$T$GT$6as_ptr17h7ce1d83c97bd04b2E', symObjAddr: 0x1EE8, symBinAddr: 0x2D8B8, symSize: 0x2C }
  - { offset: 0x88C30, size: 0x8, addend: 0x0, symName: '__ZN4pyo38instance14Bound$LT$T$GT$6as_ptr17he0c4e8b37dbca187E', symObjAddr: 0x1F14, symBinAddr: 0x2D8E4, symSize: 0x2C }
  - { offset: 0x88C5C, size: 0x8, addend: 0x0, symName: '__ZN4pyo38instance14Bound$LT$T$GT$6as_ptr17he0e37ff8d650cd99E', symObjAddr: 0x1F40, symBinAddr: 0x2D910, symSize: 0x2C }
  - { offset: 0x88C88, size: 0x8, addend: 0x0, symName: '__ZN4pyo38instance14Bound$LT$T$GT$6unbind17h7c536488b07580d7E', symObjAddr: 0x1F6C, symBinAddr: 0x2D93C, symSize: 0x48 }
  - { offset: 0x88CD2, size: 0x8, addend: 0x0, symName: '__ZN4pyo38instance14Bound$LT$T$GT$6unbind17hc64ab7f1c62b3187E', symObjAddr: 0x1FB4, symBinAddr: 0x2D984, symSize: 0x48 }
  - { offset: 0x88D1C, size: 0x8, addend: 0x0, symName: '__ZN4pyo38instance14Bound$LT$T$GT$8into_any17h5a4d05ab46758953E', symObjAddr: 0x1FFC, symBinAddr: 0x2D9CC, symSize: 0x30 }
  - { offset: 0x88D48, size: 0x8, addend: 0x0, symName: '__ZN4pyo38instance14Bound$LT$T$GT$8into_any17hc9a9e0282cb03684E', symObjAddr: 0x202C, symBinAddr: 0x2D9FC, symSize: 0x30 }
  - { offset: 0x88D74, size: 0x8, addend: 0x0, symName: '__ZN4pyo38instance14Bound$LT$T$GT$8into_ptr17h48fefa5646938f5cE', symObjAddr: 0x205C, symBinAddr: 0x2DA2C, symSize: 0x40 }
  - { offset: 0x88DA0, size: 0x8, addend: 0x0, symName: '__ZN4pyo38instance14Bound$LT$T$GT$8into_ptr17h818ca3c275feb4daE', symObjAddr: 0x209C, symBinAddr: 0x2DA6C, symSize: 0x40 }
  - { offset: 0x88DCC, size: 0x8, addend: 0x0, symName: '__ZN4pyo38instance14Bound$LT$T$GT$8into_ptr17h82050cc49f04821cE', symObjAddr: 0x20DC, symBinAddr: 0x2DAAC, symSize: 0x40 }
  - { offset: 0x88DF8, size: 0x8, addend: 0x0, symName: '__ZN4pyo38instance14Bound$LT$T$GT$8into_ptr17ha34e803f362aceccE', symObjAddr: 0x211C, symBinAddr: 0x2DAEC, symSize: 0x40 }
  - { offset: 0x88E24, size: 0x8, addend: 0x0, symName: '__ZN4pyo38instance14Bound$LT$T$GT$8into_ptr17ha7fa7e88a71344aaE', symObjAddr: 0x215C, symBinAddr: 0x2DB2C, symSize: 0x40 }
  - { offset: 0x88E50, size: 0x8, addend: 0x0, symName: '__ZN4pyo38instance14Bound$LT$T$GT$8into_ptr17hd2cfe1f7ddf481b0E', symObjAddr: 0x219C, symBinAddr: 0x2DB6C, symSize: 0x40 }
  - { offset: 0x88E89, size: 0x8, addend: 0x0, symName: '__ZN4pyo38instance17Borrowed$LT$T$GT$6as_ptr17hb8ed325e86b14b79E', symObjAddr: 0x21DC, symBinAddr: 0x2DBAC, symSize: 0x1C }
  - { offset: 0x88EB5, size: 0x8, addend: 0x0, symName: '__ZN4pyo38instance17Borrowed$LT$T$GT$6to_any17h288ec988648f0e7aE', symObjAddr: 0x21F8, symBinAddr: 0x2DBC8, symSize: 0x14 }
  - { offset: 0x88EEE, size: 0x8, addend: 0x0, symName: '__ZN4pyo38instance39Borrowed$LT$pyo3..types..any..PyAny$GT$18downcast_unchecked17h4bc8c9f6fa224d97E', symObjAddr: 0x222C, symBinAddr: 0x2DBFC, symSize: 0x14 }
  - { offset: 0x88F1A, size: 0x8, addend: 0x0, symName: '__ZN4pyo38instance39Borrowed$LT$pyo3..types..any..PyAny$GT$18downcast_unchecked17h5bb05a0842345c73E', symObjAddr: 0x2240, symBinAddr: 0x2DC10, symSize: 0x14 }
  - { offset: 0x88F46, size: 0x8, addend: 0x0, symName: '__ZN4pyo38instance39Borrowed$LT$pyo3..types..any..PyAny$GT$18downcast_unchecked17h68f5a980fc81bf11E', symObjAddr: 0x2254, symBinAddr: 0x2DC24, symSize: 0x14 }
  - { offset: 0x88FA0, size: 0x8, addend: 0x0, symName: '__ZN4pyo38internal8get_slot78_$LT$impl$u20$pyo3..instance..Bound$LT$pyo3..types..typeobject..PyType$GT$$GT$8get_slot17h0790bea0be070a7dE', symObjAddr: 0x2268, symBinAddr: 0x2DC38, symSize: 0x48 }
  - { offset: 0x890AF, size: 0x8, addend: 0x0, symName: __ZN4core5array11try_from_fn17h7fd1106f3c563d17E, symObjAddr: 0x0, symBinAddr: 0x2E0A0, symSize: 0x6C }
  - { offset: 0x89556, size: 0x8, addend: 0x0, symName: __ZN4core5array11try_from_fn17h7fd1106f3c563d17E, symObjAddr: 0x0, symBinAddr: 0x2E0A0, symSize: 0x6C }
  - { offset: 0x895CE, size: 0x8, addend: 0x0, symName: __ZN4core5array11try_from_fn17hbec4f0c13c1f2836E, symObjAddr: 0x6C, symBinAddr: 0x2E10C, symSize: 0x5C }
  - { offset: 0x896DA, size: 0x8, addend: 0x0, symName: __ZN4core5array18try_from_fn_erased17h808053d39695d2d8E, symObjAddr: 0x280, symBinAddr: 0x2E320, symSize: 0x10C }
  - { offset: 0x89793, size: 0x8, addend: 0x0, symName: __ZN4core5array18try_from_fn_erased17haeedb31198159e6bE, symObjAddr: 0x38C, symBinAddr: 0x2E42C, symSize: 0xE4 }
  - { offset: 0x8984F, size: 0x8, addend: 0x0, symName: '__ZN4core5array40_$LT$impl$u20$$u5b$T$u3b$$u20$N$u5d$$GT$3map17h2be7cb37a170ae49E', symObjAddr: 0x470, symBinAddr: 0x2E510, symSize: 0x38 }
  - { offset: 0x898A7, size: 0x8, addend: 0x0, symName: '__ZN4core5array40_$LT$impl$u20$$u5b$T$u3b$$u20$N$u5d$$GT$3map17h711d6b537a240463E', symObjAddr: 0x4A8, symBinAddr: 0x2E548, symSize: 0x30 }
  - { offset: 0x898FF, size: 0x8, addend: 0x0, symName: '__ZN4core5array40_$LT$impl$u20$$u5b$T$u3b$$u20$N$u5d$$GT$7try_map17h709ab2a12b500cb9E', symObjAddr: 0x4D8, symBinAddr: 0x2E578, symSize: 0xB4 }
  - { offset: 0x89A4D, size: 0x8, addend: 0x0, symName: '__ZN4core5array40_$LT$impl$u20$$u5b$T$u3b$$u20$N$u5d$$GT$7try_map17h7cf04a6150546a47E', symObjAddr: 0x58C, symBinAddr: 0x2E62C, symSize: 0xB4 }
  - { offset: 0x89CA7, size: 0x8, addend: 0x0, symName: '__ZN4core5array98_$LT$impl$u20$core..iter..traits..collect..IntoIterator$u20$for$u20$$RF$$u5b$T$u3b$$u20$N$u5d$$GT$9into_iter17h363b02e8111762e8E', symObjAddr: 0x640, symBinAddr: 0x2E6E0, symSize: 0x58 }
  - { offset: 0x8A555, size: 0x8, addend: 0x0, symName: '__ZN4core5array14Guard$LT$T$GT$14push_unchecked17h7afa6685eddc4d76E', symObjAddr: 0xC8, symBinAddr: 0x2E168, symSize: 0xD4 }
  - { offset: 0x8A6C2, size: 0x8, addend: 0x0, symName: '__ZN4core5array14Guard$LT$T$GT$14push_unchecked17ha4896b9e953f5150E', symObjAddr: 0x19C, symBinAddr: 0x2E23C, symSize: 0xE4 }
  - { offset: 0x8AAF8, size: 0x8, addend: 0x0, symName: __ZN21unicode_normalization11quick_check6is_nfc17h583feda0da86a219E, symObjAddr: 0x0, symBinAddr: 0x2E738, symSize: 0xC8 }
  - { offset: 0x8AB0F, size: 0x8, addend: 0x0, symName: __ZN21unicode_normalization11quick_check6is_nfc17h583feda0da86a219E, symObjAddr: 0x0, symBinAddr: 0x2E738, symSize: 0xC8 }
  - { offset: 0x8AB3B, size: 0x8, addend: 0x0, symName: __ZN21unicode_normalization11quick_check6is_nfd17h7192df4b77b6b1a5E, symObjAddr: 0xC8, symBinAddr: 0x2E800, symSize: 0xC4 }
  - { offset: 0x8AB67, size: 0x8, addend: 0x0, symName: __ZN21unicode_normalization11quick_check7is_nfkc17h049381d1720b3bd3E, symObjAddr: 0x18C, symBinAddr: 0x2E8C4, symSize: 0xC8 }
  - { offset: 0x8AB93, size: 0x8, addend: 0x0, symName: __ZN21unicode_normalization11quick_check7is_nfkd17h3c4a379beaa039b1E, symObjAddr: 0x254, symBinAddr: 0x2E98C, symSize: 0xC4 }
  - { offset: 0x8AC1B, size: 0x8, addend: 0x0, symName: __ZN4pyo35types4dict12DictIterImpl14next_unchecked17h531dcaabfd1627daE, symObjAddr: 0x0, symBinAddr: 0x2EA50, symSize: 0x1C4 }
  - { offset: 0x8AD18, size: 0x8, addend: 0x0, symName: '__ZN95_$LT$pyo3..types..dict..BoundDictIterator$u20$as$u20$core..iter..traits..iterator..Iterator$GT$4next17h7a58b58c6d22d008E', symObjAddr: 0x1C4, symBinAddr: 0x2EC14, symSize: 0x2C }
  - { offset: 0x8B0C8, size: 0x8, addend: 0x0, symName: __ZN4pyo35types4dict12DictIterImpl14next_unchecked17h531dcaabfd1627daE, symObjAddr: 0x0, symBinAddr: 0x2EA50, symSize: 0x1C4 }
  - { offset: 0x8B1D0, size: 0x8, addend: 0x0, symName: '__ZN104_$LT$core..str..pattern..MultiCharEqSearcher$LT$C$GT$$u20$as$u20$core..str..pattern..ReverseSearcher$GT$9next_back17hd2fb9605e4a1d325E', symObjAddr: 0x0, symBinAddr: 0x2EC40, symSize: 0x128 }
  - { offset: 0x8B4D9, size: 0x8, addend: 0x0, symName: '__ZN104_$LT$core..str..pattern..MultiCharEqSearcher$LT$C$GT$$u20$as$u20$core..str..pattern..ReverseSearcher$GT$9next_back17hd2fb9605e4a1d325E', symObjAddr: 0x0, symBinAddr: 0x2EC40, symSize: 0x128 }
  - { offset: 0x8B5F7, size: 0x8, addend: 0x0, symName: '__ZN104_$LT$core..str..pattern..MultiCharEqSearcher$LT$C$GT$$u20$as$u20$core..str..pattern..ReverseSearcher$GT$9next_back17hda87d9c8a2600ef3E', symObjAddr: 0x128, symBinAddr: 0x2ED68, symSize: 0x128 }
  - { offset: 0x8B71B, size: 0x8, addend: 0x0, symName: '__ZN106_$LT$core..str..pattern..CharPredicateSearcher$LT$F$GT$$u20$as$u20$core..str..pattern..ReverseSearcher$GT$16next_reject_back17h02db5b721e0cbb20E', symObjAddr: 0x250, symBinAddr: 0x2EE90, symSize: 0x24 }
  - { offset: 0x8B752, size: 0x8, addend: 0x0, symName: '__ZN106_$LT$core..str..pattern..CharPredicateSearcher$LT$F$GT$$u20$as$u20$core..str..pattern..ReverseSearcher$GT$16next_reject_back17h9f8a04356e5dc6cbE', symObjAddr: 0x274, symBinAddr: 0x2EEB4, symSize: 0x24 }
  - { offset: 0x8B90D, size: 0x8, addend: 0x0, symName: __ZN4core3str7pattern15ReverseSearcher16next_reject_back17h32f97869bcb3261eE, symObjAddr: 0xC90, symBinAddr: 0x2F8D0, symSize: 0x90 }
  - { offset: 0x8B972, size: 0x8, addend: 0x0, symName: __ZN4core3str7pattern15ReverseSearcher16next_reject_back17hfc4962638b7e5abbE, symObjAddr: 0xD20, symBinAddr: 0x2F960, symSize: 0x90 }
  - { offset: 0x8B9DD, size: 0x8, addend: 0x0, symName: __ZN4core3str7pattern8Searcher11next_reject17h3ad370be30c5f5b5E, symObjAddr: 0xDB0, symBinAddr: 0x2F9F0, symSize: 0x90 }
  - { offset: 0x8BA42, size: 0x8, addend: 0x0, symName: __ZN4core3str7pattern8Searcher11next_reject17h990774928f3f4543E, symObjAddr: 0xE40, symBinAddr: 0x2FA80, symSize: 0x90 }
  - { offset: 0x8BAAD, size: 0x8, addend: 0x0, symName: '__ZN95_$LT$core..str..pattern..MultiCharEqPattern$LT$C$GT$$u20$as$u20$core..str..pattern..Pattern$GT$13into_searcher17h69ae4d8c012e5069E', symObjAddr: 0xED0, symBinAddr: 0x2FB10, symSize: 0x90 }
  - { offset: 0x8BB09, size: 0x8, addend: 0x0, symName: '__ZN95_$LT$core..str..pattern..MultiCharEqPattern$LT$C$GT$$u20$as$u20$core..str..pattern..Pattern$GT$13into_searcher17hb3f9fd145029ebf4E', symObjAddr: 0xF60, symBinAddr: 0x2FBA0, symSize: 0x90 }
  - { offset: 0x8BB6B, size: 0x8, addend: 0x0, symName: '__ZN97_$LT$core..str..pattern..MultiCharEqSearcher$LT$C$GT$$u20$as$u20$core..str..pattern..Searcher$GT$4next17hc798c917eb63145bE', symObjAddr: 0xFF0, symBinAddr: 0x2FC30, symSize: 0x128 }
  - { offset: 0x8BC89, size: 0x8, addend: 0x0, symName: '__ZN97_$LT$core..str..pattern..MultiCharEqSearcher$LT$C$GT$$u20$as$u20$core..str..pattern..Searcher$GT$4next17hc994c4eef0b77ea9E', symObjAddr: 0x1118, symBinAddr: 0x2FD58, symSize: 0x128 }
  - { offset: 0x8BDAD, size: 0x8, addend: 0x0, symName: '__ZN99_$LT$core..str..pattern..CharPredicateSearcher$LT$F$GT$$u20$as$u20$core..str..pattern..Searcher$GT$11next_reject17h4e9af0b13fd66da1E', symObjAddr: 0x1240, symBinAddr: 0x2FE80, symSize: 0x24 }
  - { offset: 0x8BDE4, size: 0x8, addend: 0x0, symName: '__ZN99_$LT$core..str..pattern..CharPredicateSearcher$LT$F$GT$$u20$as$u20$core..str..pattern..Searcher$GT$11next_reject17hba984c5673fd1547E', symObjAddr: 0x1264, symBinAddr: 0x2FEA4, symSize: 0x24 }
  - { offset: 0x8C6A6, size: 0x8, addend: 0x0, symName: __ZN4core3str7pattern14TwoWaySearcher9next_back17h65e4a1faf171523fE, symObjAddr: 0x298, symBinAddr: 0x2EED8, symSize: 0x4FC }
  - { offset: 0x8CA05, size: 0x8, addend: 0x0, symName: __ZN4core3str7pattern14TwoWaySearcher9next_back17he2eac46e9153e33fE, symObjAddr: 0x794, symBinAddr: 0x2F3D4, symSize: 0x4FC }
  - { offset: 0x8CDCC, size: 0x8, addend: 0x0, symName: '__ZN128_$LT$pyo3..impl_..pyclass_init..PyNativeTypeInitializer$LT$T$GT$$u20$as$u20$pyo3..impl_..pyclass_init..PyObjectInit$LT$T$GT$$GT$15into_new_object17hd6c017db8253b9bbE', symObjAddr: 0x0, symBinAddr: 0x2FEC8, symSize: 0x3C }
  - { offset: 0x8CE54, size: 0x8, addend: 0x0, symName: '__ZN128_$LT$pyo3..impl_..pyclass_init..PyNativeTypeInitializer$LT$T$GT$$u20$as$u20$pyo3..impl_..pyclass_init..PyObjectInit$LT$T$GT$$GT$15into_new_object17hd6c017db8253b9bbE', symObjAddr: 0x0, symBinAddr: 0x2FEC8, symSize: 0x3C }
  - { offset: 0x8CED8, size: 0x8, addend: 0x0, symName: '__ZN128_$LT$pyo3..impl_..pyclass_init..PyNativeTypeInitializer$LT$T$GT$$u20$as$u20$pyo3..impl_..pyclass_init..PyObjectInit$LT$T$GT$$GT$17can_be_subclassed17hcf33f10308fa4f35E', symObjAddr: 0x3C, symBinAddr: 0x2FF04, symSize: 0x18 }
  - { offset: 0x8D806, size: 0x8, addend: 0x0, symName: __ZN4pyo36marker6Python19assume_gil_acquired17h5cb8b6b85e3b6e75E, symObjAddr: 0x0, symBinAddr: 0x2FF1C, symSize: 0x4 }
  - { offset: 0x8DA4B, size: 0x8, addend: 0x0, symName: __ZN4pyo36marker6Python19assume_gil_acquired17h5cb8b6b85e3b6e75E, symObjAddr: 0x0, symBinAddr: 0x2FF1C, symSize: 0x4 }
  - { offset: 0x8DA9A, size: 0x8, addend: 0x0, symName: __ZN4pyo36marker6Python4None17h433e5e3cdade288bE, symObjAddr: 0x4, symBinAddr: 0x2FF20, symSize: 0x28 }
  - { offset: 0x8DAE7, size: 0x8, addend: 0x0, symName: '__ZN4core3str6traits110_$LT$impl$u20$core..slice..index..SliceIndex$LT$str$GT$$u20$for$u20$core..ops..range..RangeTo$LT$usize$GT$$GT$3get17hfb745b7c96101c09E', symObjAddr: 0x0, symBinAddr: 0x2FF48, symSize: 0x140 }
  - { offset: 0x8DBC1, size: 0x8, addend: 0x0, symName: '__ZN4core3str6traits110_$LT$impl$u20$core..slice..index..SliceIndex$LT$str$GT$$u20$for$u20$core..ops..range..RangeTo$LT$usize$GT$$GT$3get17hfb745b7c96101c09E', symObjAddr: 0x0, symBinAddr: 0x2FF48, symSize: 0x140 }
  - { offset: 0x8DCE2, size: 0x8, addend: 0x0, symName: '__ZN4core3str6traits110_$LT$impl$u20$core..slice..index..SliceIndex$LT$str$GT$$u20$for$u20$core..ops..range..RangeTo$LT$usize$GT$$GT$5index17h185fe01a911d89b8E', symObjAddr: 0x140, symBinAddr: 0x30088, symSize: 0x84 }
  - { offset: 0x8DD75, size: 0x8, addend: 0x0, symName: '__ZN4core3str6traits112_$LT$impl$u20$core..slice..index..SliceIndex$LT$str$GT$$u20$for$u20$core..ops..range..RangeFrom$LT$usize$GT$$GT$3get17h2f31edc2720eb3b1E', symObjAddr: 0x1C4, symBinAddr: 0x3010C, symSize: 0x150 }
  - { offset: 0x8DEF0, size: 0x8, addend: 0x0, symName: '__ZN4core3str6traits112_$LT$impl$u20$core..slice..index..SliceIndex$LT$str$GT$$u20$for$u20$core..ops..range..RangeFrom$LT$usize$GT$$GT$5index17h6af9ab1e076790fcE', symObjAddr: 0x314, symBinAddr: 0x3025C, symSize: 0x88 }
  - { offset: 0x8E2D5, size: 0x8, addend: 0x0, symName: __ZN14regex_automata4util6search4Span3len17habce599c50d57814E, symObjAddr: 0x0, symBinAddr: 0x302E4, symSize: 0x40 }
  - { offset: 0x8E573, size: 0x8, addend: 0x0, symName: __ZN14regex_automata4util6search4Span3len17habce599c50d57814E, symObjAddr: 0x0, symBinAddr: 0x302E4, symSize: 0x40 }
  - { offset: 0x8E5C3, size: 0x8, addend: 0x0, symName: __ZN14regex_automata4util6search4Span8is_empty17hada4dc6d26a3fab4E, symObjAddr: 0x40, symBinAddr: 0x30324, symSize: 0x24 }
  - { offset: 0x8E628, size: 0x8, addend: 0x0, symName: __ZN14regex_automata4util6search5Input12get_anchored17h10b9e57777689ef6E, symObjAddr: 0x64, symBinAddr: 0x30348, symSize: 0x20 }
  - { offset: 0x8E64B, size: 0x8, addend: 0x0, symName: __ZN14regex_automata4util6search5Input3end17hf5d0f9c728fcc999E, symObjAddr: 0x84, symBinAddr: 0x30368, symSize: 0x28 }
  - { offset: 0x8E66E, size: 0x8, addend: 0x0, symName: __ZN14regex_automata4util6search5Input5start17h65a3cb9d33e066afE, symObjAddr: 0xAC, symBinAddr: 0x30390, symSize: 0x24 }
  - { offset: 0x8E691, size: 0x8, addend: 0x0, symName: __ZN14regex_automata4util6search5Input8get_span17h083ba357d878812aE, symObjAddr: 0xD0, symBinAddr: 0x303B4, symSize: 0x20 }
  - { offset: 0x8E6B4, size: 0x8, addend: 0x0, symName: __ZN14regex_automata4util6search5Input8haystack17h873f3be83c5508a0E, symObjAddr: 0xF0, symBinAddr: 0x303D4, symSize: 0x20 }
  - { offset: 0x8E6E4, size: 0x8, addend: 0x0, symName: __ZN14regex_automata4util6search5Input9set_start17h9002230a714ffd4bE, symObjAddr: 0x110, symBinAddr: 0x303F4, symSize: 0x40 }
  - { offset: 0x8E723, size: 0x8, addend: 0x0, symName: __ZN14regex_automata4util6search5Match3end17h59a31a5a43060467E, symObjAddr: 0x150, symBinAddr: 0x30434, symSize: 0x28 }
  - { offset: 0x8E746, size: 0x8, addend: 0x0, symName: __ZN14regex_automata4util6search5Match4span17h3640987301555b80E, symObjAddr: 0x178, symBinAddr: 0x3045C, symSize: 0x20 }
  - { offset: 0x8E769, size: 0x8, addend: 0x0, symName: __ZN14regex_automata4util6search5Match5start17hc8674b7eea594adbE, symObjAddr: 0x198, symBinAddr: 0x3047C, symSize: 0x24 }
  - { offset: 0x8E78C, size: 0x8, addend: 0x0, symName: __ZN14regex_automata4util6search5Match8is_empty17hb93c846fa5c3fde4E, symObjAddr: 0x1BC, symBinAddr: 0x304A0, symSize: 0x38 }
  - { offset: 0x8E7BC, size: 0x8, addend: 0x0, symName: __ZN14regex_automata4util6search8Anchored11is_anchored17hfaeecda015bd8ce6E, symObjAddr: 0x1F4, symBinAddr: 0x304D8, symSize: 0x40 }
  - { offset: 0x8E7FD, size: 0x8, addend: 0x0, symName: '__ZN9_translit8grapheme15_grapheme_split28_$u7b$$u7b$closure$u7d$$u7d$17h6b51983c6559525fE', symObjAddr: 0x0, symBinAddr: 0x30518, symSize: 0x38 }
  - { offset: 0x8E819, size: 0x8, addend: 0x0, symName: '__ZN9_translit8grapheme15_grapheme_split28_$u7b$$u7b$closure$u7d$$u7d$17h6b51983c6559525fE', symObjAddr: 0x0, symBinAddr: 0x30518, symSize: 0x38 }
  - { offset: 0x8EA36, size: 0x8, addend: 0x0, symName: '__ZN9once_cell3imp17OnceCell$LT$T$GT$10initialize17ha079c8bdc2001c66E', symObjAddr: 0x0, symBinAddr: 0x310974, symSize: 0x8C }
  - { offset: 0x8EA65, size: 0x8, addend: 0x0, symName: '__ZN9once_cell3imp17OnceCell$LT$T$GT$10initialize28_$u7b$$u7b$closure$u7d$$u7d$17h53f65e2864d0a1c6E', symObjAddr: 0x2B4, symBinAddr: 0x30550, symSize: 0x1B8 }
  - { offset: 0x8EB00, size: 0x8, addend: 0x0, symName: '__ZN9once_cell3imp17OnceCell$LT$T$GT$10initialize28_$u7b$$u7b$closure$u7d$$u7d$17h7881d101afc3e764E', symObjAddr: 0x46C, symBinAddr: 0x30708, symSize: 0x194 }
  - { offset: 0x8EB9B, size: 0x8, addend: 0x0, symName: '__ZN9once_cell3imp17OnceCell$LT$T$GT$10initialize28_$u7b$$u7b$closure$u7d$$u7d$17had30d6c1342b64d9E', symObjAddr: 0x600, symBinAddr: 0x3089C, symSize: 0x1B8 }
  - { offset: 0x8EC36, size: 0x8, addend: 0x0, symName: '__ZN9once_cell3imp17OnceCell$LT$T$GT$10initialize28_$u7b$$u7b$closure$u7d$$u7d$17he547c91cc6fa6499E', symObjAddr: 0x7B8, symBinAddr: 0x30A54, symSize: 0x1B8 }
  - { offset: 0x8ECD1, size: 0x8, addend: 0x0, symName: '__ZN9once_cell3imp17OnceCell$LT$T$GT$10initialize28_$u7b$$u7b$closure$u7d$$u7d$17hf7a336c06c4c8651E', symObjAddr: 0x970, symBinAddr: 0x30C0C, symSize: 0x1B8 }
  - { offset: 0x90B5F, size: 0x8, addend: 0x0, symName: '__ZN9once_cell3imp17OnceCell$LT$T$GT$10initialize17ha079c8bdc2001c66E', symObjAddr: 0x0, symBinAddr: 0x310974, symSize: 0x8C }
  - { offset: 0x90C44, size: 0x8, addend: 0x0, symName: '__ZN9once_cell3imp17OnceCell$LT$T$GT$10initialize17ha950c2e497e50237E', symObjAddr: 0x8C, symBinAddr: 0x310A00, symSize: 0x84 }
  - { offset: 0x90D29, size: 0x8, addend: 0x0, symName: '__ZN9once_cell3imp17OnceCell$LT$T$GT$10initialize17had6bf7f9872ce0a4E', symObjAddr: 0x110, symBinAddr: 0x310A84, symSize: 0x8C }
  - { offset: 0x90E0E, size: 0x8, addend: 0x0, symName: '__ZN9once_cell3imp17OnceCell$LT$T$GT$10initialize17hd1b3c3b00e7b0adaE', symObjAddr: 0x19C, symBinAddr: 0x310B10, symSize: 0x8C }
  - { offset: 0x90EF3, size: 0x8, addend: 0x0, symName: '__ZN9once_cell3imp17OnceCell$LT$T$GT$10initialize17hf17744d533c5c89cE', symObjAddr: 0x228, symBinAddr: 0x310B9C, symSize: 0x8C }
  - { offset: 0x90FAF, size: 0x8, addend: 0x0, symName: '__ZN9once_cell3imp17OnceCell$LT$T$GT$13get_unchecked17h00e7d8c1680a104bE', symObjAddr: 0xB28, symBinAddr: 0x30DC4, symSize: 0xAC }
  - { offset: 0x91004, size: 0x8, addend: 0x0, symName: '__ZN9once_cell3imp17OnceCell$LT$T$GT$13get_unchecked17h350664f46118e202E', symObjAddr: 0xBD4, symBinAddr: 0x30E70, symSize: 0xC0 }
  - { offset: 0x91059, size: 0x8, addend: 0x0, symName: '__ZN9once_cell3imp17OnceCell$LT$T$GT$13get_unchecked17h3e39edd765b540dfE', symObjAddr: 0xC94, symBinAddr: 0x30F30, symSize: 0xC0 }
  - { offset: 0x910AE, size: 0x8, addend: 0x0, symName: '__ZN9once_cell3imp17OnceCell$LT$T$GT$13get_unchecked17h854a7e8125fb5927E', symObjAddr: 0xD54, symBinAddr: 0x30FF0, symSize: 0xC0 }
  - { offset: 0x91103, size: 0x8, addend: 0x0, symName: '__ZN9once_cell3imp17OnceCell$LT$T$GT$13get_unchecked17hf595cd0667bad271E', symObjAddr: 0xE14, symBinAddr: 0x310B0, symSize: 0xC0 }
  - { offset: 0x91152, size: 0x8, addend: 0x0, symName: '__ZN9once_cell3imp17OnceCell$LT$T$GT$14is_initialized17h112d8458397bfdc2E', symObjAddr: 0xED4, symBinAddr: 0x31170, symSize: 0x30 }
  - { offset: 0x9117D, size: 0x8, addend: 0x0, symName: '__ZN9once_cell3imp17OnceCell$LT$T$GT$14is_initialized17h2808c238e51541f7E', symObjAddr: 0xF04, symBinAddr: 0x311A0, symSize: 0x30 }
  - { offset: 0x911A8, size: 0x8, addend: 0x0, symName: '__ZN9once_cell3imp17OnceCell$LT$T$GT$14is_initialized17h33000bce7b018e3dE', symObjAddr: 0xF34, symBinAddr: 0x311D0, symSize: 0x30 }
  - { offset: 0x911D3, size: 0x8, addend: 0x0, symName: '__ZN9once_cell3imp17OnceCell$LT$T$GT$14is_initialized17h6f3642b40e8eae60E', symObjAddr: 0xF64, symBinAddr: 0x31200, symSize: 0x30 }
  - { offset: 0x911FE, size: 0x8, addend: 0x0, symName: '__ZN9once_cell3imp17OnceCell$LT$T$GT$14is_initialized17hdb88851bf57279a2E', symObjAddr: 0xF94, symBinAddr: 0x31230, symSize: 0x30 }
  - { offset: 0x91288, size: 0x8, addend: 0x0, symName: '__ZN103_$LT$regex_automata..meta..regex..CapturesMatches$u20$as$u20$core..iter..traits..iterator..Iterator$GT$4next28_$u7b$$u7b$closure$u7d$$u7d$17h09c6dc4534e6a7fbE', symObjAddr: 0x0, symBinAddr: 0x31260, symSize: 0x7C }
  - { offset: 0x9190C, size: 0x8, addend: 0x0, symName: '__ZN103_$LT$regex_automata..meta..regex..CapturesMatches$u20$as$u20$core..iter..traits..iterator..Iterator$GT$4next28_$u7b$$u7b$closure$u7d$$u7d$17h09c6dc4534e6a7fbE', symObjAddr: 0x0, symBinAddr: 0x31260, symSize: 0x7C }
  - { offset: 0x91BA5, size: 0x8, addend: 0x0, symName: '__ZN14regex_automata4meta5regex5Regex19static_captures_len28_$u7b$$u7b$closure$u7d$$u7d$17hd65d44c8da70d597E', symObjAddr: 0x1F8, symBinAddr: 0x31458, symSize: 0x34 }
  - { offset: 0x93B34, size: 0x8, addend: 0x0, symName: __ZN14regex_automata4meta5regex5Regex13captures_iter17h705a0f4131faa2a6E, symObjAddr: 0x7C, symBinAddr: 0x312DC, symSize: 0x17C }
  - { offset: 0x93BBB, size: 0x8, addend: 0x0, symName: __ZN14regex_automata4meta5regex5Regex9find_iter17hf26dff7f84ecffa9E, symObjAddr: 0x22C, symBinAddr: 0x3148C, symSize: 0x110 }
  - { offset: 0x93C63, size: 0x8, addend: 0x0, symName: __ZN3std5panic12catch_unwind17h07fb9d154a9ac044E, symObjAddr: 0x0, symBinAddr: 0x3159C, symSize: 0xCC }
  - { offset: 0x94C6F, size: 0x8, addend: 0x0, symName: __ZN3std5panic12catch_unwind17h07fb9d154a9ac044E, symObjAddr: 0x0, symBinAddr: 0x3159C, symSize: 0xCC }
  - { offset: 0x94D21, size: 0x8, addend: 0x0, symName: __ZN3std5panic12catch_unwind17h63dec918a3308f3cE, symObjAddr: 0xCC, symBinAddr: 0x31668, symSize: 0xCC }
  - { offset: 0x94DD3, size: 0x8, addend: 0x0, symName: __ZN3std5panic12catch_unwind17hf24f513186912f3bE, symObjAddr: 0x198, symBinAddr: 0x31734, symSize: 0xC0 }
  - { offset: 0x94E65, size: 0x8, addend: 0x0, symName: __ZN3std5panic12catch_unwind17hf96e63566bf26e0cE, symObjAddr: 0x258, symBinAddr: 0x317F4, symSize: 0xB0 }
  - { offset: 0x94EF7, size: 0x8, addend: 0x0, symName: __ZN3std5panic12catch_unwind17hfda38bfa43391918E, symObjAddr: 0x308, symBinAddr: 0x318A4, symSize: 0xC0 }
  - { offset: 0x951DF, size: 0x8, addend: 0x0, symName: __ZN9_translit6tables6hangul15romanize_hangul17h58503e13220b1d82E, symObjAddr: 0x0, symBinAddr: 0x319B8, symSize: 0x3E8 }
  - { offset: 0x95208, size: 0x8, addend: 0x0, symName: __ZN9_translit6tables6hangul11COMPAT_JAMO17hf2ccf74ffb7f294cE, symObjAddr: 0x940, symBinAddr: 0x583920, symSize: 0x0 }
  - { offset: 0x95222, size: 0x8, addend: 0x0, symName: __ZN9_translit6tables6hangul8CHOSEONG17h275d3b97289a003cE, symObjAddr: 0xB40, symBinAddr: 0x583B20, symSize: 0x0 }
  - { offset: 0x9523C, size: 0x8, addend: 0x0, symName: __ZN9_translit6tables6hangul9JONGSEONG17h8d9f402ca0e40e18E, symObjAddr: 0xD10, symBinAddr: 0x583CF0, symSize: 0x0 }
  - { offset: 0x95256, size: 0x8, addend: 0x0, symName: __ZN9_translit6tables6hangul9JUNGSEONG17h49f2e1ed6052c8efE, symObjAddr: 0xE70, symBinAddr: 0x583E50, symSize: 0x0 }
  - { offset: 0x95263, size: 0x8, addend: 0x0, symName: __ZN9_translit6tables6hangul15romanize_hangul17h58503e13220b1d82E, symObjAddr: 0x0, symBinAddr: 0x319B8, symSize: 0x3E8 }
  - { offset: 0x9569A, size: 0x8, addend: 0x0, symName: '__ZN4pyo311conversions3std3num68_$LT$impl$u20$pyo3..conversion..IntoPyObject$u20$for$u20$$RF$u32$GT$13into_pyobject17hc2969c965eda77c4E', symObjAddr: 0x0, symBinAddr: 0x31DA0, symSize: 0x28 }
  - { offset: 0x95727, size: 0x8, addend: 0x0, symName: '__ZN4pyo311conversions3std3num68_$LT$impl$u20$pyo3..conversion..IntoPyObject$u20$for$u20$$RF$u32$GT$13into_pyobject17hc2969c965eda77c4E', symObjAddr: 0x0, symBinAddr: 0x31DA0, symSize: 0x28 }
  - { offset: 0x95A79, size: 0x8, addend: 0x0, symName: '__ZN96_$LT$pyo3..pycell..impl_..BorrowChecker$u20$as$u20$pyo3..pycell..impl_..PyClassBorrowChecker$GT$3new17he692efe800a83452E', symObjAddr: 0x0, symBinAddr: 0x31DC8, symSize: 0x40 }
  - { offset: 0x95A9A, size: 0x8, addend: 0x0, symName: '__ZN96_$LT$pyo3..pycell..impl_..BorrowChecker$u20$as$u20$pyo3..pycell..impl_..PyClassBorrowChecker$GT$3new17he692efe800a83452E', symObjAddr: 0x0, symBinAddr: 0x31DC8, symSize: 0x40 }
  - { offset: 0x95B55, size: 0x8, addend: 0x0, symName: __ZN21unicode_normalization11quick_check11quick_check17h3057cb5cc8864bc6E, symObjAddr: 0x0, symBinAddr: 0x31E08, symSize: 0x288 }
  - { offset: 0x95B8A, size: 0x8, addend: 0x0, symName: __ZN21unicode_normalization11quick_check11quick_check17h3057cb5cc8864bc6E, symObjAddr: 0x0, symBinAddr: 0x31E08, symSize: 0x288 }
  - { offset: 0x95C7D, size: 0x8, addend: 0x0, symName: __ZN21unicode_normalization11quick_check11quick_check17h464eb5afa50d3b30E, symObjAddr: 0x288, symBinAddr: 0x32090, symSize: 0x288 }
  - { offset: 0x95D70, size: 0x8, addend: 0x0, symName: __ZN21unicode_normalization11quick_check11quick_check17hb6e68ba61e02268aE, symObjAddr: 0x510, symBinAddr: 0x32318, symSize: 0x288 }
  - { offset: 0x95E63, size: 0x8, addend: 0x0, symName: __ZN21unicode_normalization11quick_check11quick_check17hc5b0e559a5acdaa1E, symObjAddr: 0x798, symBinAddr: 0x325A0, symSize: 0x288 }
  - { offset: 0x95F56, size: 0x8, addend: 0x0, symName: __ZN21unicode_normalization11quick_check12is_nfc_quick17h8f4b72e6e4956b43E, symObjAddr: 0xA20, symBinAddr: 0x32828, symSize: 0x34 }
  - { offset: 0x95F8B, size: 0x8, addend: 0x0, symName: __ZN21unicode_normalization11quick_check12is_nfd_quick17h0c77a6782736dc2dE, symObjAddr: 0xA54, symBinAddr: 0x3285C, symSize: 0x34 }
  - { offset: 0x95FC0, size: 0x8, addend: 0x0, symName: __ZN21unicode_normalization11quick_check13is_nfkc_quick17he97736d56a9cb775E, symObjAddr: 0xA88, symBinAddr: 0x32890, symSize: 0x34 }
  - { offset: 0x95FF5, size: 0x8, addend: 0x0, symName: __ZN21unicode_normalization11quick_check13is_nfkd_quick17h0372c59708a3f0f9E, symObjAddr: 0xABC, symBinAddr: 0x328C4, symSize: 0x34 }
  - { offset: 0x96176, size: 0x8, addend: 0x0, symName: __ZN9_translit13transliterate11_list_langs17h82ba63a79e0e830fE, symObjAddr: 0x0, symBinAddr: 0x328F8, symSize: 0x14 }
  - { offset: 0x961C0, size: 0x8, addend: 0x0, symName: __ZN9_translit13transliterate11_list_langs17h82ba63a79e0e830fE, symObjAddr: 0x0, symBinAddr: 0x328F8, symSize: 0x14 }
  - { offset: 0x961DD, size: 0x8, addend: 0x0, symName: __ZN9_translit13transliterate13classify_char17h7bfebf6619a83774E, symObjAddr: 0x14, symBinAddr: 0x3290C, symSize: 0x80 }
  - { offset: 0x96209, size: 0x8, addend: 0x0, symName: __ZN9_translit13transliterate14_register_lang17h782db9012336ead1E, symObjAddr: 0x94, symBinAddr: 0x3298C, symSize: 0x60 }
  - { offset: 0x96244, size: 0x8, addend: 0x0, symName: __ZN9_translit13transliterate14_strip_accents17h7d419b7559c080faE, symObjAddr: 0xF4, symBinAddr: 0x329EC, symSize: 0x68 }
  - { offset: 0x96270, size: 0x8, addend: 0x0, symName: __ZN9_translit13transliterate14_transliterate17h8ff2b702c4958f2eE, symObjAddr: 0x15C, symBinAddr: 0x32A54, symSize: 0x144 }
  - { offset: 0x96315, size: 0x8, addend: 0x0, symName: __ZN9_translit13transliterate15needs_cjk_space17ha94e0d3024eab68cE, symObjAddr: 0x2A0, symBinAddr: 0x32B98, symSize: 0x180 }
  - { offset: 0x9634F, size: 0x8, addend: 0x0, symName: __ZN9_translit13transliterate16is_cjk_ideograph17h6f80a33216686169E, symObjAddr: 0x420, symBinAddr: 0x32D18, symSize: 0x7C }
  - { offset: 0x96398, size: 0x8, addend: 0x0, symName: __ZN9_translit13transliterate17estimate_capacity17h101def63c7d1b6cfE, symObjAddr: 0x49C, symBinAddr: 0x32D94, symSize: 0x90 }
  - { offset: 0x963D9, size: 0x8, addend: 0x0, symName: __ZN9_translit13transliterate18transliterate_impl17h502090d92b57df80E, symObjAddr: 0x52C, symBinAddr: 0x32E24, symSize: 0x538 }
  - { offset: 0x9655C, size: 0x8, addend: 0x0, symName: __ZN9_translit13transliterate19_clear_replacements17heb24622bce50d40bE, symObjAddr: 0xA64, symBinAddr: 0x3335C, symSize: 0x28 }
  - { offset: 0x9657A, size: 0x8, addend: 0x0, symName: __ZN9_translit13transliterate19_remove_replacement17hc8c5fa041225f4adE, symObjAddr: 0xA8C, symBinAddr: 0x33384, symSize: 0x38 }
  - { offset: 0x965A8, size: 0x8, addend: 0x0, symName: __ZN9_translit13transliterate20_strip_accents_batch17h7feb6eacc6a9efe4E, symObjAddr: 0xAC4, symBinAddr: 0x333BC, symSize: 0xA4 }
  - { offset: 0x965D7, size: 0x8, addend: 0x0, symName: __ZN9_translit13transliterate20_transliterate_batch17h866abd34eee95c36E, symObjAddr: 0xB68, symBinAddr: 0x33460, symSize: 0x1B0 }
  - { offset: 0x966A3, size: 0x8, addend: 0x0, symName: __ZN9_translit13transliterate22__pyfunction__is_ascii17h02398ce555612e82E, symObjAddr: 0xD18, symBinAddr: 0x33610, symSize: 0x2EC }
  - { offset: 0x96815, size: 0x8, addend: 0x0, symName: __ZN9_translit13transliterate22_register_replacements17haf3bb1bba222b96dE, symObjAddr: 0x1004, symBinAddr: 0x338FC, symSize: 0x44 }
  - { offset: 0x96844, size: 0x8, addend: 0x0, symName: __ZN9_translit13transliterate24__pyfunction__list_langs17he6924d5d8b427343E, symObjAddr: 0x1048, symBinAddr: 0x33940, symSize: 0x17C }
  - { offset: 0x968DF, size: 0x8, addend: 0x0, symName: __ZN9_translit13transliterate27__pyfunction__register_lang17hbdd46d150ff6fbdfE, symObjAddr: 0x11C4, symBinAddr: 0x33ABC, symSize: 0x4AC }
  - { offset: 0x96A6D, size: 0x8, addend: 0x0, symName: __ZN9_translit13transliterate27__pyfunction__strip_accents17h1f6b73f34f9869b1E, symObjAddr: 0x1670, symBinAddr: 0x33F68, symSize: 0x37C }
  - { offset: 0x96BD7, size: 0x8, addend: 0x0, symName: __ZN9_translit13transliterate27__pyfunction__transliterate17haf7bfd3a0133f431E, symObjAddr: 0x19EC, symBinAddr: 0x342E4, symSize: 0x7E4 }
  - { offset: 0x96DE9, size: 0x8, addend: 0x0, symName: __ZN9_translit13transliterate32__pyfunction__clear_replacements17h8e272799cc32685bE, symObjAddr: 0x21D0, symBinAddr: 0x34AC8, symSize: 0x180 }
  - { offset: 0x96E8D, size: 0x8, addend: 0x0, symName: __ZN9_translit13transliterate32__pyfunction__remove_replacement17h98d661967c3c4d70E, symObjAddr: 0x2350, symBinAddr: 0x34C48, symSize: 0x378 }
  - { offset: 0x97008, size: 0x8, addend: 0x0, symName: __ZN9_translit13transliterate33__pyfunction__strip_accents_batch17hcb4b536b565a1810E, symObjAddr: 0x26C8, symBinAddr: 0x34FC0, symSize: 0x318 }
  - { offset: 0x97183, size: 0x8, addend: 0x0, symName: __ZN9_translit13transliterate33__pyfunction__transliterate_batch17hdfd3af46b90de58eE, symObjAddr: 0x29E0, symBinAddr: 0x352D8, symSize: 0x880 }
  - { offset: 0x973F5, size: 0x8, addend: 0x0, symName: __ZN9_translit13transliterate35__pyfunction__register_replacements17hb4d32f0b422307d8E, symObjAddr: 0x3260, symBinAddr: 0x35B58, symSize: 0x328 }
  - { offset: 0x9757A, size: 0x8, addend: 0x0, symName: '__ZN9_translit13transliterate62_$LT$impl$u20$_translit..transliterate.._is_ascii..MakeDef$GT$9_PYO3_DEF10trampoline17hb52941ab95108a53E', symObjAddr: 0x3588, symBinAddr: 0x35E80, symSize: 0x4C }
  - { offset: 0x975CE, size: 0x8, addend: 0x0, symName: '__ZN9_translit13transliterate64_$LT$impl$u20$_translit..transliterate.._list_langs..MakeDef$GT$9_PYO3_DEF10trampoline17h8ef45fb98f5c4993E', symObjAddr: 0x35D4, symBinAddr: 0x35ECC, symSize: 0x44 }
  - { offset: 0x97614, size: 0x8, addend: 0x0, symName: '__ZN9_translit13transliterate67_$LT$impl$u20$_translit..transliterate.._register_lang..MakeDef$GT$9_PYO3_DEF10trampoline17hea34ee99c99b8ecdE', symObjAddr: 0x3618, symBinAddr: 0x35F10, symSize: 0x4C }
  - { offset: 0x97668, size: 0x8, addend: 0x0, symName: '__ZN9_translit13transliterate67_$LT$impl$u20$_translit..transliterate.._strip_accents..MakeDef$GT$9_PYO3_DEF10trampoline17hfcf51e9e0a7c3e0eE', symObjAddr: 0x3664, symBinAddr: 0x35F5C, symSize: 0x4C }
  - { offset: 0x976BC, size: 0x8, addend: 0x0, symName: '__ZN9_translit13transliterate67_$LT$impl$u20$_translit..transliterate.._transliterate..MakeDef$GT$9_PYO3_DEF10trampoline17hcc9eee6fbea7a6d7E', symObjAddr: 0x36B0, symBinAddr: 0x35FA8, symSize: 0x4C }
  - { offset: 0x97710, size: 0x8, addend: 0x0, symName: '__ZN9_translit13transliterate72_$LT$impl$u20$_translit..transliterate.._clear_replacements..MakeDef$GT$9_PYO3_DEF10trampoline17h28a21da04443f354E', symObjAddr: 0x36FC, symBinAddr: 0x35FF4, symSize: 0x44 }
  - { offset: 0x97759, size: 0x8, addend: 0x0, symName: '__ZN9_translit13transliterate72_$LT$impl$u20$_translit..transliterate.._remove_replacement..MakeDef$GT$9_PYO3_DEF10trampoline17h0a7a3bb7d686faabE', symObjAddr: 0x3740, symBinAddr: 0x36038, symSize: 0x4C }
  - { offset: 0x977B1, size: 0x8, addend: 0x0, symName: '__ZN9_translit13transliterate73_$LT$impl$u20$_translit..transliterate.._strip_accents_batch..MakeDef$GT$9_PYO3_DEF10trampoline17ha20ee97c234bbf70E', symObjAddr: 0x378C, symBinAddr: 0x36084, symSize: 0x4C }
  - { offset: 0x97809, size: 0x8, addend: 0x0, symName: '__ZN9_translit13transliterate73_$LT$impl$u20$_translit..transliterate.._transliterate_batch..MakeDef$GT$9_PYO3_DEF10trampoline17h2b7d51c65b6ac0c5E', symObjAddr: 0x37D8, symBinAddr: 0x360D0, symSize: 0x4C }
  - { offset: 0x97861, size: 0x8, addend: 0x0, symName: '__ZN9_translit13transliterate75_$LT$impl$u20$_translit..transliterate.._register_replacements..MakeDef$GT$9_PYO3_DEF10trampoline17h9bd9412ac33187e8E', symObjAddr: 0x3824, symBinAddr: 0x3611C, symSize: 0x4C }
  - { offset: 0x978AF, size: 0x8, addend: 0x0, symName: __ZN9_translit13transliterate7is_kana17h5ce27c9f2f3bff9aE, symObjAddr: 0x3870, symBinAddr: 0x36168, symSize: 0x7C }
  - { offset: 0x978F8, size: 0x8, addend: 0x0, symName: __ZN9_translit13transliterate9_is_ascii17hb0a4a4f47f5598ecE, symObjAddr: 0x3A30, symBinAddr: 0x36328, symSize: 0x28 }
  - { offset: 0x97924, size: 0x8, addend: 0x0, symName: __ZN9_translit13transliterate9is_hangul17h867cfba07896f46cE, symObjAddr: 0x3A58, symBinAddr: 0x36350, symSize: 0x64 }
  - { offset: 0x98C74, size: 0x8, addend: 0x0, symName: __ZN9_translit13transliterate9ErrorMode8from_str17ha08d5a29251c9bcfE, symObjAddr: 0x38EC, symBinAddr: 0x361E4, symSize: 0x144 }
  - { offset: 0x9905E, size: 0x8, addend: 0x0, symName: '__ZN100_$LT$pyo3..types..tuple..BorrowedTupleIterator$u20$as$u20$core..iter..traits..iterator..Iterator$GT$4next17hf473c082a63b579fE', symObjAddr: 0x0, symBinAddr: 0x363B4, symSize: 0x9C }
  - { offset: 0x990E6, size: 0x8, addend: 0x0, symName: '__ZN100_$LT$pyo3..types..tuple..BorrowedTupleIterator$u20$as$u20$core..iter..traits..iterator..Iterator$GT$4next17hf473c082a63b579fE', symObjAddr: 0x0, symBinAddr: 0x363B4, symSize: 0x9C }
  - { offset: 0x994D5, size: 0x8, addend: 0x0, symName: __ZN9_translit5emoji10encode_key17h6852cb6037e9e555E, symObjAddr: 0x0, symBinAddr: 0x36450, symSize: 0x1E4 }
  - { offset: 0x994F9, size: 0x8, addend: 0x0, symName: __ZN9_translit5emoji15GLOBAL_PROVIDER17hba7eca0b257bf992E, symObjAddr: 0x3588, symBinAddr: 0x6DC750, symSize: 0x0 }
  - { offset: 0x99539, size: 0x8, addend: 0x0, symName: __ZN9_translit5emoji10encode_key17h6852cb6037e9e555E, symObjAddr: 0x0, symBinAddr: 0x36450, symSize: 0x1E4 }
  - { offset: 0x995E9, size: 0x8, addend: 0x0, symName: __ZN9_translit5emoji12set_provider17h19a1a3f80f21fb34E, symObjAddr: 0x1E4, symBinAddr: 0x36634, symSize: 0x15C }
  - { offset: 0x99626, size: 0x8, addend: 0x0, symName: __ZN9_translit5emoji13demojize_impl17hb9ad963d6c21fe86E, symObjAddr: 0x340, symBinAddr: 0x36790, symSize: 0x810 }
  - { offset: 0x9978B, size: 0x8, addend: 0x0, symName: __ZN9_translit5emoji13demojize_rust17hce39bee94e1cb2daE, symObjAddr: 0xB50, symBinAddr: 0x36FA0, symSize: 0x534 }
  - { offset: 0x99878, size: 0x8, addend: 0x0, symName: __ZN9_translit5emoji14match_emoji_at17h6b8b562e760431fbE, symObjAddr: 0x1084, symBinAddr: 0x374D4, symSize: 0x548 }
  - { offset: 0x99A57, size: 0x8, addend: 0x0, symName: __ZN9_translit5emoji17is_emoji_modifier17hacb1dc2c8607b5e4E, symObjAddr: 0x15CC, symBinAddr: 0x37A1C, symSize: 0xF4 }
  - { offset: 0x99AA0, size: 0x8, addend: 0x0, symName: __ZN9_translit5emoji18is_emoji_codepoint17h6ab72a197f46c113E, symObjAddr: 0x16C0, symBinAddr: 0x37B10, symSize: 0x13C }
  - { offset: 0x99AE9, size: 0x8, addend: 0x0, symName: __ZN9_translit5emoji19_set_emoji_provider17hbc799cc8bd5be576E, symObjAddr: 0x17FC, symBinAddr: 0x37C4C, symSize: 0x24 }
  - { offset: 0x99B13, size: 0x8, addend: 0x0, symName: __ZN9_translit5emoji19try_python_provider17h56dfa4c1673a3441E, symObjAddr: 0x1820, symBinAddr: 0x37C70, symSize: 0x4E0 }
  - { offset: 0x99D67, size: 0x8, addend: 0x0, symName: __ZN9_translit5emoji22__pyfunction__demojize17hee86da307e36991dE, symObjAddr: 0x1D00, symBinAddr: 0x38150, symSize: 0x780 }
  - { offset: 0x99F7F, size: 0x8, addend: 0x0, symName: __ZN9_translit5emoji32__pyfunction__set_emoji_provider17h8b6fb1a9662a83adE, symObjAddr: 0x2480, symBinAddr: 0x388D0, symSize: 0x22C }
  - { offset: 0x9A10C, size: 0x8, addend: 0x0, symName: '__ZN9_translit5emoji54_$LT$impl$u20$_translit..emoji.._demojize..MakeDef$GT$9_PYO3_DEF10trampoline17h8734ae67f2e31d34E', symObjAddr: 0x26AC, symBinAddr: 0x38AFC, symSize: 0x4C }
  - { offset: 0x9A160, size: 0x8, addend: 0x0, symName: '__ZN9_translit5emoji64_$LT$impl$u20$_translit..emoji.._set_emoji_provider..MakeDef$GT$9_PYO3_DEF10trampoline17haaa5569a7dcde3b4E', symObjAddr: 0x26F8, symBinAddr: 0x38B48, symSize: 0x4C }
  - { offset: 0x9A1AE, size: 0x8, addend: 0x0, symName: __ZN9_translit5emoji9_demojize17h7570053de2c3de10E, symObjAddr: 0x2888, symBinAddr: 0x38CD8, symSize: 0x2D8 }
  - { offset: 0x9BF4D, size: 0x8, addend: 0x0, symName: __ZN9_translit5emoji9ErrorMode8from_str17h0cc4229db9df1000E, symObjAddr: 0x2744, symBinAddr: 0x38B94, symSize: 0x144 }
  - { offset: 0x9C1FA, size: 0x8, addend: 0x0, symName: '__ZN4core3str4iter22SplitInternal$LT$P$GT$4next17h2ad5653f62982740E', symObjAddr: 0x0, symBinAddr: 0x38FB0, symSize: 0x13C }
  - { offset: 0x9C44A, size: 0x8, addend: 0x0, symName: '__ZN4core3str4iter29MatchIndicesInternal$LT$P$GT$4next28_$u7b$$u7b$closure$u7d$$u7d$17he426f3314485b47cE', symObjAddr: 0x260, symBinAddr: 0x39210, symSize: 0xA8 }
  - { offset: 0x9C5C8, size: 0x8, addend: 0x0, symName: '__ZN90_$LT$core..str..iter..Split$LT$P$GT$$u20$as$u20$core..iter..traits..iterator..Iterator$GT$4next17h923d9f986cb2b564E', symObjAddr: 0xE44, symBinAddr: 0x39DF4, symSize: 0x24 }
  - { offset: 0x9CFC0, size: 0x8, addend: 0x0, symName: __ZN4core4iter6traits8iterator8Iterator12try_for_each17h5aca3a6a08295b47E, symObjAddr: 0x308, symBinAddr: 0x392B8, symSize: 0x2C }
  - { offset: 0x9D018, size: 0x8, addend: 0x0, symName: __ZN4core4iter6traits8iterator8Iterator12try_for_each17h9b068040533ac5f6E, symObjAddr: 0x334, symBinAddr: 0x392E4, symSize: 0x2C }
  - { offset: 0x9D070, size: 0x8, addend: 0x0, symName: __ZN4core4iter6traits8iterator8Iterator2eq17h98ac0fabe8b6b73bE, symObjAddr: 0x360, symBinAddr: 0x39310, symSize: 0x2C }
  - { offset: 0x9D0C0, size: 0x8, addend: 0x0, symName: __ZN4core4iter6traits8iterator8Iterator2eq17heea4f04d017d8c35E, symObjAddr: 0x38C, symBinAddr: 0x3933C, symSize: 0x2C }
  - { offset: 0x9D110, size: 0x8, addend: 0x0, symName: __ZN4core4iter6traits8iterator8Iterator4find17h19e0f938ca8ca03eE, symObjAddr: 0x3B8, symBinAddr: 0x39368, symSize: 0x74 }
  - { offset: 0x9D18F, size: 0x8, addend: 0x0, symName: __ZN4core4iter6traits8iterator8Iterator4find17h8a075249d49b9461E, symObjAddr: 0x42C, symBinAddr: 0x393DC, symSize: 0x8C }
  - { offset: 0x9D20E, size: 0x8, addend: 0x0, symName: __ZN4core4iter6traits8iterator8Iterator4fold17h852f820a90068510E, symObjAddr: 0x4B8, symBinAddr: 0x39468, symSize: 0xB0 }
  - { offset: 0x9D29D, size: 0x8, addend: 0x0, symName: __ZN4core4iter6traits8iterator8Iterator4fuse17h49cd4919171191fbE, symObjAddr: 0x568, symBinAddr: 0x39518, symSize: 0x1C }
  - { offset: 0x9D2D4, size: 0x8, addend: 0x0, symName: __ZN4core4iter6traits8iterator8Iterator5eq_by17hd34cb88b1b04b51eE, symObjAddr: 0x584, symBinAddr: 0x39534, symSize: 0xA4 }
  - { offset: 0x9D33C, size: 0x8, addend: 0x0, symName: __ZN4core4iter6traits8iterator8Iterator5eq_by17hf96e0e447ea3c1d7E, symObjAddr: 0x628, symBinAddr: 0x395D8, symSize: 0xA4 }
  - { offset: 0x9D3A4, size: 0x8, addend: 0x0, symName: __ZN4core4iter6traits8iterator8Iterator6filter17h2411a981cd3e8caaE, symObjAddr: 0x6CC, symBinAddr: 0x3967C, symSize: 0x50 }
  - { offset: 0x9D409, size: 0x8, addend: 0x0, symName: __ZN4core4iter6traits8iterator8Iterator6filter17h48f584030147903bE, symObjAddr: 0x71C, symBinAddr: 0x396CC, symSize: 0x1C }
  - { offset: 0x9D458, size: 0x8, addend: 0x0, symName: __ZN4core4iter6traits8iterator8Iterator7collect17h3e60416b27ef4693E, symObjAddr: 0x738, symBinAddr: 0x396E8, symSize: 0x2C }
  - { offset: 0x9D498, size: 0x8, addend: 0x0, symName: __ZN4core4iter6traits8iterator8Iterator8peekable17h49678f262cbef127E, symObjAddr: 0x764, symBinAddr: 0x39714, symSize: 0x34 }
  - { offset: 0x9D4E4, size: 0x8, addend: 0x0, symName: __ZN4core4iter6traits8iterator8Iterator8try_fold17h05e77b08c07bd524E, symObjAddr: 0x798, symBinAddr: 0x39748, symSize: 0x13C }
  - { offset: 0x9D596, size: 0x8, addend: 0x0, symName: __ZN4core4iter6traits8iterator8Iterator8try_fold17h67363af82454186eE, symObjAddr: 0x8D4, symBinAddr: 0x39884, symSize: 0x138 }
  - { offset: 0x9D648, size: 0x8, addend: 0x0, symName: __ZN4core4iter6traits8iterator8Iterator8try_fold17hb5e195bfec9481feE, symObjAddr: 0xA0C, symBinAddr: 0x399BC, symSize: 0x13C }
  - { offset: 0x9D6FA, size: 0x8, addend: 0x0, symName: __ZN4core4iter6traits8iterator8Iterator8try_fold17hbd2221c0f12228feE, symObjAddr: 0xB48, symBinAddr: 0x39AF8, symSize: 0x190 }
  - { offset: 0x9D7B0, size: 0x8, addend: 0x0, symName: __ZN4core4iter6traits8iterator8Iterator9size_hint17hc7fbc752015feedaE, symObjAddr: 0xCD8, symBinAddr: 0x39C88, symSize: 0x34 }
  - { offset: 0x9D8B4, size: 0x8, addend: 0x0, symName: '__ZN71_$LT$A$u20$as$u20$core..iter..traits..iterator..SpecIterEq$LT$B$GT$$GT$12spec_iter_eq17h04c32d1e8aa12d35E', symObjAddr: 0xD3C, symBinAddr: 0x39CEC, symSize: 0x2C }
  - { offset: 0x9D91C, size: 0x8, addend: 0x0, symName: '__ZN71_$LT$A$u20$as$u20$core..iter..traits..iterator..SpecIterEq$LT$B$GT$$GT$12spec_iter_eq17h38bb36c5adc26ee8E', symObjAddr: 0xD68, symBinAddr: 0x39D18, symSize: 0x2C }
  - { offset: 0x9D9D8, size: 0x8, addend: 0x0, symName: '__ZN63_$LT$I$u20$as$u20$core..iter..traits..collect..IntoIterator$GT$9into_iter17h866564c4bc276bbfE', symObjAddr: 0xD0C, symBinAddr: 0x39CBC, symSize: 0x30 }
  - { offset: 0x9DC8D, size: 0x8, addend: 0x0, symName: '__ZN74_$LT$I$u20$as$u20$unicode_normalization..UnicodeNormalization$LT$I$GT$$GT$3nfc17he6aa5f399229a56cE', symObjAddr: 0xD94, symBinAddr: 0x39D44, symSize: 0x2C }
  - { offset: 0x9DCC2, size: 0x8, addend: 0x0, symName: '__ZN74_$LT$I$u20$as$u20$unicode_normalization..UnicodeNormalization$LT$I$GT$$GT$3nfd17h318e91a5864dd5b7E', symObjAddr: 0xDC0, symBinAddr: 0x39D70, symSize: 0x2C }
  - { offset: 0x9DCF7, size: 0x8, addend: 0x0, symName: '__ZN74_$LT$I$u20$as$u20$unicode_normalization..UnicodeNormalization$LT$I$GT$$GT$4nfkc17h1153bd540f17fa5bE', symObjAddr: 0xDEC, symBinAddr: 0x39D9C, symSize: 0x2C }
  - { offset: 0x9DD2C, size: 0x8, addend: 0x0, symName: '__ZN74_$LT$I$u20$as$u20$unicode_normalization..UnicodeNormalization$LT$I$GT$$GT$4nfkd17hddf4ba048ad0e88fE', symObjAddr: 0xE18, symBinAddr: 0x39DC8, symSize: 0x2C }
  - { offset: 0x9DEC2, size: 0x8, addend: 0x0, symName: '__ZN4core3str4iter22SplitInternal$LT$P$GT$4next17h2ad5653f62982740E', symObjAddr: 0x0, symBinAddr: 0x38FB0, symSize: 0x13C }
  - { offset: 0x9E006, size: 0x8, addend: 0x0, symName: '__ZN4core3str4iter22SplitInternal$LT$P$GT$7get_end17h6045d44df07a9eebE', symObjAddr: 0x13C, symBinAddr: 0x390EC, symSize: 0x124 }
  - { offset: 0x9E7CC, size: 0x8, addend: 0x0, symName: __ZN4core4sync6atomic11AtomicUsize16compare_exchange17h6033650999f416b0E, symObjAddr: 0x0, symBinAddr: 0x39E18, symSize: 0x30 }
  - { offset: 0x9E9F4, size: 0x8, addend: 0x0, symName: __ZN4core4sync6atomic11AtomicUsize16compare_exchange17h6033650999f416b0E, symObjAddr: 0x0, symBinAddr: 0x39E18, symSize: 0x30 }
  - { offset: 0x9EA53, size: 0x8, addend: 0x0, symName: __ZN4core4sync6atomic11AtomicUsize3new17h5baca32a39a372e0E, symObjAddr: 0x30, symBinAddr: 0x39E48, symSize: 0x18 }
  - { offset: 0x9EA76, size: 0x8, addend: 0x0, symName: __ZN4core4sync6atomic11AtomicUsize4load17h07e7dc4c0a6436b8E, symObjAddr: 0x48, symBinAddr: 0x39E60, symSize: 0x24 }
  - { offset: 0x9EAA8, size: 0x8, addend: 0x0, symName: __ZN4core4sync6atomic11AtomicUsize5store17h7400313139079348E, symObjAddr: 0x6C, symBinAddr: 0x39E84, symSize: 0x28 }
  - { offset: 0x9EB1F, size: 0x8, addend: 0x0, symName: __ZN4core4sync6atomic11AtomicUsize9fetch_add17h29d2fec7c7a2901cE, symObjAddr: 0x94, symBinAddr: 0x39EAC, symSize: 0xD8 }
  - { offset: 0x9EBCB, size: 0x8, addend: 0x0, symName: __ZN4core5alloc6layout6Layout25from_size_align_unchecked18precondition_check17h136bfb850a899ac8E, symObjAddr: 0x0, symBinAddr: 0x39F84, symSize: 0x70 }
  - { offset: 0x9EBF1, size: 0x8, addend: 0x0, symName: __ZN4core5alloc6layout6Layout25from_size_align_unchecked18precondition_check17h136bfb850a899ac8E, symObjAddr: 0x0, symBinAddr: 0x39F84, symSize: 0x70 }
  - { offset: 0x9EC9C, size: 0x8, addend: 0x0, symName: '__ZN120_$LT$std..collections..hash..set..HashSet$LT$T$C$S$GT$$u20$as$u20$core..iter..traits..collect..FromIterator$LT$T$GT$$GT$9from_iter17h22cfe8e98b3a6f46E', symObjAddr: 0x0, symBinAddr: 0x39FF4, symSize: 0x14C }
  - { offset: 0x9F682, size: 0x8, addend: 0x0, symName: '__ZN120_$LT$std..collections..hash..set..HashSet$LT$T$C$S$GT$$u20$as$u20$core..iter..traits..collect..FromIterator$LT$T$GT$$GT$9from_iter17h22cfe8e98b3a6f46E', symObjAddr: 0x0, symBinAddr: 0x39FF4, symSize: 0x14C }
  - { offset: 0x9F769, size: 0x8, addend: 0x0, symName: '__ZN120_$LT$std..collections..hash..set..HashSet$LT$T$C$S$GT$$u20$as$u20$core..iter..traits..collect..FromIterator$LT$T$GT$$GT$9from_iter17hc228e6dee69c44efE', symObjAddr: 0x14C, symBinAddr: 0x3A140, symSize: 0x14C }
  - { offset: 0x9FAB8, size: 0x8, addend: 0x0, symName: '__ZN3std11collections4hash3set16HashSet$LT$T$GT$3new17h3e09fc942568aeb6E', symObjAddr: 0x298, symBinAddr: 0x3A28C, symSize: 0x54 }
  - { offset: 0x9FAFF, size: 0x8, addend: 0x0, symName: '__ZN3std11collections4hash3set16HashSet$LT$T$GT$3new17hf353ccda81c07f0dE', symObjAddr: 0x2EC, symBinAddr: 0x3A2E0, symSize: 0x54 }
  - { offset: 0x9FBD2, size: 0x8, addend: 0x0, symName: '__ZN3std11collections4hash3set20HashSet$LT$T$C$S$GT$5clear17h7f05e21339e41a3bE', symObjAddr: 0x340, symBinAddr: 0x3A334, symSize: 0x20 }
  - { offset: 0x9FCC7, size: 0x8, addend: 0x0, symName: '__ZN3std11collections4hash3set20HashSet$LT$T$C$S$GT$6insert17h0cd5ea219a46147aE', symObjAddr: 0x360, symBinAddr: 0x3A354, symSize: 0x30 }
  - { offset: 0x9FDDE, size: 0x8, addend: 0x0, symName: '__ZN3std11collections4hash3set20HashSet$LT$T$C$S$GT$6insert17he0e7bf455346a6d0E', symObjAddr: 0x390, symBinAddr: 0x3A384, symSize: 0x3C }
  - { offset: 0x9FED1, size: 0x8, addend: 0x0, symName: '__ZN3std11collections4hash3set20HashSet$LT$T$C$S$GT$8contains17h1fda598384d8364cE', symObjAddr: 0x3CC, symBinAddr: 0x3A3C0, symSize: 0x28 }
  - { offset: 0x9FFA0, size: 0x8, addend: 0x0, symName: '__ZN3std11collections4hash3set20HashSet$LT$T$C$S$GT$8contains17h72406c8c40d2dfe5E', symObjAddr: 0x3F4, symBinAddr: 0x3A3E8, symSize: 0x2C }
  - { offset: 0xA0055, size: 0x8, addend: 0x0, symName: '__ZN3std11collections4hash3set20HashSet$LT$T$C$S$GT$8contains17hf959ecb26b68d7cbE', symObjAddr: 0x420, symBinAddr: 0x3A414, symSize: 0x28 }
  - { offset: 0xA00E5, size: 0x8, addend: 0x0, symName: __ZN4core9ub_checks23maybe_is_nonoverlapping7runtime17hde50e4daba74c133E, symObjAddr: 0x0, symBinAddr: 0x3A43C, symSize: 0xD8 }
  - { offset: 0xA026A, size: 0x8, addend: 0x0, symName: __ZN4core9ub_checks23maybe_is_nonoverlapping7runtime17hde50e4daba74c133E, symObjAddr: 0x0, symBinAddr: 0x3A43C, symSize: 0xD8 }
  - { offset: 0xA047D, size: 0x8, addend: 0x0, symName: __ZN4core5slice4sort6shared9smallsort11insert_tail17h2f5bcb70435e9d43E, symObjAddr: 0x0, symBinAddr: 0x3A514, symSize: 0x19C }
  - { offset: 0xA1C5A, size: 0x8, addend: 0x0, symName: __ZN4core5slice4sort6shared9smallsort11insert_tail17h2f5bcb70435e9d43E, symObjAddr: 0x0, symBinAddr: 0x3A514, symSize: 0x19C }
  - { offset: 0xA1DB0, size: 0x8, addend: 0x0, symName: __ZN4core5slice4sort6shared9smallsort11insert_tail17h39fb1b2c563dc2caE, symObjAddr: 0x19C, symBinAddr: 0x3A6B0, symSize: 0x19C }
  - { offset: 0xA1F06, size: 0x8, addend: 0x0, symName: __ZN4core5slice4sort6shared9smallsort11insert_tail17hd12ed92215d3ab9bE, symObjAddr: 0x338, symBinAddr: 0x3A84C, symSize: 0x19C }
  - { offset: 0xA205C, size: 0x8, addend: 0x0, symName: __ZN4core5slice4sort6shared9smallsort11insert_tail17hed4dfaac889edc03E, symObjAddr: 0x4D4, symBinAddr: 0x3A9E8, symSize: 0x1B4 }
  - { offset: 0xA21B4, size: 0x8, addend: 0x0, symName: __ZN4core5slice4sort6shared9smallsort12sort4_stable17h0bf10c5bfdb81f86E, symObjAddr: 0x688, symBinAddr: 0x3AB9C, symSize: 0x72C }
  - { offset: 0xA3479, size: 0x8, addend: 0x0, symName: __ZN4core5slice4sort6shared9smallsort12sort4_stable17h4f73bc668abc02c0E, symObjAddr: 0xDB4, symBinAddr: 0x3B2C8, symSize: 0x72C }
  - { offset: 0xA473E, size: 0x8, addend: 0x0, symName: __ZN4core5slice4sort6shared9smallsort12sort4_stable17h88f64be1ac61142aE, symObjAddr: 0x14E0, symBinAddr: 0x3B9F4, symSize: 0x72C }
  - { offset: 0xA5A03, size: 0x8, addend: 0x0, symName: __ZN4core5slice4sort6shared9smallsort12sort4_stable17h9b7677ccb3a3f679E, symObjAddr: 0x1C0C, symBinAddr: 0x3C120, symSize: 0x768 }
  - { offset: 0xA6CC8, size: 0x8, addend: 0x0, symName: __ZN4core5slice4sort6shared9smallsort12sort8_stable17h26d23310ceb6b815E, symObjAddr: 0x2374, symBinAddr: 0x3C888, symSize: 0x94 }
  - { offset: 0xA6D93, size: 0x8, addend: 0x0, symName: __ZN4core5slice4sort6shared9smallsort12sort8_stable17h7c09b04aa4dc0322E, symObjAddr: 0x2408, symBinAddr: 0x3C91C, symSize: 0x94 }
  - { offset: 0xA6E5E, size: 0x8, addend: 0x0, symName: __ZN4core5slice4sort6shared9smallsort12sort8_stable17ha244ec48a0686701E, symObjAddr: 0x249C, symBinAddr: 0x3C9B0, symSize: 0x94 }
  - { offset: 0xA700D, size: 0x8, addend: 0x0, symName: __ZN4core5slice4sort6shared9smallsort19bidirectional_merge17h11e6b00286061629E, symObjAddr: 0x2530, symBinAddr: 0x3CA44, symSize: 0x4E8 }
  - { offset: 0xA7794, size: 0x8, addend: 0x0, symName: __ZN4core5slice4sort6shared9smallsort19bidirectional_merge17h182ee1b694c03980E, symObjAddr: 0x2A18, symBinAddr: 0x3CF2C, symSize: 0x4E8 }
  - { offset: 0xA7F1B, size: 0x8, addend: 0x0, symName: __ZN4core5slice4sort6shared9smallsort19bidirectional_merge17h187bec04d1ffa0c5E, symObjAddr: 0x2F00, symBinAddr: 0x3D414, symSize: 0x4E8 }
  - { offset: 0xA86A2, size: 0x8, addend: 0x0, symName: __ZN4core5slice4sort6shared9smallsort19bidirectional_merge17h5de743a3607144efE, symObjAddr: 0x33E8, symBinAddr: 0x3D8FC, symSize: 0x534 }
  - { offset: 0xA8D45, size: 0x8, addend: 0x0, symName: __ZN4core5slice4sort6shared9smallsort25insertion_sort_shift_left17h3bae331c889eb439E, symObjAddr: 0x391C, symBinAddr: 0x3DE30, symSize: 0xC0 }
  - { offset: 0xA8E7F, size: 0x8, addend: 0x0, symName: __ZN4core5slice4sort6shared9smallsort25insertion_sort_shift_left17h78c1ca290c39659fE, symObjAddr: 0x39DC, symBinAddr: 0x3DEF0, symSize: 0xCC }
  - { offset: 0xA8FB9, size: 0x8, addend: 0x0, symName: __ZN4core5slice4sort6shared9smallsort25insertion_sort_shift_left17he7e971783dbd38a0E, symObjAddr: 0x3AA8, symBinAddr: 0x3DFBC, symSize: 0xC0 }
  - { offset: 0xA90F3, size: 0x8, addend: 0x0, symName: __ZN4core5slice4sort6shared9smallsort25insertion_sort_shift_left17he87bd69e16a97cdeE, symObjAddr: 0x3B68, symBinAddr: 0x3E07C, symSize: 0xC0 }
  - { offset: 0xA922D, size: 0x8, addend: 0x0, symName: __ZN4core5slice4sort6shared9smallsort31small_sort_general_with_scratch17h899dbad10d5d7dbdE, symObjAddr: 0x3C28, symBinAddr: 0x3E13C, symSize: 0x50C }
  - { offset: 0xA96EC, size: 0x8, addend: 0x0, symName: __ZN4core5slice4sort6shared9smallsort31small_sort_general_with_scratch17hb4a918924f9cc05fE, symObjAddr: 0x4134, symBinAddr: 0x3E648, symSize: 0x50C }
  - { offset: 0xA9BAB, size: 0x8, addend: 0x0, symName: __ZN4core5slice4sort6shared9smallsort31small_sort_general_with_scratch17hcf79c81eca1bb56cE, symObjAddr: 0x4640, symBinAddr: 0x3EB54, symSize: 0x4DC }
  - { offset: 0xA9FCE, size: 0x8, addend: 0x0, symName: __ZN4core5slice4sort6shared9smallsort31small_sort_general_with_scratch17hee3da4b607af393fE, symObjAddr: 0x4B1C, symBinAddr: 0x3F030, symSize: 0x50C }
  - { offset: 0xABA51, size: 0x8, addend: 0x0, symName: '__ZN4core3str21_$LT$impl$u20$str$GT$12trim_matches17h6afe22e3128c0435E', symObjAddr: 0x0, symBinAddr: 0x3F53C, symSize: 0x108 }
  - { offset: 0xABB9B, size: 0x8, addend: 0x0, symName: '__ZN4core3str21_$LT$impl$u20$str$GT$12trim_matches17h6afe22e3128c0435E', symObjAddr: 0x0, symBinAddr: 0x3F53C, symSize: 0x108 }
  - { offset: 0xABD76, size: 0x8, addend: 0x0, symName: '__ZN4core3str21_$LT$impl$u20$str$GT$12trim_matches17hac2c16f0fa4458b4E', symObjAddr: 0x108, symBinAddr: 0x3F644, symSize: 0x108 }
  - { offset: 0xABF1D, size: 0x8, addend: 0x0, symName: '__ZN4core3str21_$LT$impl$u20$str$GT$5parse17heb57f4e85e39aebaE', symObjAddr: 0x210, symBinAddr: 0x3F74C, symSize: 0x38 }
  - { offset: 0xABF68, size: 0x8, addend: 0x0, symName: '__ZN4core3str21_$LT$impl$u20$str$GT$5rfind17h2bd00df1bc493c86E', symObjAddr: 0x248, symBinAddr: 0x3F784, symSize: 0xD8 }
  - { offset: 0xABFF6, size: 0x8, addend: 0x0, symName: '__ZN4core3str21_$LT$impl$u20$str$GT$5rfind17hf5d95178ccf6b067E', symObjAddr: 0x320, symBinAddr: 0x3F85C, symSize: 0xC8 }
  - { offset: 0xAC082, size: 0x8, addend: 0x0, symName: '__ZN4core3str21_$LT$impl$u20$str$GT$5split17h1524815b030b0e20E', symObjAddr: 0x3E8, symBinAddr: 0x3F924, symSize: 0xA4 }
  - { offset: 0xAC0C8, size: 0x8, addend: 0x0, symName: '__ZN4core3str21_$LT$impl$u20$str$GT$8contains17he78fa2466a1db7faE', symObjAddr: 0x48C, symBinAddr: 0x3F9C8, symSize: 0x4C }
  - { offset: 0xAC10E, size: 0x8, addend: 0x0, symName: '__ZN4core3str21_$LT$impl$u20$str$GT$9ends_with17h1fc1b671a46b2565E', symObjAddr: 0x4D8, symBinAddr: 0x3FA14, symSize: 0x4C }
  - { offset: 0xAC154, size: 0x8, addend: 0x0, symName: '__ZN4core3str21_$LT$impl$u20$str$GT$9ends_with17h7781f8d2f5b2242cE', symObjAddr: 0x524, symBinAddr: 0x3FA60, symSize: 0x48 }
  - { offset: 0xACA34, size: 0x8, addend: 0x0, symName: '__ZN75_$LT$usize$u20$as$u20$core..slice..index..SliceIndex$LT$$u5b$T$u5d$$GT$$GT$3get17h515514daacef04f8E', symObjAddr: 0x0, symBinAddr: 0x3FAA8, symSize: 0x4C }
  - { offset: 0xACA55, size: 0x8, addend: 0x0, symName: '__ZN75_$LT$usize$u20$as$u20$core..slice..index..SliceIndex$LT$$u5b$T$u5d$$GT$$GT$3get17h515514daacef04f8E', symObjAddr: 0x0, symBinAddr: 0x3FAA8, symSize: 0x4C }
  - { offset: 0xACA98, size: 0x8, addend: 0x0, symName: '__ZN75_$LT$usize$u20$as$u20$core..slice..index..SliceIndex$LT$$u5b$T$u5d$$GT$$GT$5index17h0afe589fb45c626dE', symObjAddr: 0x4C, symBinAddr: 0x3FAF4, symSize: 0x5C }
  - { offset: 0xACADE, size: 0x8, addend: 0x0, symName: '__ZN75_$LT$usize$u20$as$u20$core..slice..index..SliceIndex$LT$$u5b$T$u5d$$GT$$GT$5index17h6e70e76a83e4381eE', symObjAddr: 0xA8, symBinAddr: 0x3FB50, symSize: 0x5C }
  - { offset: 0xACB24, size: 0x8, addend: 0x0, symName: '__ZN75_$LT$usize$u20$as$u20$core..slice..index..SliceIndex$LT$$u5b$T$u5d$$GT$$GT$5index17h883ab3133d88d768E', symObjAddr: 0x104, symBinAddr: 0x3FBAC, symSize: 0x5C }
  - { offset: 0xACB6A, size: 0x8, addend: 0x0, symName: '__ZN75_$LT$usize$u20$as$u20$core..slice..index..SliceIndex$LT$$u5b$T$u5d$$GT$$GT$7get_mut17h8b4d1667600df10dE', symObjAddr: 0x160, symBinAddr: 0x3FC08, symSize: 0x4C }
  - { offset: 0xACBAD, size: 0x8, addend: 0x0, symName: '__ZN75_$LT$usize$u20$as$u20$core..slice..index..SliceIndex$LT$$u5b$T$u5d$$GT$$GT$7get_mut17ha9e8c59f13b851c5E', symObjAddr: 0x1AC, symBinAddr: 0x3FC54, symSize: 0x4C }
  - { offset: 0xACBF0, size: 0x8, addend: 0x0, symName: '__ZN75_$LT$usize$u20$as$u20$core..slice..index..SliceIndex$LT$$u5b$T$u5d$$GT$$GT$9index_mut17h3e4dd9786e7cd11eE', symObjAddr: 0x1F8, symBinAddr: 0x3FCA0, symSize: 0x5C }
  - { offset: 0xAE649, size: 0x8, addend: 0x0, symName: __ZN21unicode_normalization6tables31stream_safe_leading_nonstarters17heb6e195c40424608E, symObjAddr: 0x0, symBinAddr: 0x3FCFC, symSize: 0x120 }
  - { offset: 0xAE684, size: 0x8, addend: 0x0, symName: __ZN21unicode_normalization6tables31stream_safe_leading_nonstarters17heb6e195c40424608E, symObjAddr: 0x0, symBinAddr: 0x3FCFC, symSize: 0x120 }
  - { offset: 0xAE6B2, size: 0x8, addend: 0x0, symName: __ZN21unicode_normalization6tables6qc_nfc17h3a3d0fbae709b9b0E, symObjAddr: 0x120, symBinAddr: 0x3FE1C, symSize: 0x11FC }
  - { offset: 0xAE6E0, size: 0x8, addend: 0x0, symName: __ZN21unicode_normalization6tables6qc_nfd17ha8d6b6d3d37246e0E, symObjAddr: 0x131C, symBinAddr: 0x41018, symSize: 0x285C }
  - { offset: 0xAE70E, size: 0x8, addend: 0x0, symName: __ZN21unicode_normalization6tables7qc_nfkc17h99f629eaddc69b16E, symObjAddr: 0x3B78, symBinAddr: 0x43874, symSize: 0x4964 }
  - { offset: 0xAE73C, size: 0x8, addend: 0x0, symName: __ZN21unicode_normalization6tables7qc_nfkd17h4f37062bb49dcde2E, symObjAddr: 0x84DC, symBinAddr: 0x481D8, symSize: 0x5D74 }
  - { offset: 0xAE79F, size: 0x8, addend: 0x0, symName: '__ZN4pyo35types10boolobject65_$LT$impl$u20$pyo3..conversion..IntoPyObject$u20$for$u20$bool$GT$13into_pyobject17hf50e832c91b1a2ceE', symObjAddr: 0x0, symBinAddr: 0x4DF4C, symSize: 0x20 }
  - { offset: 0xAE827, size: 0x8, addend: 0x0, symName: '__ZN4pyo35types10boolobject65_$LT$impl$u20$pyo3..conversion..IntoPyObject$u20$for$u20$bool$GT$13into_pyobject17hf50e832c91b1a2ceE', symObjAddr: 0x0, symBinAddr: 0x4DF4C, symSize: 0x20 }
  - { offset: 0xAE872, size: 0x8, addend: 0x0, symName: '__ZN4pyo35types10boolobject69_$LT$impl$u20$pyo3..conversion..IntoPyObject$u20$for$u20$$RF$bool$GT$13into_pyobject17h47a2d8c00f72403eE', symObjAddr: 0x20, symBinAddr: 0x4DF6C, symSize: 0x2C }
  - { offset: 0xAEBAE, size: 0x8, addend: 0x0, symName: __ZN4pyo35types10boolobject6PyBool3new17h75677d19398eb8a4E, symObjAddr: 0x4C, symBinAddr: 0x4DF98, symSize: 0x50 }
  - { offset: 0xAEC14, size: 0x8, addend: 0x0, symName: '__ZN100_$LT$unicode_segmentation..grapheme..Graphemes$u20$as$u20$core..iter..traits..iterator..Iterator$GT$4next17hd35fda7a8b3c93dcE', symObjAddr: 0x0, symBinAddr: 0x4DFE8, symSize: 0x140 }
  - { offset: 0xAED19, size: 0x8, addend: 0x0, symName: '__ZN100_$LT$unicode_segmentation..grapheme..Graphemes$u20$as$u20$core..iter..traits..iterator..Iterator$GT$4next17hd35fda7a8b3c93dcE', symObjAddr: 0x0, symBinAddr: 0x4DFE8, symSize: 0x140 }
  - { offset: 0xAEDCF, size: 0x8, addend: 0x0, symName: '__ZN100_$LT$unicode_segmentation..grapheme..Graphemes$u20$as$u20$core..iter..traits..iterator..Iterator$GT$9size_hint17h6f839faf6e28cb95E', symObjAddr: 0x140, symBinAddr: 0x4E128, symSize: 0x94 }
  - { offset: 0xAEE19, size: 0x8, addend: 0x0, symName: __ZN20unicode_segmentation8grapheme10check_pair17h13203606077cddc9E, symObjAddr: 0x1D4, symBinAddr: 0x4E1BC, symSize: 0x2C0 }
  - { offset: 0xAEE58, size: 0x8, addend: 0x0, symName: __ZN20unicode_segmentation8grapheme13new_graphemes17h7eb95c277cb22388E, symObjAddr: 0x494, symBinAddr: 0x4E47C, symSize: 0xB8 }
  - { offset: 0xAF033, size: 0x8, addend: 0x0, symName: '__ZN86_$LT$unicode_segmentation..grapheme..GraphemeState$u20$as$u20$core..cmp..PartialEq$GT$2eq17hb2a4bc10edd82c94E', symObjAddr: 0x15FC, symBinAddr: 0x4F5E4, symSize: 0x34 }
  - { offset: 0xAF0AD, size: 0x8, addend: 0x0, symName: '__ZN87_$LT$unicode_segmentation..grapheme..GraphemeIncomplete$u20$as$u20$core..fmt..Debug$GT$3fmt17h92c920c6c30f6728E', symObjAddr: 0x1630, symBinAddr: 0x4F618, symSize: 0x100 }
  - { offset: 0xAF906, size: 0x8, addend: 0x0, symName: __ZN20unicode_segmentation8grapheme14GraphemeCursor10cur_cursor17hfdd90f3520d4aa16E, symObjAddr: 0x54C, symBinAddr: 0x4E534, symSize: 0x18 }
  - { offset: 0xAF993, size: 0x8, addend: 0x0, symName: __ZN20unicode_segmentation8grapheme14GraphemeCursor11is_boundary17h916fe2195a646d82E, symObjAddr: 0x564, symBinAddr: 0x4E54C, symSize: 0x624 }
  - { offset: 0xAFBA4, size: 0x8, addend: 0x0, symName: __ZN20unicode_segmentation8grapheme14GraphemeCursor12handle_emoji17h991389eee17e4405E, symObjAddr: 0xB88, symBinAddr: 0x4EB70, symSize: 0x190 }
  - { offset: 0xAFC3D, size: 0x8, addend: 0x0, symName: __ZN20unicode_segmentation8grapheme14GraphemeCursor13next_boundary17h53042c7f0c867a88E, symObjAddr: 0xD18, symBinAddr: 0x4ED00, symSize: 0x404 }
  - { offset: 0xAFD6F, size: 0x8, addend: 0x0, symName: __ZN20unicode_segmentation8grapheme14GraphemeCursor15handle_regional17heda269e46d82398aE, symObjAddr: 0x111C, symBinAddr: 0x4F104, symSize: 0x1A0 }
  - { offset: 0xAFDF2, size: 0x8, addend: 0x0, symName: __ZN20unicode_segmentation8grapheme14GraphemeCursor18is_boundary_result17ha331caa99dc151baE, symObjAddr: 0x12BC, symBinAddr: 0x4F2A4, symSize: 0xC8 }
  - { offset: 0xAFE2B, size: 0x8, addend: 0x0, symName: __ZN20unicode_segmentation8grapheme14GraphemeCursor21handle_incb_consonant17h28c14a3d667e1675E, symObjAddr: 0x1384, symBinAddr: 0x4F36C, symSize: 0x1F0 }
  - { offset: 0xAFECD, size: 0x8, addend: 0x0, symName: __ZN20unicode_segmentation8grapheme14GraphemeCursor6decide17h4c7772d34739652aE, symObjAddr: 0x1574, symBinAddr: 0x4F55C, symSize: 0x44 }
  - { offset: 0xAFEFF, size: 0x8, addend: 0x0, symName: __ZN20unicode_segmentation8grapheme14GraphemeCursor8decision17h452982dcb99a6311E, symObjAddr: 0x15B8, symBinAddr: 0x4F5A0, symSize: 0x44 }
  - { offset: 0xB0025, size: 0x8, addend: 0x0, symName: __ZN4core3ptr12align_offset17h45e56793b4909e75E, symObjAddr: 0x0, symBinAddr: 0x4F718, symSize: 0x1C8 }
  - { offset: 0xB0923, size: 0x8, addend: 0x0, symName: __ZN4core3ptr12align_offset17h45e56793b4909e75E, symObjAddr: 0x0, symBinAddr: 0x4F718, symSize: 0x1C8 }
  - { offset: 0xB0C55, size: 0x8, addend: 0x0, symName: __ZN4core3ptr5write17h3716465b2a0b7d89E, symObjAddr: 0x34C, symBinAddr: 0x4F8E0, symSize: 0x2C }
  - { offset: 0xB0C98, size: 0x8, addend: 0x0, symName: __ZN4core3ptr5write17hd8b8b8d7ba611790E, symObjAddr: 0x378, symBinAddr: 0x4F90C, symSize: 0x2C }
  - { offset: 0xB0CDB, size: 0x8, addend: 0x0, symName: __ZN4core3ptr5write17hdb3842c088220f6dE, symObjAddr: 0x3A4, symBinAddr: 0x4F938, symSize: 0x2C }
  - { offset: 0xB0D1E, size: 0x8, addend: 0x0, symName: __ZN4core3ptr5write17he5de56d74318d0cdE, symObjAddr: 0x3D0, symBinAddr: 0x4F964, symSize: 0x2C }
  - { offset: 0xB30F9, size: 0x8, addend: 0x0, symName: __ZN14regex_automata4util4iter8Searcher11try_advance17hb83ce89231dce977E, symObjAddr: 0x0, symBinAddr: 0x4F990, symSize: 0x314 }
  - { offset: 0xB5B53, size: 0x8, addend: 0x0, symName: __ZN14regex_automata4util4iter8Searcher11try_advance17hb83ce89231dce977E, symObjAddr: 0x0, symBinAddr: 0x4F990, symSize: 0x314 }
  - { offset: 0xB5C65, size: 0x8, addend: 0x0, symName: __ZN14regex_automata4util4iter8Searcher30handle_overlapping_empty_match17haa28d3c3b77b4882E, symObjAddr: 0x314, symBinAddr: 0x310C28, symSize: 0x128 }
  - { offset: 0xB5CCF, size: 0x8, addend: 0x0, symName: __ZN14regex_automata4util4iter8Searcher7advance17h1c1971c5b1007855E, symObjAddr: 0x43C, symBinAddr: 0x4FCA4, symSize: 0xF8 }
  - { offset: 0xB5E21, size: 0x8, addend: 0x0, symName: '__ZN47_$LT$i32$u20$as$u20$core..iter..range..Step$GT$17forward_unchecked17h1b5bd6ab0c4e7603E', symObjAddr: 0x0, symBinAddr: 0x4FD9C, symSize: 0x9C }
  - { offset: 0xB6048, size: 0x8, addend: 0x0, symName: '__ZN47_$LT$i32$u20$as$u20$core..iter..range..Step$GT$17forward_unchecked17h1b5bd6ab0c4e7603E', symObjAddr: 0x0, symBinAddr: 0x4FD9C, symSize: 0x9C }
  - { offset: 0xB6142, size: 0x8, addend: 0x0, symName: '__ZN49_$LT$usize$u20$as$u20$core..iter..range..Step$GT$18backward_unchecked17h38f829e2cec7c864E', symObjAddr: 0x9C, symBinAddr: 0x4FE38, symSize: 0x50 }
  - { offset: 0xB6281, size: 0x8, addend: 0x0, symName: __ZN4pyo35types4none6PyNone3get17hed23ff27371f5a1cE, symObjAddr: 0x0, symBinAddr: 0x4FE88, symSize: 0x2C }
  - { offset: 0xB6565, size: 0x8, addend: 0x0, symName: __ZN4pyo35types4none6PyNone3get17hed23ff27371f5a1cE, symObjAddr: 0x0, symBinAddr: 0x4FE88, symSize: 0x2C }
  - { offset: 0xB65B0, size: 0x8, addend: 0x0, symName: '__ZN9_translit10whitespace33__pyfunction__collapse_whitespace28_$u7b$$u7b$closure$u7d$$u7d$17hcaa5362186b35be2E', symObjAddr: 0x0, symBinAddr: 0x4FEB4, symSize: 0x18 }
  - { offset: 0xB65CC, size: 0x8, addend: 0x0, symName: '__ZN9_translit10whitespace33__pyfunction__collapse_whitespace28_$u7b$$u7b$closure$u7d$$u7d$17hcaa5362186b35be2E', symObjAddr: 0x0, symBinAddr: 0x4FEB4, symSize: 0x18 }
  - { offset: 0xB65F4, size: 0x8, addend: 0x0, symName: '__ZN9_translit10whitespace33__pyfunction__collapse_whitespace28_$u7b$$u7b$closure$u7d$$u7d$17hce9c9cfc49783be1E', symObjAddr: 0x18, symBinAddr: 0x4FECC, symSize: 0x18 }
  - { offset: 0xB666C, size: 0x8, addend: 0x0, symName: __ZN4pyo35impl_5panic9PanicTrap3new17h8cdb3b76211bd47cE, symObjAddr: 0x0, symBinAddr: 0x4FEE4, symSize: 0x18 }
  - { offset: 0xB66FB, size: 0x8, addend: 0x0, symName: __ZN4pyo35impl_5panic9PanicTrap3new17h8cdb3b76211bd47cE, symObjAddr: 0x0, symBinAddr: 0x4FEE4, symSize: 0x18 }
  - { offset: 0xB671D, size: 0x8, addend: 0x0, symName: __ZN4pyo35impl_5panic9PanicTrap6disarm17hfb50b0c215467dcdE, symObjAddr: 0x18, symBinAddr: 0x4FEFC, symSize: 0x28 }
  - { offset: 0xB675D, size: 0x8, addend: 0x0, symName: '__ZN106_$LT$core..result..Result$LT$T$C$E$GT$$u20$as$u20$pyo3..impl_..callback..IntoPyCallbackOutput$LT$U$GT$$GT$7convert17h499d5d448f17ba09E', symObjAddr: 0x0, symBinAddr: 0x4FF24, symSize: 0xF4 }
  - { offset: 0xB72FF, size: 0x8, addend: 0x0, symName: '__ZN106_$LT$core..result..Result$LT$T$C$E$GT$$u20$as$u20$pyo3..impl_..callback..IntoPyCallbackOutput$LT$U$GT$$GT$7convert17h499d5d448f17ba09E', symObjAddr: 0x0, symBinAddr: 0x4FF24, symSize: 0xF4 }
  - { offset: 0xB739E, size: 0x8, addend: 0x0, symName: '__ZN106_$LT$core..result..Result$LT$T$C$E$GT$$u20$as$u20$pyo3..impl_..callback..IntoPyCallbackOutput$LT$U$GT$$GT$7convert17h4d120cbc1d3b0d33E', symObjAddr: 0xF4, symBinAddr: 0x50018, symSize: 0xE8 }
  - { offset: 0xB743D, size: 0x8, addend: 0x0, symName: '__ZN106_$LT$core..result..Result$LT$T$C$E$GT$$u20$as$u20$pyo3..impl_..callback..IntoPyCallbackOutput$LT$U$GT$$GT$7convert17h58914855ac69beb9E', symObjAddr: 0x1DC, symBinAddr: 0x50100, symSize: 0xF4 }
  - { offset: 0xB943D, size: 0x8, addend: 0x0, symName: '__ZN153_$LT$core..result..Result$LT$T$C$F$GT$$u20$as$u20$core..ops..try_trait..FromResidual$LT$core..result..Result$LT$core..convert..Infallible$C$E$GT$$GT$$GT$13from_residual17h02b381a74eba1c1aE', symObjAddr: 0x2D0, symBinAddr: 0x501F4, symSize: 0x6C }
  - { offset: 0xB94C3, size: 0x8, addend: 0x0, symName: '__ZN153_$LT$core..result..Result$LT$T$C$F$GT$$u20$as$u20$core..ops..try_trait..FromResidual$LT$core..result..Result$LT$core..convert..Infallible$C$E$GT$$GT$$GT$13from_residual17h0ef1d7d22cda5617E', symObjAddr: 0x33C, symBinAddr: 0x50260, symSize: 0x64 }
  - { offset: 0xB952B, size: 0x8, addend: 0x0, symName: '__ZN153_$LT$core..result..Result$LT$T$C$F$GT$$u20$as$u20$core..ops..try_trait..FromResidual$LT$core..result..Result$LT$core..convert..Infallible$C$E$GT$$GT$$GT$13from_residual17h147c6c9365ec9cf5E', symObjAddr: 0x3A0, symBinAddr: 0x502C4, symSize: 0x6C }
  - { offset: 0xB95B1, size: 0x8, addend: 0x0, symName: '__ZN153_$LT$core..result..Result$LT$T$C$F$GT$$u20$as$u20$core..ops..try_trait..FromResidual$LT$core..result..Result$LT$core..convert..Infallible$C$E$GT$$GT$$GT$13from_residual17h27aad464f0a3f383E', symObjAddr: 0x41C, symBinAddr: 0x50330, symSize: 0x6C }
  - { offset: 0xB9637, size: 0x8, addend: 0x0, symName: '__ZN153_$LT$core..result..Result$LT$T$C$F$GT$$u20$as$u20$core..ops..try_trait..FromResidual$LT$core..result..Result$LT$core..convert..Infallible$C$E$GT$$GT$$GT$13from_residual17h283b19b121fb5a9bE', symObjAddr: 0x488, symBinAddr: 0x5039C, symSize: 0x48 }
  - { offset: 0xB96BC, size: 0x8, addend: 0x0, symName: '__ZN153_$LT$core..result..Result$LT$T$C$F$GT$$u20$as$u20$core..ops..try_trait..FromResidual$LT$core..result..Result$LT$core..convert..Infallible$C$E$GT$$GT$$GT$13from_residual17h37cd381481b7cb82E', symObjAddr: 0x4D0, symBinAddr: 0x503E4, symSize: 0x64 }
  - { offset: 0xB9724, size: 0x8, addend: 0x0, symName: '__ZN153_$LT$core..result..Result$LT$T$C$F$GT$$u20$as$u20$core..ops..try_trait..FromResidual$LT$core..result..Result$LT$core..convert..Infallible$C$E$GT$$GT$$GT$13from_residual17h48d1f53ff4963b93E', symObjAddr: 0x53C, symBinAddr: 0x50448, symSize: 0x6C }
  - { offset: 0xB97AA, size: 0x8, addend: 0x0, symName: '__ZN153_$LT$core..result..Result$LT$T$C$F$GT$$u20$as$u20$core..ops..try_trait..FromResidual$LT$core..result..Result$LT$core..convert..Infallible$C$E$GT$$GT$$GT$13from_residual17h4a78749b210ccdc7E', symObjAddr: 0x5A8, symBinAddr: 0x504B4, symSize: 0x6C }
  - { offset: 0xB9830, size: 0x8, addend: 0x0, symName: '__ZN153_$LT$core..result..Result$LT$T$C$F$GT$$u20$as$u20$core..ops..try_trait..FromResidual$LT$core..result..Result$LT$core..convert..Infallible$C$E$GT$$GT$$GT$13from_residual17h4accd35d258edfb6E', symObjAddr: 0x614, symBinAddr: 0x50520, symSize: 0x6C }
  - { offset: 0xB98B6, size: 0x8, addend: 0x0, symName: '__ZN153_$LT$core..result..Result$LT$T$C$F$GT$$u20$as$u20$core..ops..try_trait..FromResidual$LT$core..result..Result$LT$core..convert..Infallible$C$E$GT$$GT$$GT$13from_residual17h61096ddb491997c9E', symObjAddr: 0x680, symBinAddr: 0x5058C, symSize: 0x6C }
  - { offset: 0xB993C, size: 0x8, addend: 0x0, symName: '__ZN153_$LT$core..result..Result$LT$T$C$F$GT$$u20$as$u20$core..ops..try_trait..FromResidual$LT$core..result..Result$LT$core..convert..Infallible$C$E$GT$$GT$$GT$13from_residual17h753e7c616247c7fcE', symObjAddr: 0x6EC, symBinAddr: 0x505F8, symSize: 0x6C }
  - { offset: 0xB99C2, size: 0x8, addend: 0x0, symName: '__ZN153_$LT$core..result..Result$LT$T$C$F$GT$$u20$as$u20$core..ops..try_trait..FromResidual$LT$core..result..Result$LT$core..convert..Infallible$C$E$GT$$GT$$GT$13from_residual17h7e73b4b65dfbb349E', symObjAddr: 0x758, symBinAddr: 0x50664, symSize: 0x6C }
  - { offset: 0xB9A48, size: 0x8, addend: 0x0, symName: '__ZN153_$LT$core..result..Result$LT$T$C$F$GT$$u20$as$u20$core..ops..try_trait..FromResidual$LT$core..result..Result$LT$core..convert..Infallible$C$E$GT$$GT$$GT$13from_residual17h82f3637e433bce7cE', symObjAddr: 0x7C4, symBinAddr: 0x506D0, symSize: 0x6C }
  - { offset: 0xB9ACE, size: 0x8, addend: 0x0, symName: '__ZN153_$LT$core..result..Result$LT$T$C$F$GT$$u20$as$u20$core..ops..try_trait..FromResidual$LT$core..result..Result$LT$core..convert..Infallible$C$E$GT$$GT$$GT$13from_residual17h9a36b1f9a790ef77E', symObjAddr: 0x830, symBinAddr: 0x5073C, symSize: 0x64 }
  - { offset: 0xB9B36, size: 0x8, addend: 0x0, symName: '__ZN153_$LT$core..result..Result$LT$T$C$F$GT$$u20$as$u20$core..ops..try_trait..FromResidual$LT$core..result..Result$LT$core..convert..Infallible$C$E$GT$$GT$$GT$13from_residual17ha0b43fdea67d7ce7E', symObjAddr: 0x894, symBinAddr: 0x507A0, symSize: 0x6C }
  - { offset: 0xB9BBC, size: 0x8, addend: 0x0, symName: '__ZN153_$LT$core..result..Result$LT$T$C$F$GT$$u20$as$u20$core..ops..try_trait..FromResidual$LT$core..result..Result$LT$core..convert..Infallible$C$E$GT$$GT$$GT$13from_residual17ha11cc6aaf31b17d4E', symObjAddr: 0x900, symBinAddr: 0x5080C, symSize: 0x64 }
  - { offset: 0xB9C24, size: 0x8, addend: 0x0, symName: '__ZN153_$LT$core..result..Result$LT$T$C$F$GT$$u20$as$u20$core..ops..try_trait..FromResidual$LT$core..result..Result$LT$core..convert..Infallible$C$E$GT$$GT$$GT$13from_residual17hb384c80d2f5576d3E', symObjAddr: 0x96C, symBinAddr: 0x50870, symSize: 0x6C }
  - { offset: 0xB9CAA, size: 0x8, addend: 0x0, symName: '__ZN153_$LT$core..result..Result$LT$T$C$F$GT$$u20$as$u20$core..ops..try_trait..FromResidual$LT$core..result..Result$LT$core..convert..Infallible$C$E$GT$$GT$$GT$13from_residual17hbbbcd236f435f401E', symObjAddr: 0x9E0, symBinAddr: 0x508DC, symSize: 0x6C }
  - { offset: 0xB9D30, size: 0x8, addend: 0x0, symName: '__ZN153_$LT$core..result..Result$LT$T$C$F$GT$$u20$as$u20$core..ops..try_trait..FromResidual$LT$core..result..Result$LT$core..convert..Infallible$C$E$GT$$GT$$GT$13from_residual17hc06e844281ec8ca8E', symObjAddr: 0xA4C, symBinAddr: 0x50948, symSize: 0x6C }
  - { offset: 0xB9DB6, size: 0x8, addend: 0x0, symName: '__ZN153_$LT$core..result..Result$LT$T$C$F$GT$$u20$as$u20$core..ops..try_trait..FromResidual$LT$core..result..Result$LT$core..convert..Infallible$C$E$GT$$GT$$GT$13from_residual17hc886a4f27a6d3716E', symObjAddr: 0xAB8, symBinAddr: 0x509B4, symSize: 0x64 }
  - { offset: 0xB9E1E, size: 0x8, addend: 0x0, symName: '__ZN153_$LT$core..result..Result$LT$T$C$F$GT$$u20$as$u20$core..ops..try_trait..FromResidual$LT$core..result..Result$LT$core..convert..Infallible$C$E$GT$$GT$$GT$13from_residual17hd203711e9b31b753E', symObjAddr: 0xB1C, symBinAddr: 0x50A18, symSize: 0x6C }
  - { offset: 0xB9EA4, size: 0x8, addend: 0x0, symName: '__ZN153_$LT$core..result..Result$LT$T$C$F$GT$$u20$as$u20$core..ops..try_trait..FromResidual$LT$core..result..Result$LT$core..convert..Infallible$C$E$GT$$GT$$GT$13from_residual17hdac3d9fdf41967e6E', symObjAddr: 0xB88, symBinAddr: 0x50A84, symSize: 0x6C }
  - { offset: 0xB9F2A, size: 0x8, addend: 0x0, symName: '__ZN153_$LT$core..result..Result$LT$T$C$F$GT$$u20$as$u20$core..ops..try_trait..FromResidual$LT$core..result..Result$LT$core..convert..Infallible$C$E$GT$$GT$$GT$13from_residual17hf0c24a0a78019719E', symObjAddr: 0xBF4, symBinAddr: 0x50AF0, symSize: 0x4C }
  - { offset: 0xB9F91, size: 0x8, addend: 0x0, symName: '__ZN153_$LT$core..result..Result$LT$T$C$F$GT$$u20$as$u20$core..ops..try_trait..FromResidual$LT$core..result..Result$LT$core..convert..Infallible$C$E$GT$$GT$$GT$13from_residual17hf6eac6e308e0a132E', symObjAddr: 0xC40, symBinAddr: 0x50B3C, symSize: 0x6C }
  - { offset: 0xBBAC8, size: 0x8, addend: 0x0, symName: '__ZN4core6result23Result$LT$$RF$T$C$E$GT$6cloned28_$u7b$$u7b$closure$u7d$$u7d$17h03406880a289c2f5E', symObjAddr: 0x3638, symBinAddr: 0x53534, symSize: 0x24 }
  - { offset: 0xBD272, size: 0x8, addend: 0x0, symName: '__ZN79_$LT$core..result..Result$LT$T$C$E$GT$$u20$as$u20$core..ops..try_trait..Try$GT$11from_output17h1f86ca7c1e221a26E', symObjAddr: 0x365C, symBinAddr: 0x53558, symSize: 0x18 }
  - { offset: 0xBD2B2, size: 0x8, addend: 0x0, symName: '__ZN79_$LT$core..result..Result$LT$T$C$E$GT$$u20$as$u20$core..ops..try_trait..Try$GT$6branch17h1061f388926e96f0E', symObjAddr: 0x3674, symBinAddr: 0x53570, symSize: 0x90 }
  - { offset: 0xBD32F, size: 0x8, addend: 0x0, symName: '__ZN79_$LT$core..result..Result$LT$T$C$E$GT$$u20$as$u20$core..ops..try_trait..Try$GT$6branch17h29dde839162b6141E', symObjAddr: 0x3704, symBinAddr: 0x53600, symSize: 0xA0 }
  - { offset: 0xBD3AC, size: 0x8, addend: 0x0, symName: '__ZN79_$LT$core..result..Result$LT$T$C$E$GT$$u20$as$u20$core..ops..try_trait..Try$GT$6branch17h2d8fd36856c489d6E', symObjAddr: 0x37A4, symBinAddr: 0x536A0, symSize: 0xA0 }
  - { offset: 0xBD429, size: 0x8, addend: 0x0, symName: '__ZN79_$LT$core..result..Result$LT$T$C$E$GT$$u20$as$u20$core..ops..try_trait..Try$GT$6branch17h32f31b50fd3fe88fE', symObjAddr: 0x3844, symBinAddr: 0x53740, symSize: 0x88 }
  - { offset: 0xBD4A7, size: 0x8, addend: 0x0, symName: '__ZN79_$LT$core..result..Result$LT$T$C$E$GT$$u20$as$u20$core..ops..try_trait..Try$GT$6branch17h3a474a17846fe9b6E', symObjAddr: 0x38CC, symBinAddr: 0x537C8, symSize: 0xAC }
  - { offset: 0xBD524, size: 0x8, addend: 0x0, symName: '__ZN79_$LT$core..result..Result$LT$T$C$E$GT$$u20$as$u20$core..ops..try_trait..Try$GT$6branch17h3e3a04adb7590453E', symObjAddr: 0x3978, symBinAddr: 0x53874, symSize: 0x88 }
  - { offset: 0xBD5A2, size: 0x8, addend: 0x0, symName: '__ZN79_$LT$core..result..Result$LT$T$C$E$GT$$u20$as$u20$core..ops..try_trait..Try$GT$6branch17h401a5edb8a431680E', symObjAddr: 0x3A00, symBinAddr: 0x538FC, symSize: 0xAC }
  - { offset: 0xBD61F, size: 0x8, addend: 0x0, symName: '__ZN79_$LT$core..result..Result$LT$T$C$E$GT$$u20$as$u20$core..ops..try_trait..Try$GT$6branch17h474b8707e7c767eeE', symObjAddr: 0x3AAC, symBinAddr: 0x539A8, symSize: 0x44 }
  - { offset: 0xBD69B, size: 0x8, addend: 0x0, symName: '__ZN79_$LT$core..result..Result$LT$T$C$E$GT$$u20$as$u20$core..ops..try_trait..Try$GT$6branch17h57b42431fb40a254E', symObjAddr: 0x3AF0, symBinAddr: 0x539EC, symSize: 0xA0 }
  - { offset: 0xBD718, size: 0x8, addend: 0x0, symName: '__ZN79_$LT$core..result..Result$LT$T$C$E$GT$$u20$as$u20$core..ops..try_trait..Try$GT$6branch17h6095f92516baf8e4E', symObjAddr: 0x3B90, symBinAddr: 0x53A8C, symSize: 0xA0 }
  - { offset: 0xBD795, size: 0x8, addend: 0x0, symName: '__ZN79_$LT$core..result..Result$LT$T$C$E$GT$$u20$as$u20$core..ops..try_trait..Try$GT$6branch17h616f12488d760149E', symObjAddr: 0x3C30, symBinAddr: 0x53B2C, symSize: 0xCC }
  - { offset: 0xBD813, size: 0x8, addend: 0x0, symName: '__ZN79_$LT$core..result..Result$LT$T$C$E$GT$$u20$as$u20$core..ops..try_trait..Try$GT$6branch17h663bd1aa1d70bbe8E', symObjAddr: 0x3CFC, symBinAddr: 0x53BF8, symSize: 0xA0 }
  - { offset: 0xBD890, size: 0x8, addend: 0x0, symName: '__ZN79_$LT$core..result..Result$LT$T$C$E$GT$$u20$as$u20$core..ops..try_trait..Try$GT$6branch17h69fa892bcd5baa2cE', symObjAddr: 0x3D9C, symBinAddr: 0x53C98, symSize: 0xCC }
  - { offset: 0xBD90E, size: 0x8, addend: 0x0, symName: '__ZN79_$LT$core..result..Result$LT$T$C$E$GT$$u20$as$u20$core..ops..try_trait..Try$GT$6branch17h6adcd26829c6eb10E', symObjAddr: 0x3E68, symBinAddr: 0x53D64, symSize: 0xCC }
  - { offset: 0xBD98D, size: 0x8, addend: 0x0, symName: '__ZN79_$LT$core..result..Result$LT$T$C$E$GT$$u20$as$u20$core..ops..try_trait..Try$GT$6branch17h736f0e7e4684526bE', symObjAddr: 0x3F34, symBinAddr: 0x53E30, symSize: 0xB4 }
  - { offset: 0xBDA0B, size: 0x8, addend: 0x0, symName: '__ZN79_$LT$core..result..Result$LT$T$C$E$GT$$u20$as$u20$core..ops..try_trait..Try$GT$6branch17h784f9f01218b6760E', symObjAddr: 0x3FE8, symBinAddr: 0x53EE4, symSize: 0xCC }
  - { offset: 0xBDA8A, size: 0x8, addend: 0x0, symName: '__ZN79_$LT$core..result..Result$LT$T$C$E$GT$$u20$as$u20$core..ops..try_trait..Try$GT$6branch17h7ab033d93e0b41f0E', symObjAddr: 0x40B4, symBinAddr: 0x53FB0, symSize: 0xCC }
  - { offset: 0xBDB09, size: 0x8, addend: 0x0, symName: '__ZN79_$LT$core..result..Result$LT$T$C$E$GT$$u20$as$u20$core..ops..try_trait..Try$GT$6branch17h7bd0da50d45aa5f5E', symObjAddr: 0x4180, symBinAddr: 0x5407C, symSize: 0xA0 }
  - { offset: 0xBDB86, size: 0x8, addend: 0x0, symName: '__ZN79_$LT$core..result..Result$LT$T$C$E$GT$$u20$as$u20$core..ops..try_trait..Try$GT$6branch17h963fcb137b14f945E', symObjAddr: 0x4220, symBinAddr: 0x5411C, symSize: 0xA0 }
  - { offset: 0xBDC03, size: 0x8, addend: 0x0, symName: '__ZN79_$LT$core..result..Result$LT$T$C$E$GT$$u20$as$u20$core..ops..try_trait..Try$GT$6branch17h9df9222fade1970aE', symObjAddr: 0x42C0, symBinAddr: 0x541BC, symSize: 0xB4 }
  - { offset: 0xBDC81, size: 0x8, addend: 0x0, symName: '__ZN79_$LT$core..result..Result$LT$T$C$E$GT$$u20$as$u20$core..ops..try_trait..Try$GT$6branch17ha54bf828b1c11a76E', symObjAddr: 0x4374, symBinAddr: 0x54270, symSize: 0xB4 }
  - { offset: 0xBDCFF, size: 0x8, addend: 0x0, symName: '__ZN79_$LT$core..result..Result$LT$T$C$E$GT$$u20$as$u20$core..ops..try_trait..Try$GT$6branch17ha8db17468e561dbbE', symObjAddr: 0x4428, symBinAddr: 0x54324, symSize: 0xA0 }
  - { offset: 0xBDD7C, size: 0x8, addend: 0x0, symName: '__ZN79_$LT$core..result..Result$LT$T$C$E$GT$$u20$as$u20$core..ops..try_trait..Try$GT$6branch17had7760760fd25f4cE', symObjAddr: 0x44C8, symBinAddr: 0x543C4, symSize: 0xB4 }
  - { offset: 0xBDDFA, size: 0x8, addend: 0x0, symName: '__ZN79_$LT$core..result..Result$LT$T$C$E$GT$$u20$as$u20$core..ops..try_trait..Try$GT$6branch17hbbef2d69d08aab0eE', symObjAddr: 0x457C, symBinAddr: 0x54478, symSize: 0xA0 }
  - { offset: 0xBDE77, size: 0x8, addend: 0x0, symName: '__ZN79_$LT$core..result..Result$LT$T$C$E$GT$$u20$as$u20$core..ops..try_trait..Try$GT$6branch17hc0466e880f7ea196E', symObjAddr: 0x461C, symBinAddr: 0x54518, symSize: 0xCC }
  - { offset: 0xBDEF6, size: 0x8, addend: 0x0, symName: '__ZN79_$LT$core..result..Result$LT$T$C$E$GT$$u20$as$u20$core..ops..try_trait..Try$GT$6branch17hc215fa0724d02681E', symObjAddr: 0x46E8, symBinAddr: 0x545E4, symSize: 0xA0 }
  - { offset: 0xBDF73, size: 0x8, addend: 0x0, symName: '__ZN79_$LT$core..result..Result$LT$T$C$E$GT$$u20$as$u20$core..ops..try_trait..Try$GT$6branch17hc3228c1407e4e88fE', symObjAddr: 0x4788, symBinAddr: 0x54684, symSize: 0xA0 }
  - { offset: 0xBDFF0, size: 0x8, addend: 0x0, symName: '__ZN79_$LT$core..result..Result$LT$T$C$E$GT$$u20$as$u20$core..ops..try_trait..Try$GT$6branch17hc8bf2fa28bd17e50E', symObjAddr: 0x4828, symBinAddr: 0x54724, symSize: 0xAC }
  - { offset: 0xBE06D, size: 0x8, addend: 0x0, symName: '__ZN79_$LT$core..result..Result$LT$T$C$E$GT$$u20$as$u20$core..ops..try_trait..Try$GT$6branch17hcf404071b5e87e85E', symObjAddr: 0x48D4, symBinAddr: 0x547D0, symSize: 0xA0 }
  - { offset: 0xBE0EA, size: 0x8, addend: 0x0, symName: '__ZN79_$LT$core..result..Result$LT$T$C$E$GT$$u20$as$u20$core..ops..try_trait..Try$GT$6branch17hcfb4aace0d8bfe12E', symObjAddr: 0x4974, symBinAddr: 0x54870, symSize: 0xA0 }
  - { offset: 0xBE167, size: 0x8, addend: 0x0, symName: '__ZN79_$LT$core..result..Result$LT$T$C$E$GT$$u20$as$u20$core..ops..try_trait..Try$GT$6branch17hd352571254579502E', symObjAddr: 0x4A14, symBinAddr: 0x54910, symSize: 0x88 }
  - { offset: 0xBE1E5, size: 0x8, addend: 0x0, symName: '__ZN79_$LT$core..result..Result$LT$T$C$E$GT$$u20$as$u20$core..ops..try_trait..Try$GT$6branch17he4e01940c72b5c66E', symObjAddr: 0x4A9C, symBinAddr: 0x54998, symSize: 0xB4 }
  - { offset: 0xBE263, size: 0x8, addend: 0x0, symName: '__ZN79_$LT$core..result..Result$LT$T$C$E$GT$$u20$as$u20$core..ops..try_trait..Try$GT$6branch17hf0aa9d362a2ace1fE', symObjAddr: 0x4B50, symBinAddr: 0x54A4C, symSize: 0x88 }
  - { offset: 0xBE2E1, size: 0x8, addend: 0x0, symName: '__ZN79_$LT$core..result..Result$LT$T$C$E$GT$$u20$as$u20$core..ops..try_trait..Try$GT$6branch17hf1636dd37d3bfd32E', symObjAddr: 0x4BD8, symBinAddr: 0x54AD4, symSize: 0x88 }
  - { offset: 0xBE35F, size: 0x8, addend: 0x0, symName: '__ZN79_$LT$core..result..Result$LT$T$C$E$GT$$u20$as$u20$core..ops..try_trait..Try$GT$6branch17hf897bed5ed01225eE', symObjAddr: 0x4C60, symBinAddr: 0x54B5C, symSize: 0xA0 }
  - { offset: 0xC1EE4, size: 0x8, addend: 0x0, symName: '__ZN4core6result19Result$LT$T$C$E$GT$14unwrap_or_else17h13284e5f5a24d057E', symObjAddr: 0xCAC, symBinAddr: 0x50BA8, symSize: 0x8C }
  - { offset: 0xC1F50, size: 0x8, addend: 0x0, symName: '__ZN4core6result19Result$LT$T$C$E$GT$14unwrap_or_else17h21de6b2c363f92aaE', symObjAddr: 0xD38, symBinAddr: 0x50C34, symSize: 0x8C }
  - { offset: 0xC2019, size: 0x8, addend: 0x0, symName: '__ZN4core6result19Result$LT$T$C$E$GT$14unwrap_or_else17h32250ddfa9f8fa7fE', symObjAddr: 0xDC4, symBinAddr: 0x50CC0, symSize: 0x6C }
  - { offset: 0xC2092, size: 0x8, addend: 0x0, symName: '__ZN4core6result19Result$LT$T$C$E$GT$14unwrap_or_else17h32a4262283f98a74E', symObjAddr: 0xE30, symBinAddr: 0x50D2C, symSize: 0x8C }
  - { offset: 0xC20FE, size: 0x8, addend: 0x0, symName: '__ZN4core6result19Result$LT$T$C$E$GT$14unwrap_or_else17h32dd6b009323dcbcE', symObjAddr: 0xEBC, symBinAddr: 0x50DB8, symSize: 0x6C }
  - { offset: 0xC2195, size: 0x8, addend: 0x0, symName: '__ZN4core6result19Result$LT$T$C$E$GT$14unwrap_or_else17h53291b34b684fa5fE', symObjAddr: 0xF28, symBinAddr: 0x50E24, symSize: 0x6C }
  - { offset: 0xC220E, size: 0x8, addend: 0x0, symName: '__ZN4core6result19Result$LT$T$C$E$GT$14unwrap_or_else17h581c71a61e5dbe82E', symObjAddr: 0xF94, symBinAddr: 0x50E90, symSize: 0x98 }
  - { offset: 0xC22CC, size: 0x8, addend: 0x0, symName: '__ZN4core6result19Result$LT$T$C$E$GT$14unwrap_or_else17h704a8dc58f21f903E', symObjAddr: 0x102C, symBinAddr: 0x50F28, symSize: 0x8C }
  - { offset: 0xC2363, size: 0x8, addend: 0x0, symName: '__ZN4core6result19Result$LT$T$C$E$GT$14unwrap_or_else17h70ba4d8b97141c09E', symObjAddr: 0x10B8, symBinAddr: 0x50FB4, symSize: 0x6C }
  - { offset: 0xC23CF, size: 0x8, addend: 0x0, symName: '__ZN4core6result19Result$LT$T$C$E$GT$14unwrap_or_else17h7c225a9b33531034E', symObjAddr: 0x1124, symBinAddr: 0x51020, symSize: 0x8C }
  - { offset: 0xC243B, size: 0x8, addend: 0x0, symName: '__ZN4core6result19Result$LT$T$C$E$GT$14unwrap_or_else17h80adb4e143733ca6E', symObjAddr: 0x11B0, symBinAddr: 0x510AC, symSize: 0x8C }
  - { offset: 0xC24B4, size: 0x8, addend: 0x0, symName: '__ZN4core6result19Result$LT$T$C$E$GT$14unwrap_or_else17h895c69347a3df011E', symObjAddr: 0x123C, symBinAddr: 0x51138, symSize: 0x6C }
  - { offset: 0xC252D, size: 0x8, addend: 0x0, symName: '__ZN4core6result19Result$LT$T$C$E$GT$14unwrap_or_else17h913be7875153d44eE', symObjAddr: 0x12A8, symBinAddr: 0x511A4, symSize: 0x8C }
  - { offset: 0xC2599, size: 0x8, addend: 0x0, symName: '__ZN4core6result19Result$LT$T$C$E$GT$14unwrap_or_else17ha1f828a4c9a7976aE', symObjAddr: 0x1334, symBinAddr: 0x51230, symSize: 0x8C }
  - { offset: 0xC2605, size: 0x8, addend: 0x0, symName: '__ZN4core6result19Result$LT$T$C$E$GT$14unwrap_or_else17ha40e7eed4443174dE', symObjAddr: 0x13C0, symBinAddr: 0x512BC, symSize: 0x8C }
  - { offset: 0xC269F, size: 0x8, addend: 0x0, symName: '__ZN4core6result19Result$LT$T$C$E$GT$14unwrap_or_else17haefcee74be093915E', symObjAddr: 0x144C, symBinAddr: 0x51348, symSize: 0x70 }
  - { offset: 0xC2718, size: 0x8, addend: 0x0, symName: '__ZN4core6result19Result$LT$T$C$E$GT$14unwrap_or_else17hb440bd450df3fba6E', symObjAddr: 0x14BC, symBinAddr: 0x513B8, symSize: 0x8C }
  - { offset: 0xC2791, size: 0x8, addend: 0x0, symName: '__ZN4core6result19Result$LT$T$C$E$GT$14unwrap_or_else17hcbe8237cf58d20e1E', symObjAddr: 0x1548, symBinAddr: 0x51444, symSize: 0x8C }
  - { offset: 0xC27FD, size: 0x8, addend: 0x0, symName: '__ZN4core6result19Result$LT$T$C$E$GT$14unwrap_or_else17hef71e03b41a5a7e6E', symObjAddr: 0x15D4, symBinAddr: 0x514D0, symSize: 0x8C }
  - { offset: 0xC2869, size: 0x8, addend: 0x0, symName: '__ZN4core6result19Result$LT$T$C$E$GT$2ok17h0c6f972539679cc7E', symObjAddr: 0x1660, symBinAddr: 0x5155C, symSize: 0x64 }
  - { offset: 0xC28BD, size: 0x8, addend: 0x0, symName: '__ZN4core6result19Result$LT$T$C$E$GT$2ok17h339808b439653da8E', symObjAddr: 0x16C4, symBinAddr: 0x515C0, symSize: 0x84 }
  - { offset: 0xC2911, size: 0x8, addend: 0x0, symName: '__ZN4core6result19Result$LT$T$C$E$GT$2ok17hff8b6a2396048c56E', symObjAddr: 0x1748, symBinAddr: 0x51644, symSize: 0x64 }
  - { offset: 0xC2CC8, size: 0x8, addend: 0x0, symName: '__ZN4core6result19Result$LT$T$C$E$GT$3map17h0166a7dd92fb8859E', symObjAddr: 0x17AC, symBinAddr: 0x516A8, symSize: 0x4C }
  - { offset: 0xC2D72, size: 0x8, addend: 0x0, symName: '__ZN4core6result19Result$LT$T$C$E$GT$3map17h16e14939662cc4b2E', symObjAddr: 0x17F8, symBinAddr: 0x516F4, symSize: 0x90 }
  - { offset: 0xC2E12, size: 0x8, addend: 0x0, symName: '__ZN4core6result19Result$LT$T$C$E$GT$3map17h316536aa17cec08fE', symObjAddr: 0x1888, symBinAddr: 0x51784, symSize: 0x90 }
  - { offset: 0xC2EBD, size: 0x8, addend: 0x0, symName: '__ZN4core6result19Result$LT$T$C$E$GT$3map17h35fe6cb3c90c8cf4E', symObjAddr: 0x1918, symBinAddr: 0x51814, symSize: 0x9C }
  - { offset: 0xC2F50, size: 0x8, addend: 0x0, symName: '__ZN4core6result19Result$LT$T$C$E$GT$3map17h3accf0cf0341d8e9E', symObjAddr: 0x19B4, symBinAddr: 0x518B0, symSize: 0x90 }
  - { offset: 0xC2FF0, size: 0x8, addend: 0x0, symName: '__ZN4core6result19Result$LT$T$C$E$GT$3map17h3ed5506aecd3c3a1E', symObjAddr: 0x1A44, symBinAddr: 0x51940, symSize: 0x4C }
  - { offset: 0xC308F, size: 0x8, addend: 0x0, symName: '__ZN4core6result19Result$LT$T$C$E$GT$3map17h50f56f4a2fc58b29E', symObjAddr: 0x1A90, symBinAddr: 0x5198C, symSize: 0x4C }
  - { offset: 0xC3139, size: 0x8, addend: 0x0, symName: '__ZN4core6result19Result$LT$T$C$E$GT$3map17h73f194646e248e06E', symObjAddr: 0x1ADC, symBinAddr: 0x519D8, symSize: 0x90 }
  - { offset: 0xC31E4, size: 0x8, addend: 0x0, symName: '__ZN4core6result19Result$LT$T$C$E$GT$3map17h754521586325d0f8E', symObjAddr: 0x1B6C, symBinAddr: 0x51A68, symSize: 0x90 }
  - { offset: 0xC328F, size: 0x8, addend: 0x0, symName: '__ZN4core6result19Result$LT$T$C$E$GT$3map17h8880d4ea9bf2aeecE', symObjAddr: 0x1BFC, symBinAddr: 0x51AF8, symSize: 0x90 }
  - { offset: 0xC333A, size: 0x8, addend: 0x0, symName: '__ZN4core6result19Result$LT$T$C$E$GT$3map17h977c973eac480f4bE', symObjAddr: 0x1C8C, symBinAddr: 0x51B88, symSize: 0x90 }
  - { offset: 0xC33E5, size: 0x8, addend: 0x0, symName: '__ZN4core6result19Result$LT$T$C$E$GT$3map17h9a174954bfbb4d04E', symObjAddr: 0x1D1C, symBinAddr: 0x51C18, symSize: 0x38 }
  - { offset: 0xC3473, size: 0x8, addend: 0x0, symName: '__ZN4core6result19Result$LT$T$C$E$GT$3map17ha1d6c8f9b0dfae98E', symObjAddr: 0x1D54, symBinAddr: 0x51C50, symSize: 0x88 }
  - { offset: 0xC3577, size: 0x8, addend: 0x0, symName: '__ZN4core6result19Result$LT$T$C$E$GT$3map17ha290c681a518a275E', symObjAddr: 0x1DDC, symBinAddr: 0x51CD8, symSize: 0x94 }
  - { offset: 0xC360A, size: 0x8, addend: 0x0, symName: '__ZN4core6result19Result$LT$T$C$E$GT$3map17ha4c30a48b45d4155E', symObjAddr: 0x1E70, symBinAddr: 0x51D6C, symSize: 0x38 }
  - { offset: 0xC367E, size: 0x8, addend: 0x0, symName: '__ZN4core6result19Result$LT$T$C$E$GT$3map17had9ed1bfb22a21cdE', symObjAddr: 0x1EA8, symBinAddr: 0x51DA4, symSize: 0x38 }
  - { offset: 0xC370A, size: 0x8, addend: 0x0, symName: '__ZN4core6result19Result$LT$T$C$E$GT$3map17hb58b17205dda2b60E', symObjAddr: 0x1EE0, symBinAddr: 0x51DDC, symSize: 0x90 }
  - { offset: 0xC37BC, size: 0x8, addend: 0x0, symName: '__ZN4core6result19Result$LT$T$C$E$GT$3map17hcaf5e6c211f99a04E', symObjAddr: 0x1F70, symBinAddr: 0x51E6C, symSize: 0x90 }
  - { offset: 0xC385C, size: 0x8, addend: 0x0, symName: '__ZN4core6result19Result$LT$T$C$E$GT$3map17he6d4dfcc7d70633aE', symObjAddr: 0x2000, symBinAddr: 0x51EFC, symSize: 0x4C }
  - { offset: 0xC3906, size: 0x8, addend: 0x0, symName: '__ZN4core6result19Result$LT$T$C$E$GT$3map17hf96601e85d0680d1E', symObjAddr: 0x204C, symBinAddr: 0x51F48, symSize: 0x38 }
  - { offset: 0xC3992, size: 0x8, addend: 0x0, symName: '__ZN4core6result19Result$LT$T$C$E$GT$3map17hfd67ce25f1101371E', symObjAddr: 0x2084, symBinAddr: 0x51F80, symSize: 0x90 }
  - { offset: 0xC3A57, size: 0x8, addend: 0x0, symName: '__ZN4core6result19Result$LT$T$C$E$GT$6is_err17h555696fc1d87df99E', symObjAddr: 0x2114, symBinAddr: 0x52010, symSize: 0x20 }
  - { offset: 0xC3AC2, size: 0x8, addend: 0x0, symName: '__ZN4core6result19Result$LT$T$C$E$GT$7map_err17h00d96e9319f8ae1eE', symObjAddr: 0x2134, symBinAddr: 0x52030, symSize: 0x84 }
  - { offset: 0xC3B6C, size: 0x8, addend: 0x0, symName: '__ZN4core6result19Result$LT$T$C$E$GT$7map_err17h0a27129cfb88f19bE', symObjAddr: 0x21B8, symBinAddr: 0x520B4, symSize: 0x48 }
  - { offset: 0xC3C18, size: 0x8, addend: 0x0, symName: '__ZN4core6result19Result$LT$T$C$E$GT$7map_err17h12884e80efe47c63E', symObjAddr: 0x2200, symBinAddr: 0x520FC, symSize: 0xCC }
  - { offset: 0xC3CAC, size: 0x8, addend: 0x0, symName: '__ZN4core6result19Result$LT$T$C$E$GT$7map_err17h1e4441211f205786E', symObjAddr: 0x22CC, symBinAddr: 0x521C8, symSize: 0x20 }
  - { offset: 0xC3D47, size: 0x8, addend: 0x0, symName: '__ZN4core6result19Result$LT$T$C$E$GT$7map_err17h26e2a8e6dff05a7dE', symObjAddr: 0x22EC, symBinAddr: 0x521E8, symSize: 0xB0 }
  - { offset: 0xC3DDA, size: 0x8, addend: 0x0, symName: '__ZN4core6result19Result$LT$T$C$E$GT$7map_err17h2e6e1587c47fa418E', symObjAddr: 0x239C, symBinAddr: 0x52298, symSize: 0x30 }
  - { offset: 0xC3E50, size: 0x8, addend: 0x0, symName: '__ZN4core6result19Result$LT$T$C$E$GT$7map_err17h3196338dc26a75ebE', symObjAddr: 0x23CC, symBinAddr: 0x522C8, symSize: 0xB8 }
  - { offset: 0xC3EE4, size: 0x8, addend: 0x0, symName: '__ZN4core6result19Result$LT$T$C$E$GT$7map_err17h38c6c71ff679d304E', symObjAddr: 0x2484, symBinAddr: 0x52380, symSize: 0xB8 }
  - { offset: 0xC3F78, size: 0x8, addend: 0x0, symName: '__ZN4core6result19Result$LT$T$C$E$GT$7map_err17h5151e51e64ba73caE', symObjAddr: 0x253C, symBinAddr: 0x52438, symSize: 0x48 }
  - { offset: 0xC3FEE, size: 0x8, addend: 0x0, symName: '__ZN4core6result19Result$LT$T$C$E$GT$7map_err17h52a6a54870737ba4E', symObjAddr: 0x2584, symBinAddr: 0x52480, symSize: 0x48 }
  - { offset: 0xC4064, size: 0x8, addend: 0x0, symName: '__ZN4core6result19Result$LT$T$C$E$GT$7map_err17h7025dda4d43e1e10E', symObjAddr: 0x25CC, symBinAddr: 0x524C8, symSize: 0xB8 }
  - { offset: 0xC4116, size: 0x8, addend: 0x0, symName: '__ZN4core6result19Result$LT$T$C$E$GT$7map_err17h8fbf2fae424e5aabE', symObjAddr: 0x2684, symBinAddr: 0x52580, symSize: 0xDC }
  - { offset: 0xC41D0, size: 0x8, addend: 0x0, symName: '__ZN4core6result19Result$LT$T$C$E$GT$7map_err17h95f91b0507d16ef3E', symObjAddr: 0x2760, symBinAddr: 0x5265C, symSize: 0x48 }
  - { offset: 0xC4246, size: 0x8, addend: 0x0, symName: '__ZN4core6result19Result$LT$T$C$E$GT$7map_err17h9fa24936ea437527E', symObjAddr: 0x27A8, symBinAddr: 0x526A4, symSize: 0x30 }
  - { offset: 0xC42BC, size: 0x8, addend: 0x0, symName: '__ZN4core6result19Result$LT$T$C$E$GT$7map_err17ha84a4726a09c4a98E', symObjAddr: 0x27D8, symBinAddr: 0x526D4, symSize: 0xA8 }
  - { offset: 0xC4367, size: 0x8, addend: 0x0, symName: '__ZN4core6result19Result$LT$T$C$E$GT$7map_err17hb23b50a50902e32eE', symObjAddr: 0x2880, symBinAddr: 0x5277C, symSize: 0x84 }
  - { offset: 0xC43F9, size: 0x8, addend: 0x0, symName: '__ZN4core6result19Result$LT$T$C$E$GT$7map_err17hb310779fdcee3a8bE', symObjAddr: 0x2904, symBinAddr: 0x52800, symSize: 0xCC }
  - { offset: 0xC448D, size: 0x8, addend: 0x0, symName: '__ZN4core6result19Result$LT$T$C$E$GT$7map_err17hbaaca0e104e63ee2E', symObjAddr: 0x29D0, symBinAddr: 0x528CC, symSize: 0xC8 }
  - { offset: 0xC4521, size: 0x8, addend: 0x0, symName: '__ZN4core6result19Result$LT$T$C$E$GT$7map_err17he4363302e94961e4E', symObjAddr: 0x2A98, symBinAddr: 0x52994, symSize: 0x84 }
  - { offset: 0xC45B3, size: 0x8, addend: 0x0, symName: '__ZN4core6result19Result$LT$T$C$E$GT$7map_err17he4769ab9e96196ffE', symObjAddr: 0x2B1C, symBinAddr: 0x52A18, symSize: 0xB0 }
  - { offset: 0xC4646, size: 0x8, addend: 0x0, symName: '__ZN4core6result19Result$LT$T$C$E$GT$7map_err17he71a7d9881f3aa5bE', symObjAddr: 0x2BCC, symBinAddr: 0x52AC8, symSize: 0xB8 }
  - { offset: 0xC46E6, size: 0x8, addend: 0x0, symName: '__ZN4core6result19Result$LT$T$C$E$GT$7map_err17hf6430fcc7e6cc33dE', symObjAddr: 0x2C84, symBinAddr: 0x52B80, symSize: 0x30 }
  - { offset: 0xC475C, size: 0x8, addend: 0x0, symName: '__ZN4core6result19Result$LT$T$C$E$GT$7map_err17hf8ac1dbb2b138659E', symObjAddr: 0x2CB4, symBinAddr: 0x52BB0, symSize: 0xB8 }
  - { offset: 0xC47EF, size: 0x8, addend: 0x0, symName: '__ZN4core6result19Result$LT$T$C$E$GT$7map_err17hf9be9adf3eaa1e5fE', symObjAddr: 0x2D6C, symBinAddr: 0x52C68, symSize: 0xCC }
  - { offset: 0xC4883, size: 0x8, addend: 0x0, symName: '__ZN4core6result19Result$LT$T$C$E$GT$7map_err17hfbf45eb2850c881aE', symObjAddr: 0x2E38, symBinAddr: 0x52D34, symSize: 0xC4 }
  - { offset: 0xC4916, size: 0x8, addend: 0x0, symName: '__ZN4core6result19Result$LT$T$C$E$GT$7map_err17hfe45cce00408e107E', symObjAddr: 0x2EFC, symBinAddr: 0x52DF8, symSize: 0x3C }
  - { offset: 0xC498C, size: 0x8, addend: 0x0, symName: '__ZN4core6result19Result$LT$T$C$E$GT$8and_then17h2ea268f3f7663cccE', symObjAddr: 0x2F38, symBinAddr: 0x52E34, symSize: 0xB0 }
  - { offset: 0xC4A20, size: 0x8, addend: 0x0, symName: '__ZN4core6result19Result$LT$T$C$E$GT$8and_then17h349b27bf811ed591E', symObjAddr: 0x2FE8, symBinAddr: 0x52EE4, symSize: 0xB0 }
  - { offset: 0xC4AB4, size: 0x8, addend: 0x0, symName: '__ZN4core6result19Result$LT$T$C$E$GT$8and_then17h5ea4d2047af377beE', symObjAddr: 0x3098, symBinAddr: 0x52F94, symSize: 0xA0 }
  - { offset: 0xC4B47, size: 0x8, addend: 0x0, symName: '__ZN4core6result19Result$LT$T$C$E$GT$8and_then17h8f33c64b2b6b9bb5E', symObjAddr: 0x3138, symBinAddr: 0x53034, symSize: 0xB0 }
  - { offset: 0xC4BF5, size: 0x8, addend: 0x0, symName: '__ZN4core6result19Result$LT$T$C$E$GT$8and_then17h96ed2da363675c32E', symObjAddr: 0x31E8, symBinAddr: 0x530E4, symSize: 0xA0 }
  - { offset: 0xC4C88, size: 0x8, addend: 0x0, symName: '__ZN4core6result19Result$LT$T$C$E$GT$8and_then17hbb0115de88f599a2E', symObjAddr: 0x3288, symBinAddr: 0x53184, symSize: 0xC8 }
  - { offset: 0xC4D1D, size: 0x8, addend: 0x0, symName: '__ZN4core6result19Result$LT$T$C$E$GT$8and_then17hc7b65e979ea02d20E', symObjAddr: 0x3350, symBinAddr: 0x5324C, symSize: 0xB0 }
  - { offset: 0xC4DB1, size: 0x8, addend: 0x0, symName: '__ZN4core6result19Result$LT$T$C$E$GT$8and_then17hcfb6eb65cb690f1eE', symObjAddr: 0x3400, symBinAddr: 0x532FC, symSize: 0x94 }
  - { offset: 0xC4E44, size: 0x8, addend: 0x0, symName: '__ZN4core6result19Result$LT$T$C$E$GT$8and_then17hf1a80ef32fa88f64E', symObjAddr: 0x3494, symBinAddr: 0x53390, symSize: 0xB0 }
  - { offset: 0xC4ED8, size: 0x8, addend: 0x0, symName: '__ZN4core6result19Result$LT$T$C$E$GT$9unwrap_or17h2551cc7e02e0f324E', symObjAddr: 0x3544, symBinAddr: 0x53440, symSize: 0x6C }
  - { offset: 0xC4F1D, size: 0x8, addend: 0x0, symName: '__ZN4core6result19Result$LT$T$C$E$GT$9unwrap_or17h6874336805c6a8d6E', symObjAddr: 0x35B0, symBinAddr: 0x534AC, symSize: 0x74 }
  - { offset: 0xC4F62, size: 0x8, addend: 0x0, symName: '__ZN4core6result23Result$LT$$RF$T$C$E$GT$6cloned17h37b55a3542caab01E', symObjAddr: 0x3624, symBinAddr: 0x53520, symSize: 0x14 }
  - { offset: 0xC51CE, size: 0x8, addend: 0x0, symName: __ZN4core4iter6traits8iterator8Iterator4take17hf7b00d8ea2a1536aE, symObjAddr: 0x0, symBinAddr: 0x54BFC, symSize: 0x24 }
  - { offset: 0xC52B4, size: 0x8, addend: 0x0, symName: __ZN4core4iter6traits8iterator8Iterator4take17hf7b00d8ea2a1536aE, symObjAddr: 0x0, symBinAddr: 0x54BFC, symSize: 0x24 }
  - { offset: 0xC55CB, size: 0x8, addend: 0x0, symName: __ZN4core5slice4sort6stable5drift10create_run17h411b5cdfef10a66eE, symObjAddr: 0x0, symBinAddr: 0x54C20, symSize: 0x410 }
  - { offset: 0xC6886, size: 0x8, addend: 0x0, symName: __ZN4core5slice4sort6stable5drift10create_run17h411b5cdfef10a66eE, symObjAddr: 0x0, symBinAddr: 0x54C20, symSize: 0x410 }
  - { offset: 0xC6D97, size: 0x8, addend: 0x0, symName: __ZN4core5slice4sort6stable5drift10create_run17h9f186698d442a0acE, symObjAddr: 0x410, symBinAddr: 0x55030, symSize: 0x410 }
  - { offset: 0xC72A8, size: 0x8, addend: 0x0, symName: __ZN4core5slice4sort6stable5drift10create_run17hc4726664a1f16d62E, symObjAddr: 0x820, symBinAddr: 0x55440, symSize: 0x438 }
  - { offset: 0xC77B9, size: 0x8, addend: 0x0, symName: __ZN4core5slice4sort6stable5drift10create_run17hcd291e9ca171f461E, symObjAddr: 0xC58, symBinAddr: 0x55878, symSize: 0x410 }
  - { offset: 0xC7CCA, size: 0x8, addend: 0x0, symName: __ZN4core5slice4sort6stable5drift16stable_quicksort17h0329492583877d8fE, symObjAddr: 0x1068, symBinAddr: 0x55C88, symSize: 0xB4 }
  - { offset: 0xC7E04, size: 0x8, addend: 0x0, symName: __ZN4core5slice4sort6stable5drift16stable_quicksort17h08a5becb8ef27f74E, symObjAddr: 0x111C, symBinAddr: 0x55D3C, symSize: 0xB4 }
  - { offset: 0xC7F3E, size: 0x8, addend: 0x0, symName: __ZN4core5slice4sort6stable5drift16stable_quicksort17h47efb0eeee83d225E, symObjAddr: 0x11D0, symBinAddr: 0x55DF0, symSize: 0xB4 }
  - { offset: 0xC8078, size: 0x8, addend: 0x0, symName: __ZN4core5slice4sort6stable5drift16stable_quicksort17h4ed1b22025d1fe05E, symObjAddr: 0x1284, symBinAddr: 0x55EA4, symSize: 0xB4 }
  - { offset: 0xC829D, size: 0x8, addend: 0x0, symName: __ZN4core5slice4sort6stable5drift4sort17h5c71028d41b4d73bE, symObjAddr: 0x1338, symBinAddr: 0x55F58, symSize: 0x620 }
  - { offset: 0xC8BAD, size: 0x8, addend: 0x0, symName: __ZN4core5slice4sort6stable5drift4sort17h8201f6f612f94467E, symObjAddr: 0x1958, symBinAddr: 0x56578, symSize: 0x608 }
  - { offset: 0xC94BD, size: 0x8, addend: 0x0, symName: __ZN4core5slice4sort6stable5drift4sort17h87b6c1c500a75d5aE, symObjAddr: 0x1F60, symBinAddr: 0x56B80, symSize: 0x608 }
  - { offset: 0xC9DCD, size: 0x8, addend: 0x0, symName: __ZN4core5slice4sort6stable5drift4sort17ha9bfbb1ec2d3e2b6E, symObjAddr: 0x2568, symBinAddr: 0x57188, symSize: 0x608 }
  - { offset: 0xCBBE5, size: 0x8, addend: 0x0, symName: __ZN9siphasher6common9u8to64_le17h85e005d29ecb447dE, symObjAddr: 0x0, symBinAddr: 0x57790, symSize: 0x524 }
  - { offset: 0xCBCCE, size: 0x8, addend: 0x0, symName: __ZN9siphasher6common9u8to64_le17h85e005d29ecb447dE, symObjAddr: 0x0, symBinAddr: 0x57790, symSize: 0x524 }
  - { offset: 0xCBEDA, size: 0x8, addend: 0x0, symName: __ZN4core3fmt9Arguments3new17h10d86815349283d2E, symObjAddr: 0x0, symBinAddr: 0x57CB4, symSize: 0x1C }
  - { offset: 0xCC23D, size: 0x8, addend: 0x0, symName: __ZN4core3fmt9Arguments3new17h10d86815349283d2E, symObjAddr: 0x0, symBinAddr: 0x57CB4, symSize: 0x1C }
  - { offset: 0xCC2A3, size: 0x8, addend: 0x0, symName: __ZN4core3fmt9Arguments3new17h6417f6b33ddfc328E, symObjAddr: 0x1C, symBinAddr: 0x57CD0, symSize: 0x1C }
  - { offset: 0xCC2F3, size: 0x8, addend: 0x0, symName: __ZN4core4iter6traits8iterator8Iterator3map17h0262af9981ab0464E, symObjAddr: 0x0, symBinAddr: 0x57CEC, symSize: 0x1C }
  - { offset: 0xCCD4C, size: 0x8, addend: 0x0, symName: __ZN4core4iter6traits8iterator8Iterator3map17h0262af9981ab0464E, symObjAddr: 0x0, symBinAddr: 0x57CEC, symSize: 0x1C }
  - { offset: 0xCCDA4, size: 0x8, addend: 0x0, symName: __ZN4core4iter6traits8iterator8Iterator3map17h0aa14238e41f9068E, symObjAddr: 0x1C, symBinAddr: 0x57D08, symSize: 0x1C }
  - { offset: 0xCCDFC, size: 0x8, addend: 0x0, symName: __ZN4core4iter6traits8iterator8Iterator3map17h1a606ad6eeddca6cE, symObjAddr: 0x38, symBinAddr: 0x57D24, symSize: 0x48 }
  - { offset: 0xCCE6A, size: 0x8, addend: 0x0, symName: __ZN4core4iter6traits8iterator8Iterator3map17h29cb580da8a0d880E, symObjAddr: 0x80, symBinAddr: 0x57D6C, symSize: 0x30 }
  - { offset: 0xCCED7, size: 0x8, addend: 0x0, symName: __ZN4core4iter6traits8iterator8Iterator3map17h6822b0e436c0d413E, symObjAddr: 0xB0, symBinAddr: 0x57D9C, symSize: 0x1C }
  - { offset: 0xCCF2F, size: 0x8, addend: 0x0, symName: __ZN4core4iter6traits8iterator8Iterator3map17h7c42e83650400235E, symObjAddr: 0xCC, symBinAddr: 0x57DB8, symSize: 0x1C }
  - { offset: 0xCCF87, size: 0x8, addend: 0x0, symName: __ZN4core4iter6traits8iterator8Iterator3map17h8b65c2d17d006bd9E, symObjAddr: 0xE8, symBinAddr: 0x57DD4, symSize: 0x1C }
  - { offset: 0xCCFDF, size: 0x8, addend: 0x0, symName: __ZN4core4iter6traits8iterator8Iterator3map17h8d38681db3d114e1E, symObjAddr: 0x104, symBinAddr: 0x57DF0, symSize: 0x1C }
  - { offset: 0xCD037, size: 0x8, addend: 0x0, symName: __ZN4core4iter6traits8iterator8Iterator3map17h955efc1cc9102b8aE, symObjAddr: 0x120, symBinAddr: 0x57E0C, symSize: 0x1C }
  - { offset: 0xCD08F, size: 0x8, addend: 0x0, symName: __ZN4core4iter6traits8iterator8Iterator3map17hbdf7cbc057b021faE, symObjAddr: 0x13C, symBinAddr: 0x57E28, symSize: 0x1C }
  - { offset: 0xCD0E7, size: 0x8, addend: 0x0, symName: __ZN4core4iter6traits8iterator8Iterator3map17hcfa712f65d7dee94E, symObjAddr: 0x158, symBinAddr: 0x57E44, symSize: 0x30 }
  - { offset: 0xCD154, size: 0x8, addend: 0x0, symName: __ZN4core4iter6traits8iterator8Iterator3map17hd1ddf7e7292ff549E, symObjAddr: 0x188, symBinAddr: 0x57E74, symSize: 0x1C }
  - { offset: 0xCD1AC, size: 0x8, addend: 0x0, symName: __ZN4core4iter6traits8iterator8Iterator3map17he9e7c2a1217e13bdE, symObjAddr: 0x1A4, symBinAddr: 0x57E90, symSize: 0x1C }
  - { offset: 0xCD204, size: 0x8, addend: 0x0, symName: __ZN4core4iter6traits8iterator8Iterator3map17hfa7dd2b8c49a2d69E, symObjAddr: 0x1C0, symBinAddr: 0x57EAC, symSize: 0x1C }
  - { offset: 0xCD25C, size: 0x8, addend: 0x0, symName: __ZN4core4iter6traits8iterator8Iterator3map17hffbe702ea6f15e34E, symObjAddr: 0x1DC, symBinAddr: 0x57EC8, symSize: 0x30 }
  - { offset: 0xCD2C9, size: 0x8, addend: 0x0, symName: __ZN4core4iter6traits8iterator8Iterator6copied17h16f93a4c27079618E, symObjAddr: 0x20C, symBinAddr: 0x57EF8, symSize: 0x1C }
  - { offset: 0xCD309, size: 0x8, addend: 0x0, symName: __ZN4core4iter6traits8iterator8Iterator8try_fold17h6931c4d4e75b2fb1E, symObjAddr: 0x228, symBinAddr: 0x57F14, symSize: 0x15C }
  - { offset: 0xCD3C6, size: 0x8, addend: 0x0, symName: __ZN4core4iter6traits8iterator8Iterator8try_fold17h6e4280c4251418acE, symObjAddr: 0x384, symBinAddr: 0x58070, symSize: 0x15C }
  - { offset: 0xCD483, size: 0x8, addend: 0x0, symName: __ZN4core4iter6traits8iterator8Iterator9enumerate17h24c21877c69304a0E, symObjAddr: 0x4E0, symBinAddr: 0x581CC, symSize: 0x28 }
  - { offset: 0xCDF3D, size: 0x8, addend: 0x0, symName: '__ZN4core5slice4iter87_$LT$impl$u20$core..iter..traits..collect..IntoIterator$u20$for$u20$$RF$$u5b$T$u5d$$GT$9into_iter17he6e09173c6037acfE', symObjAddr: 0x650, symBinAddr: 0x5833C, symSize: 0x58 }
  - { offset: 0xCE0CF, size: 0x8, addend: 0x0, symName: '__ZN91_$LT$core..slice..iter..Iter$LT$T$GT$$u20$as$u20$core..iter..traits..iterator..Iterator$GT$3any17h05f6392727c42441E', symObjAddr: 0x6A8, symBinAddr: 0x58394, symSize: 0xE4 }
  - { offset: 0xCE1F9, size: 0x8, addend: 0x0, symName: '__ZN91_$LT$core..slice..iter..Iter$LT$T$GT$$u20$as$u20$core..iter..traits..iterator..Iterator$GT$3any17h2c04f45b93c07728E', symObjAddr: 0x78C, symBinAddr: 0x58478, symSize: 0xE4 }
  - { offset: 0xCE323, size: 0x8, addend: 0x0, symName: '__ZN91_$LT$core..slice..iter..Iter$LT$T$GT$$u20$as$u20$core..iter..traits..iterator..Iterator$GT$3any17h99b0b09c3dc47c3bE', symObjAddr: 0x870, symBinAddr: 0x5855C, symSize: 0xE4 }
  - { offset: 0xCE44D, size: 0x8, addend: 0x0, symName: '__ZN91_$LT$core..slice..iter..Iter$LT$T$GT$$u20$as$u20$core..iter..traits..iterator..Iterator$GT$3any17hb12ce43de2804c7eE', symObjAddr: 0x954, symBinAddr: 0x58640, symSize: 0xE4 }
  - { offset: 0xCE528, size: 0x8, addend: 0x0, symName: '__ZN91_$LT$core..slice..iter..Iter$LT$T$GT$$u20$as$u20$core..iter..traits..iterator..Iterator$GT$4fold17h01ce91f0da456eeaE', symObjAddr: 0xA38, symBinAddr: 0x58724, symSize: 0x17C }
  - { offset: 0xCE65D, size: 0x8, addend: 0x0, symName: '__ZN91_$LT$core..slice..iter..Iter$LT$T$GT$$u20$as$u20$core..iter..traits..iterator..Iterator$GT$4fold17h05fe85d40065b31fE', symObjAddr: 0xBB4, symBinAddr: 0x588A0, symSize: 0x1A8 }
  - { offset: 0xCE793, size: 0x8, addend: 0x0, symName: '__ZN91_$LT$core..slice..iter..Iter$LT$T$GT$$u20$as$u20$core..iter..traits..iterator..Iterator$GT$4fold17h1d141bf28506343bE', symObjAddr: 0xD5C, symBinAddr: 0x58A48, symSize: 0x1A0 }
  - { offset: 0xCE8C9, size: 0x8, addend: 0x0, symName: '__ZN91_$LT$core..slice..iter..Iter$LT$T$GT$$u20$as$u20$core..iter..traits..iterator..Iterator$GT$4fold17h3ae5e7cef67a5ddeE', symObjAddr: 0xEFC, symBinAddr: 0x58BE8, symSize: 0x1B4 }
  - { offset: 0xCEA03, size: 0x8, addend: 0x0, symName: '__ZN91_$LT$core..slice..iter..Iter$LT$T$GT$$u20$as$u20$core..iter..traits..iterator..Iterator$GT$4fold17h3dfbbaf85ba42df2E', symObjAddr: 0x10B0, symBinAddr: 0x58D9C, symSize: 0x174 }
  - { offset: 0xCEB38, size: 0x8, addend: 0x0, symName: '__ZN91_$LT$core..slice..iter..Iter$LT$T$GT$$u20$as$u20$core..iter..traits..iterator..Iterator$GT$4fold17h49f7efbaaa285500E', symObjAddr: 0x1224, symBinAddr: 0x58F10, symSize: 0x1A0 }
  - { offset: 0xCEC6E, size: 0x8, addend: 0x0, symName: '__ZN91_$LT$core..slice..iter..Iter$LT$T$GT$$u20$as$u20$core..iter..traits..iterator..Iterator$GT$4fold17h6f59902f99b546d4E', symObjAddr: 0x13C4, symBinAddr: 0x590B0, symSize: 0x1A8 }
  - { offset: 0xCEDA4, size: 0x8, addend: 0x0, symName: '__ZN91_$LT$core..slice..iter..Iter$LT$T$GT$$u20$as$u20$core..iter..traits..iterator..Iterator$GT$4fold17h80d6cf88b23c3ebfE', symObjAddr: 0x156C, symBinAddr: 0x59258, symSize: 0x1A8 }
  - { offset: 0xCEEDA, size: 0x8, addend: 0x0, symName: '__ZN91_$LT$core..slice..iter..Iter$LT$T$GT$$u20$as$u20$core..iter..traits..iterator..Iterator$GT$4fold17h98b56a89926de7edE', symObjAddr: 0x1714, symBinAddr: 0x59400, symSize: 0x1A8 }
  - { offset: 0xCF010, size: 0x8, addend: 0x0, symName: '__ZN91_$LT$core..slice..iter..Iter$LT$T$GT$$u20$as$u20$core..iter..traits..iterator..Iterator$GT$4fold17ha087f31106b369beE', symObjAddr: 0x18BC, symBinAddr: 0x595A8, symSize: 0x1A8 }
  - { offset: 0xCF146, size: 0x8, addend: 0x0, symName: '__ZN91_$LT$core..slice..iter..Iter$LT$T$GT$$u20$as$u20$core..iter..traits..iterator..Iterator$GT$4fold17hc5a171745fd56315E', symObjAddr: 0x1A64, symBinAddr: 0x59750, symSize: 0x1A8 }
  - { offset: 0xCF27C, size: 0x8, addend: 0x0, symName: '__ZN91_$LT$core..slice..iter..Iter$LT$T$GT$$u20$as$u20$core..iter..traits..iterator..Iterator$GT$4fold17hde437f4721229fa2E', symObjAddr: 0x1C0C, symBinAddr: 0x598F8, symSize: 0x1A0 }
  - { offset: 0xCF3B2, size: 0x8, addend: 0x0, symName: '__ZN91_$LT$core..slice..iter..Iter$LT$T$GT$$u20$as$u20$core..iter..traits..iterator..Iterator$GT$4fold17hfd00ccf1983285f6E', symObjAddr: 0x1DAC, symBinAddr: 0x59A98, symSize: 0x1A8 }
  - { offset: 0xCF4E8, size: 0x8, addend: 0x0, symName: '__ZN91_$LT$core..slice..iter..Iter$LT$T$GT$$u20$as$u20$core..iter..traits..iterator..Iterator$GT$4fold17hfe3625d1c3f056ddE', symObjAddr: 0x1F54, symBinAddr: 0x59C40, symSize: 0x1A8 }
  - { offset: 0xCF61E, size: 0x8, addend: 0x0, symName: '__ZN91_$LT$core..slice..iter..Iter$LT$T$GT$$u20$as$u20$core..iter..traits..iterator..Iterator$GT$4next17h69ca45dace510f50E', symObjAddr: 0x20FC, symBinAddr: 0x59DE8, symSize: 0x84 }
  - { offset: 0xCF6D4, size: 0x8, addend: 0x0, symName: '__ZN91_$LT$core..slice..iter..Iter$LT$T$GT$$u20$as$u20$core..iter..traits..iterator..Iterator$GT$4next17h72a75de0ca3f1bd1E', symObjAddr: 0x2180, symBinAddr: 0x59E6C, symSize: 0x84 }
  - { offset: 0xCF78A, size: 0x8, addend: 0x0, symName: '__ZN91_$LT$core..slice..iter..Iter$LT$T$GT$$u20$as$u20$core..iter..traits..iterator..Iterator$GT$4next17ha193a6147070e29fE', symObjAddr: 0x2204, symBinAddr: 0x59EF0, symSize: 0x84 }
  - { offset: 0xCF88F, size: 0x8, addend: 0x0, symName: '__ZN91_$LT$core..slice..iter..Iter$LT$T$GT$$u20$as$u20$core..iter..traits..iterator..Iterator$GT$8position17h9db30a5efeeea388E', symObjAddr: 0x2288, symBinAddr: 0x59F74, symSize: 0x194 }
  - { offset: 0xCFA1C, size: 0x8, addend: 0x0, symName: '__ZN91_$LT$core..slice..iter..Iter$LT$T$GT$$u20$as$u20$core..iter..traits..iterator..Iterator$GT$8position17hf80e7591ed773daeE', symObjAddr: 0x241C, symBinAddr: 0x5A108, symSize: 0x194 }
  - { offset: 0xCFB5A, size: 0x8, addend: 0x0, symName: '__ZN91_$LT$core..slice..iter..Iter$LT$T$GT$$u20$as$u20$core..iter..traits..iterator..Iterator$GT$9size_hint17h3e9f57234bf2289fE', symObjAddr: 0x25B0, symBinAddr: 0x5A29C, symSize: 0x60 }
  - { offset: 0xCFBC9, size: 0x8, addend: 0x0, symName: '__ZN91_$LT$core..slice..iter..Iter$LT$T$GT$$u20$as$u20$core..iter..traits..iterator..Iterator$GT$9size_hint17h5285775e1e24a9b9E', symObjAddr: 0x2610, symBinAddr: 0x5A2FC, symSize: 0x60 }
  - { offset: 0xCFC38, size: 0x8, addend: 0x0, symName: '__ZN91_$LT$core..slice..iter..Iter$LT$T$GT$$u20$as$u20$core..iter..traits..iterator..Iterator$GT$9size_hint17h73316c80bb6575e0E', symObjAddr: 0x2670, symBinAddr: 0x5A35C, symSize: 0x60 }
  - { offset: 0xCFD19, size: 0x8, addend: 0x0, symName: '__ZN94_$LT$core..slice..iter..IterMut$LT$T$GT$$u20$as$u20$core..iter..traits..iterator..Iterator$GT$4fold17h261aa1144b698f58E', symObjAddr: 0x26D0, symBinAddr: 0x5A3BC, symSize: 0x1A0 }
  - { offset: 0xCFE4F, size: 0x8, addend: 0x0, symName: '__ZN94_$LT$core..slice..iter..IterMut$LT$T$GT$$u20$as$u20$core..iter..traits..iterator..Iterator$GT$4fold17h54207ba96607605bE', symObjAddr: 0x2870, symBinAddr: 0x5A55C, symSize: 0x1A0 }
  - { offset: 0xCFF85, size: 0x8, addend: 0x0, symName: '__ZN94_$LT$core..slice..iter..IterMut$LT$T$GT$$u20$as$u20$core..iter..traits..iterator..Iterator$GT$4fold17h83e4a13782e28b94E', symObjAddr: 0x2A10, symBinAddr: 0x5A6FC, symSize: 0x170 }
  - { offset: 0xD00B7, size: 0x8, addend: 0x0, symName: '__ZN94_$LT$core..slice..iter..IterMut$LT$T$GT$$u20$as$u20$core..iter..traits..iterator..Iterator$GT$4fold17h8cb8d74353a8b019E', symObjAddr: 0x2B80, symBinAddr: 0x5A86C, symSize: 0x170 }
  - { offset: 0xD01E9, size: 0x8, addend: 0x0, symName: '__ZN94_$LT$core..slice..iter..IterMut$LT$T$GT$$u20$as$u20$core..iter..traits..iterator..Iterator$GT$9size_hint17h369cae0b1a866e3bE', symObjAddr: 0x2CF0, symBinAddr: 0x5A9DC, symSize: 0x60 }
  - { offset: 0xD0258, size: 0x8, addend: 0x0, symName: '__ZN94_$LT$core..slice..iter..IterMut$LT$T$GT$$u20$as$u20$core..iter..traits..iterator..Iterator$GT$9size_hint17hee53e13b7d0cde97E', symObjAddr: 0x2D50, symBinAddr: 0x5AA3C, symSize: 0x60 }
  - { offset: 0xD4147, size: 0x8, addend: 0x0, symName: '__ZN4core5slice4iter13Iter$LT$T$GT$3new17h664afac8cee98786E', symObjAddr: 0x508, symBinAddr: 0x581F4, symSize: 0x58 }
  - { offset: 0xD42F7, size: 0x8, addend: 0x0, symName: '__ZN4core5slice4iter13Iter$LT$T$GT$3new17hb89a1c2d1f9242e9E', symObjAddr: 0x560, symBinAddr: 0x5824C, symSize: 0x50 }
  - { offset: 0xD44DF, size: 0x8, addend: 0x0, symName: '__ZN4core5slice4iter16IterMut$LT$T$GT$3new17h50750888a7e89dc3E', symObjAddr: 0x5B0, symBinAddr: 0x5829C, symSize: 0x50 }
  - { offset: 0xD4668, size: 0x8, addend: 0x0, symName: '__ZN4core5slice4iter16IterMut$LT$T$GT$3new17hd1ff21a774534e07E', symObjAddr: 0x600, symBinAddr: 0x582EC, symSize: 0x50 }
  - { offset: 0xD5010, size: 0x8, addend: 0x0, symName: __ZN20unicode_segmentation6tables4util19bsearch_range_table17h3638bda5bd510a72E, symObjAddr: 0x0, symBinAddr: 0x5AA9C, symSize: 0x50 }
  - { offset: 0xD502C, size: 0x8, addend: 0x0, symName: __ZN20unicode_segmentation6tables4util19bsearch_range_table17h3638bda5bd510a72E, symObjAddr: 0x0, symBinAddr: 0x5AA9C, symSize: 0x50 }
  - { offset: 0xD50E1, size: 0x8, addend: 0x0, symName: __ZN14regex_automata4util6search5Input3new17hbc8982fc9a98999dE, symObjAddr: 0x0, symBinAddr: 0x5AAEC, symSize: 0x5C }
  - { offset: 0xD51DF, size: 0x8, addend: 0x0, symName: '__ZN88_$LT$regex_automata..util..search..Input$u20$as$u20$core..convert..From$LT$$RF$H$GT$$GT$4from17h89fd16f1ecf6fcc6E', symObjAddr: 0x5C, symBinAddr: 0x5AB48, symSize: 0x28 }
  - { offset: 0xD52AB, size: 0x8, addend: 0x0, symName: __ZN14regex_automata4util6search5Input3new17hbc8982fc9a98999dE, symObjAddr: 0x0, symBinAddr: 0x5AAEC, symSize: 0x5C }
  - { offset: 0xD5311, size: 0x8, addend: 0x0, symName: '__ZN5alloc3vec16Vec$LT$T$C$A$GT$7set_len18precondition_check17h9ce691cc48a6a24fE', symObjAddr: 0x0, symBinAddr: 0x5AB70, symSize: 0x60 }
  - { offset: 0xD5332, size: 0x8, addend: 0x0, symName: '__ZN5alloc3vec16Vec$LT$T$C$A$GT$7set_len18precondition_check17h9ce691cc48a6a24fE', symObjAddr: 0x0, symBinAddr: 0x5AB70, symSize: 0x60 }
  - { offset: 0xD53DC, size: 0x8, addend: 0x0, symName: '__ZN4pyo34sync20GILOnceCell$LT$T$GT$11get_or_init17h8899af196ec06be3E', symObjAddr: 0x0, symBinAddr: 0x5ABD0, symSize: 0xD8 }
  - { offset: 0xD5F6A, size: 0x8, addend: 0x0, symName: '__ZN4pyo34sync20GILOnceCell$LT$T$GT$11get_or_init28_$u7b$$u7b$closure$u7d$$u7d$17h9e6e890fbfd46b3aE', symObjAddr: 0xD8, symBinAddr: 0x5ACA8, symSize: 0x24 }
  - { offset: 0xD5FC2, size: 0x8, addend: 0x0, symName: '__ZN4pyo34sync20GILOnceCell$LT$T$GT$3set28_$u7b$$u7b$closure$u7d$$u7d$17hd088707c6bb06537E', symObjAddr: 0x538, symBinAddr: 0x5B108, symSize: 0x100 }
  - { offset: 0xD6789, size: 0x8, addend: 0x0, symName: '__ZN4pyo34sync20GILOnceCell$LT$T$GT$11get_or_init17h8899af196ec06be3E', symObjAddr: 0x0, symBinAddr: 0x5ABD0, symSize: 0xD8 }
  - { offset: 0xD69C1, size: 0x8, addend: 0x0, symName: '__ZN4pyo34sync20GILOnceCell$LT$T$GT$15get_or_try_init17h8ea06a4671bc44a7E', symObjAddr: 0xFC, symBinAddr: 0x5ACCC, symSize: 0xB4 }
  - { offset: 0xD6A3A, size: 0x8, addend: 0x0, symName: '__ZN4pyo34sync20GILOnceCell$LT$T$GT$15get_or_try_init17h9e4f46704b2ef4f1E', symObjAddr: 0x1B0, symBinAddr: 0x5AD80, symSize: 0xB4 }
  - { offset: 0xD6AB3, size: 0x8, addend: 0x0, symName: '__ZN4pyo34sync20GILOnceCell$LT$T$GT$15get_or_try_init17hba2d28224e5aba4fE', symObjAddr: 0x264, symBinAddr: 0x5AE34, symSize: 0xB4 }
  - { offset: 0xD6B2C, size: 0x8, addend: 0x0, symName: '__ZN4pyo34sync20GILOnceCell$LT$T$GT$15get_or_try_init17hed1635c31899b846E', symObjAddr: 0x318, symBinAddr: 0x5AEE8, symSize: 0xB4 }
  - { offset: 0xD6BA5, size: 0x8, addend: 0x0, symName: '__ZN4pyo34sync20GILOnceCell$LT$T$GT$3get17h6e56b7a478bfd0f3E', symObjAddr: 0x3CC, symBinAddr: 0x5AF9C, symSize: 0xA8 }
  - { offset: 0xD6BE9, size: 0x8, addend: 0x0, symName: '__ZN4pyo34sync20GILOnceCell$LT$T$GT$3set17h1a34c93ca9ecb1e0E', symObjAddr: 0x474, symBinAddr: 0x5B044, symSize: 0xC4 }
  - { offset: 0xD6D33, size: 0x8, addend: 0x0, symName: '__ZN4pyo34sync20GILOnceCell$LT$T$GT$4init17h5c1fdb7b24d43238E', symObjAddr: 0x638, symBinAddr: 0x310D50, symSize: 0x1A0 }
  - { offset: 0xD6E0A, size: 0x8, addend: 0x0, symName: '__ZN4pyo34sync20GILOnceCell$LT$T$GT$4init17h7d6303b7504e5504E', symObjAddr: 0x7D8, symBinAddr: 0x310EF0, symSize: 0x1A0 }
  - { offset: 0xD6EE1, size: 0x8, addend: 0x0, symName: '__ZN4pyo34sync20GILOnceCell$LT$T$GT$4init17hb55bad172f4112f0E', symObjAddr: 0x978, symBinAddr: 0x311090, symSize: 0x1A0 }
  - { offset: 0xD6FE3, size: 0x8, addend: 0x0, symName: '__ZN4pyo34sync20GILOnceCell$LT$T$GT$4init17hc9f7bd69f6a2301fE', symObjAddr: 0xB18, symBinAddr: 0x311230, symSize: 0x11C }
  - { offset: 0xD7097, size: 0x8, addend: 0x0, symName: '__ZN4pyo34sync20GILOnceCell$LT$T$GT$4init17hfcd1f52b40241b76E', symObjAddr: 0xC34, symBinAddr: 0x31134C, symSize: 0x1A0 }
  - { offset: 0xD71A0, size: 0x8, addend: 0x0, symName: __ZN9hashbrown3raw11TableLayout20calculate_layout_for17h6e108f601acea48cE, symObjAddr: 0x0, symBinAddr: 0x5B208, symSize: 0x220 }
  - { offset: 0xD885B, size: 0x8, addend: 0x0, symName: __ZN9hashbrown3raw11TableLayout20calculate_layout_for17h6e108f601acea48cE, symObjAddr: 0x0, symBinAddr: 0x5B208, symSize: 0x220 }
  - { offset: 0xD8D39, size: 0x8, addend: 0x0, symName: __ZN9hashbrown3raw13RawTableInner15rehash_in_place17ha2e0b5b92b7dc8afE, symObjAddr: 0x220, symBinAddr: 0x5B428, symSize: 0x408 }
  - { offset: 0xD959B, size: 0x8, addend: 0x0, symName: __ZN9hashbrown3raw13RawTableInner16fix_insert_index17h210f3a8f6445f0deE, symObjAddr: 0x628, symBinAddr: 0x5B830, symSize: 0x100 }
  - { offset: 0xD980D, size: 0x8, addend: 0x0, symName: __ZN9hashbrown3raw13RawTableInner17find_insert_index17hf5411e05dd16048bE, symObjAddr: 0x728, symBinAddr: 0x5B930, symSize: 0xFC }
  - { offset: 0xD9B12, size: 0x8, addend: 0x0, symName: __ZN9hashbrown3raw13RawTableInner23prepare_rehash_in_place17h27afb8aa2c1a07e4E, symObjAddr: 0x824, symBinAddr: 0x5BA2C, symSize: 0x204 }
  - { offset: 0xDA108, size: 0x8, addend: 0x0, symName: __ZN9hashbrown3raw13RawTableInner26find_insert_index_in_group17hd140d2f15f0831feE, symObjAddr: 0xA28, symBinAddr: 0x5BC30, symSize: 0x120 }
  - { offset: 0xDA3C5, size: 0x8, addend: 0x0, symName: __ZN9hashbrown3raw13RawTableInner31find_or_find_insert_index_inner17h79dcc12973a012b1E, symObjAddr: 0xB48, symBinAddr: 0x5BD50, symSize: 0x2A0 }
  - { offset: 0xDA7E7, size: 0x8, addend: 0x0, symName: __ZN9hashbrown3raw13RawTableInner5erase17h367d891b83fcf4a2E, symObjAddr: 0xDE8, symBinAddr: 0x5BFF0, symSize: 0x178 }
  - { offset: 0xDAAF7, size: 0x8, addend: 0x0, symName: __ZN4core3mem10needs_drop17h006eb3ca47b0c16bE, symObjAddr: 0x0, symBinAddr: 0x5C168, symSize: 0xC }
  - { offset: 0xDAB0E, size: 0x8, addend: 0x0, symName: __ZN4core3mem10needs_drop17h006eb3ca47b0c16bE, symObjAddr: 0x0, symBinAddr: 0x5C168, symSize: 0xC }
  - { offset: 0xDAB36, size: 0x8, addend: 0x0, symName: __ZN4core3mem10needs_drop17hae25ae4185a0d5c8E, symObjAddr: 0xC, symBinAddr: 0x5C174, symSize: 0xC }
  - { offset: 0xDABEE, size: 0x8, addend: 0x0, symName: __ZN4core3mem11conjure_zst17h7c56ada3b911f045E, symObjAddr: 0x18, symBinAddr: 0x5C180, symSize: 0x3C }
  - { offset: 0xDAC88, size: 0x8, addend: 0x0, symName: __ZN4core3mem4drop17h4e629a8a7b8b99a5E, symObjAddr: 0x54, symBinAddr: 0x5C1BC, symSize: 0x2C }
  - { offset: 0xDACBB, size: 0x8, addend: 0x0, symName: __ZN4core3mem4drop17hd6fbda4b4bd2e60cE, symObjAddr: 0x80, symBinAddr: 0x5C1E8, symSize: 0x10 }
  - { offset: 0xDACEE, size: 0x8, addend: 0x0, symName: __ZN4core3mem4drop17he2156a0d6ea045c2E, symObjAddr: 0x90, symBinAddr: 0x5C1F8, symSize: 0x14 }
  - { offset: 0xDAD54, size: 0x8, addend: 0x0, symName: __ZN4core3mem4take17h45d357e5ebd4d744E, symObjAddr: 0xA4, symBinAddr: 0x5C20C, symSize: 0x24 }
  - { offset: 0xDADE4, size: 0x8, addend: 0x0, symName: __ZN4core3mem4take17h5e39c70074da1152E, symObjAddr: 0xC8, symBinAddr: 0x5C230, symSize: 0x48 }
  - { offset: 0xDAE41, size: 0x8, addend: 0x0, symName: __ZN4core3mem7replace17hcaebd89a3f7f573fE, symObjAddr: 0x110, symBinAddr: 0x5C278, symSize: 0x38 }
  - { offset: 0xDC8BB, size: 0x8, addend: 0x0, symName: '__ZN103_$LT$pyo3..instance..Bound$LT$pyo3..types..any..PyAny$GT$$u20$as$u20$pyo3..types..any..PyAnyMethods$GT$7is_none17he116e2789669f1d7E', symObjAddr: 0x0, symBinAddr: 0x5C2B0, symSize: 0x44 }
  - { offset: 0xDC943, size: 0x8, addend: 0x0, symName: '__ZN103_$LT$pyo3..instance..Bound$LT$pyo3..types..any..PyAny$GT$$u20$as$u20$pyo3..types..any..PyAnyMethods$GT$7is_none17he116e2789669f1d7E', symObjAddr: 0x0, symBinAddr: 0x5C2B0, symSize: 0x44 }
  - { offset: 0xDC992, size: 0x8, addend: 0x0, symName: '__ZN111_$LT$pyo3..instance..Bound$LT$pyo3..types..bytes..PyBytes$GT$$u20$as$u20$pyo3..types..bytes..PyBytesMethods$GT$8as_bytes17h50976b0d54242e05E', symObjAddr: 0x44, symBinAddr: 0x5C2F4, symSize: 0x28 }
  - { offset: 0xDC9DF, size: 0x8, addend: 0x0, symName: '__ZN119_$LT$pyo3..instance..Bound$LT$pyo3..types..typeobject..PyType$GT$$u20$as$u20$pyo3..types..typeobject..PyTypeMethods$GT$11as_type_ptr17hc9c5f1818213a7f0E', symObjAddr: 0x6C, symBinAddr: 0x5C31C, symSize: 0x24 }
  - { offset: 0xDCA2C, size: 0x8, addend: 0x0, symName: '__ZN123_$LT$pyo3..instance..Bound$LT$pyo3..types..sequence..PySequence$GT$$u20$as$u20$pyo3..types..sequence..PySequenceMethods$GT$3len17h259f5b0ff2bbc487E', symObjAddr: 0x90, symBinAddr: 0x5C340, symSize: 0xD4 }
  - { offset: 0xDCAB6, size: 0x8, addend: 0x0, symName: '__ZN4pyo35types8iterator131_$LT$impl$u20$core..iter..traits..iterator..Iterator$u20$for$u20$pyo3..instance..Bound$LT$pyo3..types..iterator..PyIterator$GT$$GT$4next17h7a3ef3d9c51428b9E', symObjAddr: 0x164, symBinAddr: 0x5C414, symSize: 0x30 }
  - { offset: 0xDD70A, size: 0x8, addend: 0x0, symName: '__ZN4pyo38instance36Bound$LT$pyo3..types..any..PyAny$GT$14from_owned_ptr17hdf493a0cccf19244E', symObjAddr: 0x194, symBinAddr: 0x5C444, symSize: 0x2C }
  - { offset: 0xDD759, size: 0x8, addend: 0x0, symName: '__ZN4pyo38instance39Borrowed$LT$pyo3..types..any..PyAny$GT$15from_ptr_or_opt17hee79600550f2cc26E', symObjAddr: 0x1C0, symBinAddr: 0x5C470, symSize: 0x2C }
  - { offset: 0xDD797, size: 0x8, addend: 0x0, symName: '__ZN4pyo38instance39Borrowed$LT$pyo3..types..any..PyAny$GT$18from_ptr_unchecked17h5b5d8632c1e3c83dE', symObjAddr: 0x1EC, symBinAddr: 0x5C49C, symSize: 0x2C }
  - { offset: 0xDD7D5, size: 0x8, addend: 0x0, symName: '__ZN4pyo38instance39Borrowed$LT$pyo3..types..any..PyAny$GT$8from_ptr17h0e9c048e6e493c8eE', symObjAddr: 0x218, symBinAddr: 0x5C4C8, symSize: 0x34 }
  - { offset: 0xDDA8B, size: 0x8, addend: 0x0, symName: __ZN21unicode_normalization9normalize19decompose_canonical17h132deda01fbae74bE, symObjAddr: 0x0, symBinAddr: 0x5C4FC, symSize: 0x28 }
  - { offset: 0xDDC04, size: 0x8, addend: 0x0, symName: __ZN21unicode_normalization9normalize19decompose_canonical17h132deda01fbae74bE, symObjAddr: 0x0, symBinAddr: 0x5C4FC, symSize: 0x28 }
  - { offset: 0xDDC43, size: 0x8, addend: 0x0, symName: __ZN21unicode_normalization9normalize19decompose_canonical17hbc61d02bcda459bbE, symObjAddr: 0x28, symBinAddr: 0x5C524, symSize: 0x28 }
  - { offset: 0xDDC82, size: 0x8, addend: 0x0, symName: __ZN21unicode_normalization9normalize19decompose_canonical17hf958e07962c7c1f3E, symObjAddr: 0x50, symBinAddr: 0x5C54C, symSize: 0x28 }
  - { offset: 0xDDCC1, size: 0x8, addend: 0x0, symName: __ZN21unicode_normalization9normalize20decompose_compatible17h247c6c418ffedf54E, symObjAddr: 0x78, symBinAddr: 0x5C574, symSize: 0x28 }
  - { offset: 0xDDD1D, size: 0x8, addend: 0x0, symName: __ZN21unicode_normalization9normalize20decompose_compatible17h98d8a0a0b0d08bf0E, symObjAddr: 0xA0, symBinAddr: 0x5C59C, symSize: 0x28 }
  - { offset: 0xDDD79, size: 0x8, addend: 0x0, symName: __ZN21unicode_normalization9normalize20decompose_compatible17hf1f7d9156e24bfefE, symObjAddr: 0xC8, symBinAddr: 0x5C5C4, symSize: 0x28 }
  - { offset: 0xDDDDA, size: 0x8, addend: 0x0, symName: '__ZN21unicode_normalization9normalize20decompose_compatible28_$u7b$$u7b$closure$u7d$$u7d$17h05d7c2edbaf2569aE', symObjAddr: 0xF0, symBinAddr: 0x5C5EC, symSize: 0x38 }
  - { offset: 0xDDE19, size: 0x8, addend: 0x0, symName: '__ZN21unicode_normalization9normalize20decompose_compatible28_$u7b$$u7b$closure$u7d$$u7d$17h822ce2000f24e674E', symObjAddr: 0x128, symBinAddr: 0x5C624, symSize: 0x38 }
  - { offset: 0xDDE58, size: 0x8, addend: 0x0, symName: '__ZN21unicode_normalization9normalize20decompose_compatible28_$u7b$$u7b$closure$u7d$$u7d$17h907968d94971a710E', symObjAddr: 0x160, symBinAddr: 0x5C65C, symSize: 0x38 }
  - { offset: 0xDDE9C, size: 0x8, addend: 0x0, symName: '__ZN21unicode_normalization9normalize20decompose_compatible28_$u7b$$u7b$closure$u7d$$u7d$28_$u7b$$u7b$closure$u7d$$u7d$17h2ef258e210e658f8E', symObjAddr: 0x198, symBinAddr: 0x5C694, symSize: 0x28 }
  - { offset: 0xDDED3, size: 0x8, addend: 0x0, symName: '__ZN21unicode_normalization9normalize20decompose_compatible28_$u7b$$u7b$closure$u7d$$u7d$28_$u7b$$u7b$closure$u7d$$u7d$17h9060381e73329333E', symObjAddr: 0x1C0, symBinAddr: 0x5C6BC, symSize: 0x28 }
  - { offset: 0xDDF0A, size: 0x8, addend: 0x0, symName: '__ZN21unicode_normalization9normalize20decompose_compatible28_$u7b$$u7b$closure$u7d$$u7d$28_$u7b$$u7b$closure$u7d$$u7d$17hfd1b31d33eaf283cE', symObjAddr: 0x1E8, symBinAddr: 0x5C6E4, symSize: 0x28 }
  - { offset: 0xDDFBC, size: 0x8, addend: 0x0, symName: __ZN21unicode_normalization9normalize9decompose17h17bf3b3191678a51E, symObjAddr: 0x210, symBinAddr: 0x5C70C, symSize: 0x378 }
  - { offset: 0xDE138, size: 0x8, addend: 0x0, symName: __ZN21unicode_normalization9normalize9decompose17h2c8616a067e19cc3E, symObjAddr: 0x588, symBinAddr: 0x5CA84, symSize: 0x378 }
  - { offset: 0xDE2B4, size: 0x8, addend: 0x0, symName: __ZN21unicode_normalization9normalize9decompose17h3768bbc317b8d27cE, symObjAddr: 0x900, symBinAddr: 0x5CDFC, symSize: 0x378 }
  - { offset: 0xDE430, size: 0x8, addend: 0x0, symName: __ZN21unicode_normalization9normalize9decompose17h603985c6f1819ae7E, symObjAddr: 0xC78, symBinAddr: 0x5D174, symSize: 0x378 }
  - { offset: 0xDE5AC, size: 0x8, addend: 0x0, symName: __ZN21unicode_normalization9normalize9decompose17h9bc65787358d9ff1E, symObjAddr: 0xFF0, symBinAddr: 0x5D4EC, symSize: 0x378 }
  - { offset: 0xDE728, size: 0x8, addend: 0x0, symName: __ZN21unicode_normalization9normalize9decompose17he1a0c66b60c9ece9E, symObjAddr: 0x1368, symBinAddr: 0x5D864, symSize: 0x378 }
  - { offset: 0xDEF54, size: 0x8, addend: 0x0, symName: '__ZN105_$LT$std..collections..hash..map..Keys$LT$K$C$V$GT$$u20$as$u20$core..iter..traits..iterator..Iterator$GT$4next17hf36359150092c72dE', symObjAddr: 0x0, symBinAddr: 0x5DBDC, symSize: 0x60 }
  - { offset: 0xDFADF, size: 0x8, addend: 0x0, symName: __ZN4core4iter6traits8iterator8Iterator8for_each17h58a7d881c22acb55E, symObjAddr: 0x8D8, symBinAddr: 0x5E4B4, symSize: 0x24 }
  - { offset: 0xDFB37, size: 0x8, addend: 0x0, symName: '__ZN63_$LT$I$u20$as$u20$core..iter..traits..collect..IntoIterator$GT$9into_iter17h1e0ed21228b8bd18E', symObjAddr: 0xDD4, symBinAddr: 0x5E9B0, symSize: 0x30 }
  - { offset: 0xE0089, size: 0x8, addend: 0x0, symName: '__ZN105_$LT$std..collections..hash..map..Keys$LT$K$C$V$GT$$u20$as$u20$core..iter..traits..iterator..Iterator$GT$4next17hf36359150092c72dE', symObjAddr: 0x0, symBinAddr: 0x5DBDC, symSize: 0x60 }
  - { offset: 0xE0134, size: 0x8, addend: 0x0, symName: '__ZN109_$LT$std..collections..hash..map..IntoIter$LT$K$C$V$GT$$u20$as$u20$core..iter..traits..iterator..Iterator$GT$4fold17h08ed8d7eb933f304E', symObjAddr: 0x60, symBinAddr: 0x5DC3C, symSize: 0x4C }
  - { offset: 0xE01CF, size: 0x8, addend: 0x0, symName: '__ZN109_$LT$std..collections..hash..map..IntoIter$LT$K$C$V$GT$$u20$as$u20$core..iter..traits..iterator..Iterator$GT$4next17h16c5645770624874E', symObjAddr: 0xAC, symBinAddr: 0x5DC88, symSize: 0x20 }
  - { offset: 0xE022C, size: 0x8, addend: 0x0, symName: '__ZN109_$LT$std..collections..hash..map..IntoIter$LT$K$C$V$GT$$u20$as$u20$core..iter..traits..iterator..Iterator$GT$9size_hint17h4494c8905436345fE', symObjAddr: 0xCC, symBinAddr: 0x5DCA8, symSize: 0x2C }
  - { offset: 0xE02B3, size: 0x8, addend: 0x0, symName: '__ZN115_$LT$std..collections..hash..map..HashMap$LT$K$C$V$C$S$GT$$u20$as$u20$core..iter..traits..collect..IntoIterator$GT$9into_iter17h7d35d1eb67c79abbE', symObjAddr: 0xF8, symBinAddr: 0x5DCD4, symSize: 0x58 }
  - { offset: 0xE0303, size: 0x8, addend: 0x0, symName: '__ZN130_$LT$std..collections..hash..map..HashMap$LT$K$C$V$C$S$GT$$u20$as$u20$core..iter..traits..collect..Extend$LT$$LP$K$C$V$RP$$GT$$GT$6extend17he83e62b42234412cE', symObjAddr: 0x150, symBinAddr: 0x5DD2C, symSize: 0x24 }
  - { offset: 0xE06A5, size: 0x8, addend: 0x0, symName: '__ZN96_$LT$std..collections..hash..map..HashMap$LT$K$C$V$C$S$GT$$u20$as$u20$core..default..Default$GT$7default17h4a80e773ade320afE', symObjAddr: 0xE2C, symBinAddr: 0x5EA08, symSize: 0x74 }
  - { offset: 0xE1BFE, size: 0x8, addend: 0x0, symName: '__ZN3std11collections4hash3map18Entry$LT$K$C$V$GT$10or_default17hfd1ee010da493ad2E', symObjAddr: 0x174, symBinAddr: 0x5DD50, symSize: 0x1D8 }
  - { offset: 0xE1E37, size: 0x8, addend: 0x0, symName: '__ZN3std11collections4hash3map20HashMap$LT$K$C$V$GT$13with_capacity17hf71db961c3cfe589E', symObjAddr: 0x34C, symBinAddr: 0x5DF28, symSize: 0x6C }
  - { offset: 0xE1F22, size: 0x8, addend: 0x0, symName: '__ZN3std11collections4hash3map20HashMap$LT$K$C$V$GT$3new17h088c31662b125d74E', symObjAddr: 0x3B8, symBinAddr: 0x5DF94, symSize: 0x7C }
  - { offset: 0xE2037, size: 0x8, addend: 0x0, symName: '__ZN3std11collections4hash3map20HashMap$LT$K$C$V$GT$3new17h77e6e915995a6475E', symObjAddr: 0x434, symBinAddr: 0x5E010, symSize: 0x7C }
  - { offset: 0xE214C, size: 0x8, addend: 0x0, symName: '__ZN3std11collections4hash3map20HashMap$LT$K$C$V$GT$3new17hd6bd7d7e4b8a1344E', symObjAddr: 0x4B0, symBinAddr: 0x5E08C, symSize: 0x7C }
  - { offset: 0xE2261, size: 0x8, addend: 0x0, symName: '__ZN3std11collections4hash3map20HashMap$LT$K$C$V$GT$3new17hdca8512a903f907bE', symObjAddr: 0x52C, symBinAddr: 0x5E108, symSize: 0x7C }
  - { offset: 0xE2310, size: 0x8, addend: 0x0, symName: '__ZN3std11collections4hash3map24HashMap$LT$K$C$V$C$S$GT$24with_capacity_and_hasher17h2a87b0402b942a7bE', symObjAddr: 0x5A8, symBinAddr: 0x5E184, symSize: 0x48 }
  - { offset: 0xE2377, size: 0x8, addend: 0x0, symName: '__ZN3std11collections4hash3map24HashMap$LT$K$C$V$C$S$GT$3get17h3c1d9ea810a6d8e0E', symObjAddr: 0x5F0, symBinAddr: 0x5E1CC, symSize: 0x30 }
  - { offset: 0xE23DA, size: 0x8, addend: 0x0, symName: '__ZN3std11collections4hash3map24HashMap$LT$K$C$V$C$S$GT$3get17h43d8ccbc14e667d6E', symObjAddr: 0x620, symBinAddr: 0x5E1FC, symSize: 0x30 }
  - { offset: 0xE243D, size: 0x8, addend: 0x0, symName: '__ZN3std11collections4hash3map24HashMap$LT$K$C$V$C$S$GT$3get17h6a1af16b77e022ebE', symObjAddr: 0x650, symBinAddr: 0x5E22C, symSize: 0x2C }
  - { offset: 0xE24A0, size: 0x8, addend: 0x0, symName: '__ZN3std11collections4hash3map24HashMap$LT$K$C$V$C$S$GT$3get17hbd29a3e4af027811E', symObjAddr: 0x67C, symBinAddr: 0x5E258, symSize: 0x2C }
  - { offset: 0xE2524, size: 0x8, addend: 0x0, symName: '__ZN3std11collections4hash3map24HashMap$LT$K$C$V$C$S$GT$4keys17hfba07360bf53848eE', symObjAddr: 0x6A8, symBinAddr: 0x5E284, symSize: 0x5C }
  - { offset: 0xE25C4, size: 0x8, addend: 0x0, symName: '__ZN3std11collections4hash3map24HashMap$LT$K$C$V$C$S$GT$5clear17hc10203c0c50d7cc7E', symObjAddr: 0x704, symBinAddr: 0x5E2E0, symSize: 0x20 }
  - { offset: 0xE262C, size: 0x8, addend: 0x0, symName: '__ZN3std11collections4hash3map24HashMap$LT$K$C$V$C$S$GT$5entry17h4d2fe411944e9bbfE', symObjAddr: 0x724, symBinAddr: 0x5E300, symSize: 0xB0 }
  - { offset: 0xE26CD, size: 0x8, addend: 0x0, symName: '__ZN3std11collections4hash3map24HashMap$LT$K$C$V$C$S$GT$6insert17h316501e2cfce592fE', symObjAddr: 0x7D4, symBinAddr: 0x5E3B0, symSize: 0x24 }
  - { offset: 0xE2738, size: 0x8, addend: 0x0, symName: '__ZN3std11collections4hash3map24HashMap$LT$K$C$V$C$S$GT$6insert17h42e808239f70ddd0E', symObjAddr: 0x7F8, symBinAddr: 0x5E3D4, symSize: 0x24 }
  - { offset: 0xE27A3, size: 0x8, addend: 0x0, symName: '__ZN3std11collections4hash3map24HashMap$LT$K$C$V$C$S$GT$6insert17h4a67e09bd2272ac6E', symObjAddr: 0x81C, symBinAddr: 0x5E3F8, symSize: 0x28 }
  - { offset: 0xE2800, size: 0x8, addend: 0x0, symName: '__ZN3std11collections4hash3map24HashMap$LT$K$C$V$C$S$GT$6insert17ha03db8c775f3a766E', symObjAddr: 0x844, symBinAddr: 0x5E420, symSize: 0x34 }
  - { offset: 0xE285C, size: 0x8, addend: 0x0, symName: '__ZN3std11collections4hash3map24HashMap$LT$K$C$V$C$S$GT$6remove17h138f6287687b21faE', symObjAddr: 0x878, symBinAddr: 0x5E454, symSize: 0x30 }
  - { offset: 0xE28B2, size: 0x8, addend: 0x0, symName: '__ZN3std11collections4hash3map24HashMap$LT$K$C$V$C$S$GT$6remove17h8826ef14bd2f0968E', symObjAddr: 0x8A8, symBinAddr: 0x5E484, symSize: 0x30 }
  - { offset: 0xE2921, size: 0x8, addend: 0x0, symName: '__ZN4pyo311conversions3std3map114_$LT$impl$u20$pyo3..conversion..FromPyObject$u20$for$u20$std..collections..hash..map..HashMap$LT$K$C$V$C$S$GT$$GT$13extract_bound17hea961198db07aadcE', symObjAddr: 0x8FC, symBinAddr: 0x5E4D8, symSize: 0x4A4 }
  - { offset: 0xE2A57, size: 0x8, addend: 0x0, symName: '__ZN57_$LT$T$u20$as$u20$pyo3..conversion..FromPyObjectBound$GT$20from_py_object_bound17hce01dc64294303eeE', symObjAddr: 0xDA0, symBinAddr: 0x5E97C, symSize: 0x34 }
  - { offset: 0xE2A9F, size: 0x8, addend: 0x0, symName: '__ZN71_$LT$T$u20$as$u20$pyo3..impl_..extract_argument..PyFunctionArgument$GT$7extract17hbce63932da809739E', symObjAddr: 0xE04, symBinAddr: 0x5E9E0, symSize: 0x28 }
  - { offset: 0xE30AD, size: 0x8, addend: 0x0, symName: '__ZN51_$LT$T$u20$as$u20$core..borrow..Borrow$LT$T$GT$$GT$6borrow17h0912012b95d42996E', symObjAddr: 0x0, symBinAddr: 0x5EA7C, symSize: 0x14 }
  - { offset: 0xE30C9, size: 0x8, addend: 0x0, symName: '__ZN51_$LT$T$u20$as$u20$core..borrow..Borrow$LT$T$GT$$GT$6borrow17h0912012b95d42996E', symObjAddr: 0x0, symBinAddr: 0x5EA7C, symSize: 0x14 }
  - { offset: 0xE30FE, size: 0x8, addend: 0x0, symName: '__ZN51_$LT$T$u20$as$u20$core..borrow..Borrow$LT$T$GT$$GT$6borrow17hd5defb67a135b948E', symObjAddr: 0x14, symBinAddr: 0x5EA90, symSize: 0x14 }
  - { offset: 0xE31AA, size: 0x8, addend: 0x0, symName: '__ZN77_$LT$tinyvec..tinyvec..TinyVec$LT$A$GT$$u20$as$u20$core..default..Default$GT$7default17h8ad2e74cbad71023E', symObjAddr: 0x0, symBinAddr: 0x5EAA4, symSize: 0x48 }
  - { offset: 0xE31C6, size: 0x8, addend: 0x0, symName: '__ZN77_$LT$tinyvec..tinyvec..TinyVec$LT$A$GT$$u20$as$u20$core..default..Default$GT$7default17h8ad2e74cbad71023E', symObjAddr: 0x0, symBinAddr: 0x5EAA4, symSize: 0x48 }
  - { offset: 0xE31ED, size: 0x8, addend: 0x0, symName: '__ZN77_$LT$tinyvec..tinyvec..TinyVec$LT$A$GT$$u20$as$u20$core..default..Default$GT$7default17he144ab5eb5ec1b6cE', symObjAddr: 0x48, symBinAddr: 0x5EAEC, symSize: 0x3C }
  - { offset: 0xE333B, size: 0x8, addend: 0x0, symName: '__ZN7tinyvec7tinyvec16TinyVec$LT$A$GT$4push22drain_to_heap_and_push17h3730c5a66e954e9cE', symObjAddr: 0x520, symBinAddr: 0x3114EC, symSize: 0xFC }
  - { offset: 0xE33B5, size: 0x8, addend: 0x0, symName: '__ZN7tinyvec7tinyvec16TinyVec$LT$A$GT$4push22drain_to_heap_and_push17h46f63dd27dc98e4aE', symObjAddr: 0x61C, symBinAddr: 0x3115E8, symSize: 0xF0 }
  - { offset: 0xE3871, size: 0x8, addend: 0x0, symName: '__ZN7tinyvec7tinyvec16TinyVec$LT$A$GT$4push17h833e3067ad796226E', symObjAddr: 0x84, symBinAddr: 0x5EB28, symSize: 0x240 }
  - { offset: 0xE39CB, size: 0x8, addend: 0x0, symName: '__ZN7tinyvec7tinyvec16TinyVec$LT$A$GT$4push17h8ffaf0d25f60e990E', symObjAddr: 0x2C4, symBinAddr: 0x5ED68, symSize: 0x25C }
  - { offset: 0xE3B17, size: 0x8, addend: 0x0, symName: '__ZN92_$LT$unicode_segmentation..tables..grapheme..GraphemeCat$u20$as$u20$core..cmp..PartialEq$GT$2eq17hd2623387091a3b78E', symObjAddr: 0x0, symBinAddr: 0x5EFC4, symSize: 0x34 }
  - { offset: 0xE3BA4, size: 0x8, addend: 0x0, symName: '__ZN92_$LT$unicode_segmentation..tables..grapheme..GraphemeCat$u20$as$u20$core..cmp..PartialEq$GT$2eq17hd2623387091a3b78E', symObjAddr: 0x0, symBinAddr: 0x5EFC4, symSize: 0x34 }
  - { offset: 0xE3C61, size: 0x8, addend: 0x0, symName: '__ZN52_$LT$Q$u20$as$u20$hashbrown..Equivalent$LT$K$GT$$GT$10equivalent17h234c922efc670af8E', symObjAddr: 0x0, symBinAddr: 0x5EFF8, symSize: 0x50 }
  - { offset: 0xE3E5C, size: 0x8, addend: 0x0, symName: '__ZN52_$LT$Q$u20$as$u20$hashbrown..Equivalent$LT$K$GT$$GT$10equivalent17h234c922efc670af8E', symObjAddr: 0x0, symBinAddr: 0x5EFF8, symSize: 0x50 }
  - { offset: 0xE3EBC, size: 0x8, addend: 0x0, symName: '__ZN52_$LT$Q$u20$as$u20$hashbrown..Equivalent$LT$K$GT$$GT$10equivalent17h3292f0415d157bd6E', symObjAddr: 0x50, symBinAddr: 0x5F048, symSize: 0x50 }
  - { offset: 0xE3F1C, size: 0x8, addend: 0x0, symName: '__ZN52_$LT$Q$u20$as$u20$hashbrown..Equivalent$LT$K$GT$$GT$10equivalent17h3e5aa2ed53008a84E', symObjAddr: 0xA0, symBinAddr: 0x5F098, symSize: 0x40 }
  - { offset: 0xE3F7C, size: 0x8, addend: 0x0, symName: '__ZN52_$LT$Q$u20$as$u20$hashbrown..Equivalent$LT$K$GT$$GT$10equivalent17h8c4943ca2d1b20fcE', symObjAddr: 0xE0, symBinAddr: 0x5F0D8, symSize: 0x40 }
  - { offset: 0xE411B, size: 0x8, addend: 0x0, symName: __ZN4core5slice4sort6shared5pivot11median3_rec17h3ec54c69e8c31cd8E, symObjAddr: 0x0, symBinAddr: 0x5F118, symSize: 0x1B8 }
  - { offset: 0xE44FC, size: 0x8, addend: 0x0, symName: __ZN4core5slice4sort6shared5pivot11median3_rec17h3ec54c69e8c31cd8E, symObjAddr: 0x0, symBinAddr: 0x5F118, symSize: 0x1B8 }
  - { offset: 0xE4779, size: 0x8, addend: 0x0, symName: __ZN4core5slice4sort6shared5pivot11median3_rec17h734a9de078aeaefdE, symObjAddr: 0x1B8, symBinAddr: 0x5F2D0, symSize: 0x1E0 }
  - { offset: 0xE49F6, size: 0x8, addend: 0x0, symName: __ZN4core5slice4sort6shared5pivot11median3_rec17hccd6357995394a53E, symObjAddr: 0x398, symBinAddr: 0x5F4B0, symSize: 0x1B8 }
  - { offset: 0xE4C73, size: 0x8, addend: 0x0, symName: __ZN4core5slice4sort6shared5pivot11median3_rec17hce486977ced3bd76E, symObjAddr: 0x550, symBinAddr: 0x5F668, symSize: 0x1B8 }
  - { offset: 0xE4E77, size: 0x8, addend: 0x0, symName: __ZN4core5slice4sort6shared5pivot12choose_pivot17h545e76a9d1d565e4E, symObjAddr: 0x708, symBinAddr: 0x5F820, symSize: 0x238 }
  - { offset: 0xE510B, size: 0x8, addend: 0x0, symName: __ZN4core5slice4sort6shared5pivot12choose_pivot17h57a66ecd07c0cf9aE, symObjAddr: 0x940, symBinAddr: 0x5FA58, symSize: 0x238 }
  - { offset: 0xE539F, size: 0x8, addend: 0x0, symName: __ZN4core5slice4sort6shared5pivot12choose_pivot17hb063f65520d491e2E, symObjAddr: 0xB78, symBinAddr: 0x5FC90, symSize: 0x238 }
  - { offset: 0xE5633, size: 0x8, addend: 0x0, symName: __ZN4core5slice4sort6shared5pivot12choose_pivot17heeb419e3c7af6f23E, symObjAddr: 0xDB0, symBinAddr: 0x5FEC8, symSize: 0x244 }
  - { offset: 0xE5D2D, size: 0x8, addend: 0x0, symName: '__ZN9hashbrown11rustc_entry62_$LT$impl$u20$hashbrown..map..HashMap$LT$K$C$V$C$S$C$A$GT$$GT$11rustc_entry28_$u7b$$u7b$closure$u7d$$u7d$17h97797907a47998f9E', symObjAddr: 0x0, symBinAddr: 0x6010C, symSize: 0x38 }
  - { offset: 0xE5D4E, size: 0x8, addend: 0x0, symName: '__ZN9hashbrown11rustc_entry62_$LT$impl$u20$hashbrown..map..HashMap$LT$K$C$V$C$S$C$A$GT$$GT$11rustc_entry28_$u7b$$u7b$closure$u7d$$u7d$17h97797907a47998f9E', symObjAddr: 0x0, symBinAddr: 0x6010C, symSize: 0x38 }
  - { offset: 0xE6131, size: 0x8, addend: 0x0, symName: __ZN4pyo33gil8GILGuard6python17hc5d686c2d6c6ea36E, symObjAddr: 0x0, symBinAddr: 0x60144, symSize: 0x20 }
  - { offset: 0xE61E1, size: 0x8, addend: 0x0, symName: __ZN4pyo33gil8GILGuard6python17hc5d686c2d6c6ea36E, symObjAddr: 0x0, symBinAddr: 0x60144, symSize: 0x20 }
  - { offset: 0xE6221, size: 0x8, addend: 0x0, symName: '__ZN108_$LT$core..iter..adapters..filter..Filter$LT$I$C$P$GT$$u20$as$u20$core..iter..traits..iterator..Iterator$GT$4fold17h9a537cc5740abcf1E', symObjAddr: 0x0, symBinAddr: 0x60164, symSize: 0x34 }
  - { offset: 0xE631C, size: 0x8, addend: 0x0, symName: '__ZN74_$LT$I$u20$as$u20$unicode_normalization..UnicodeNormalization$LT$I$GT$$GT$3nfc17h1a6ade726d6db3e7E', symObjAddr: 0x350, symBinAddr: 0x604B4, symSize: 0x40 }
  - { offset: 0xE6352, size: 0x8, addend: 0x0, symName: '__ZN74_$LT$I$u20$as$u20$unicode_normalization..UnicodeNormalization$LT$I$GT$$GT$3nfc17hb7442b80c943ba63E', symObjAddr: 0x390, symBinAddr: 0x604F4, symSize: 0x40 }
  - { offset: 0xE64BE, size: 0x8, addend: 0x0, symName: '__ZN108_$LT$core..iter..adapters..filter..Filter$LT$I$C$P$GT$$u20$as$u20$core..iter..traits..iterator..Iterator$GT$4fold17h9a537cc5740abcf1E', symObjAddr: 0x0, symBinAddr: 0x60164, symSize: 0x34 }
  - { offset: 0xE6526, size: 0x8, addend: 0x0, symName: '__ZN108_$LT$core..iter..adapters..filter..Filter$LT$I$C$P$GT$$u20$as$u20$core..iter..traits..iterator..Iterator$GT$4next17h3bbbfa8363c5d4c8E', symObjAddr: 0x34, symBinAddr: 0x60198, symSize: 0x2C }
  - { offset: 0xE6564, size: 0x8, addend: 0x0, symName: '__ZN108_$LT$core..iter..adapters..filter..Filter$LT$I$C$P$GT$$u20$as$u20$core..iter..traits..iterator..Iterator$GT$4next17ha359fdc8f3e2e8f0E', symObjAddr: 0x60, symBinAddr: 0x601C4, symSize: 0x2C }
  - { offset: 0xE65A2, size: 0x8, addend: 0x0, symName: '__ZN108_$LT$core..iter..adapters..filter..Filter$LT$I$C$P$GT$$u20$as$u20$core..iter..traits..iterator..Iterator$GT$4next17hc8fab512c71f8b40E', symObjAddr: 0x8C, symBinAddr: 0x601F0, symSize: 0x2C }
  - { offset: 0xE65E0, size: 0x8, addend: 0x0, symName: '__ZN108_$LT$core..iter..adapters..filter..Filter$LT$I$C$P$GT$$u20$as$u20$core..iter..traits..iterator..Iterator$GT$9size_hint17h11f92348b4a9c7eeE', symObjAddr: 0xB8, symBinAddr: 0x6021C, symSize: 0x4C }
  - { offset: 0xE663B, size: 0x8, addend: 0x0, symName: '__ZN108_$LT$core..iter..adapters..filter..Filter$LT$I$C$P$GT$$u20$as$u20$core..iter..traits..iterator..Iterator$GT$9size_hint17h2322b47a25a33a11E', symObjAddr: 0x104, symBinAddr: 0x60268, symSize: 0x4C }
  - { offset: 0xE6702, size: 0x8, addend: 0x0, symName: '__ZN4core4iter8adapters6filter11filter_fold28_$u7b$$u7b$closure$u7d$$u7d$17h75a5749a898d7550E', symObjAddr: 0x254, symBinAddr: 0x603B8, symSize: 0xB0 }
  - { offset: 0xE6892, size: 0x8, addend: 0x0, symName: __ZN4core4iter6traits8iterator8Iterator4fuse17h57910516d250dca0E, symObjAddr: 0x150, symBinAddr: 0x602B4, symSize: 0x48 }
  - { offset: 0xE68DF, size: 0x8, addend: 0x0, symName: __ZN4core4iter6traits8iterator8Iterator4fuse17h58dce39e8a9a16d9E, symObjAddr: 0x198, symBinAddr: 0x602FC, symSize: 0x48 }
  - { offset: 0xE692C, size: 0x8, addend: 0x0, symName: __ZN4core4iter6traits8iterator8Iterator7collect17h4f3c473343b4180cE, symObjAddr: 0x1E0, symBinAddr: 0x60344, symSize: 0x14 }
  - { offset: 0xE696D, size: 0x8, addend: 0x0, symName: __ZN4core4iter6traits8iterator8Iterator7collect17h5323974497e8c22eE, symObjAddr: 0x1F4, symBinAddr: 0x60358, symSize: 0x2C }
  - { offset: 0xE69AD, size: 0x8, addend: 0x0, symName: __ZN4core4iter6traits8iterator8Iterator8for_each17h5bb3bbbeafa8913eE, symObjAddr: 0x220, symBinAddr: 0x60384, symSize: 0x34 }
  - { offset: 0xE6A23, size: 0x8, addend: 0x0, symName: '__ZN63_$LT$I$u20$as$u20$core..iter..traits..collect..IntoIterator$GT$9into_iter17h1072b950ffc650e8E', symObjAddr: 0x304, symBinAddr: 0x60468, symSize: 0x30 }
  - { offset: 0xE6A5B, size: 0x8, addend: 0x0, symName: '__ZN63_$LT$I$u20$as$u20$core..iter..traits..collect..IntoIterator$GT$9into_iter17hd656b2287e9bba43E', symObjAddr: 0x334, symBinAddr: 0x60498, symSize: 0x1C }
  - { offset: 0xE7737, size: 0x8, addend: 0x0, symName: '__ZN104_$LT$core..iter..adapters..copied..Copied$LT$I$GT$$u20$as$u20$core..iter..traits..iterator..Iterator$GT$4fold17h733ebe8ec2ea1fbbE', symObjAddr: 0x0, symBinAddr: 0x60534, symSize: 0x34 }
  - { offset: 0xE775D, size: 0x8, addend: 0x0, symName: '__ZN104_$LT$core..iter..adapters..copied..Copied$LT$I$GT$$u20$as$u20$core..iter..traits..iterator..Iterator$GT$4fold17h733ebe8ec2ea1fbbE', symObjAddr: 0x0, symBinAddr: 0x60534, symSize: 0x34 }
  - { offset: 0xE77C5, size: 0x8, addend: 0x0, symName: '__ZN104_$LT$core..iter..adapters..copied..Copied$LT$I$GT$$u20$as$u20$core..iter..traits..iterator..Iterator$GT$9size_hint17h28ed7f3697f8c0d9E', symObjAddr: 0x34, symBinAddr: 0x60568, symSize: 0x24 }
  - { offset: 0xE7809, size: 0x8, addend: 0x0, symName: '__ZN4core4iter8adapters6copied9copy_fold28_$u7b$$u7b$closure$u7d$$u7d$17hade88308ebd3128dE', symObjAddr: 0xA0, symBinAddr: 0x605D4, symSize: 0x40 }
  - { offset: 0xE7910, size: 0x8, addend: 0x0, symName: __ZN4core4iter6traits8iterator8Iterator3map17h780099a3b8a8d8f3E, symObjAddr: 0x58, symBinAddr: 0x6058C, symSize: 0x1C }
  - { offset: 0xE7968, size: 0x8, addend: 0x0, symName: __ZN4core4iter6traits8iterator8Iterator7collect17ha95f27b635259e17E, symObjAddr: 0x74, symBinAddr: 0x605A8, symSize: 0x2C }
  - { offset: 0xE79D3, size: 0x8, addend: 0x0, symName: '__ZN63_$LT$I$u20$as$u20$core..iter..traits..collect..IntoIterator$GT$9into_iter17h0a02876896734d6dE', symObjAddr: 0xE0, symBinAddr: 0x60614, symSize: 0x1C }
  - { offset: 0xE7DC0, size: 0x8, addend: 0x0, symName: '__ZN3phf3map16Map$LT$K$C$V$GT$12contains_key17heaa208f602b12c66E', symObjAddr: 0x0, symBinAddr: 0x60630, symSize: 0x3C }
  - { offset: 0xE8011, size: 0x8, addend: 0x0, symName: '__ZN3phf3map16Map$LT$K$C$V$GT$3get28_$u7b$$u7b$closure$u7d$$u7d$17h877f2374f5b0a55aE', symObjAddr: 0xD0, symBinAddr: 0x60700, symSize: 0x20 }
  - { offset: 0xE8062, size: 0x8, addend: 0x0, symName: '__ZN3phf3map16Map$LT$K$C$V$GT$3get28_$u7b$$u7b$closure$u7d$$u7d$17hace50dfe2ac51695E', symObjAddr: 0xF0, symBinAddr: 0x60720, symSize: 0x20 }
  - { offset: 0xE80B3, size: 0x8, addend: 0x0, symName: '__ZN3phf3map16Map$LT$K$C$V$GT$3get28_$u7b$$u7b$closure$u7d$$u7d$17hcf3da270386945ecE', symObjAddr: 0x110, symBinAddr: 0x60740, symSize: 0x20 }
  - { offset: 0xE81EB, size: 0x8, addend: 0x0, symName: '__ZN3phf3map16Map$LT$K$C$V$GT$12contains_key17heaa208f602b12c66E', symObjAddr: 0x0, symBinAddr: 0x60630, symSize: 0x3C }
  - { offset: 0xE8434, size: 0x8, addend: 0x0, symName: '__ZN3phf3map16Map$LT$K$C$V$GT$3get17h938664f4827ee588E', symObjAddr: 0x3C, symBinAddr: 0x6066C, symSize: 0x30 }
  - { offset: 0xE850C, size: 0x8, addend: 0x0, symName: '__ZN3phf3map16Map$LT$K$C$V$GT$3get17hc09f10b387282cdbE', symObjAddr: 0x6C, symBinAddr: 0x6069C, symSize: 0x30 }
  - { offset: 0xE85A9, size: 0x8, addend: 0x0, symName: '__ZN3phf3map16Map$LT$K$C$V$GT$3get17hd4325ebb1d5ab036E', symObjAddr: 0x9C, symBinAddr: 0x606CC, symSize: 0x34 }
  - { offset: 0xE8612, size: 0x8, addend: 0x0, symName: '__ZN3phf3map16Map$LT$K$C$V$GT$9get_entry17h29c4e484ff6e4e57E', symObjAddr: 0x130, symBinAddr: 0x60760, symSize: 0x11C }
  - { offset: 0xE86CF, size: 0x8, addend: 0x0, symName: '__ZN3phf3map16Map$LT$K$C$V$GT$9get_entry17h4a527928414d8cc7E', symObjAddr: 0x24C, symBinAddr: 0x6087C, symSize: 0x114 }
  - { offset: 0xE878C, size: 0x8, addend: 0x0, symName: '__ZN3phf3map16Map$LT$K$C$V$GT$9get_entry17h972fc40c3b29c809E', symObjAddr: 0x360, symBinAddr: 0x60990, symSize: 0x118 }
  - { offset: 0xE88A3, size: 0x8, addend: 0x0, symName: '__ZN77_$LT$alloc..borrow..Cow$LT$str$GT$$u20$as$u20$alloc..string..SpecToString$GT$14spec_to_string17hfc37fc4f82276be7E', symObjAddr: 0x0, symBinAddr: 0x60AA8, symSize: 0xE4 }
  - { offset: 0xE8A23, size: 0x8, addend: 0x0, symName: '__ZN77_$LT$alloc..borrow..Cow$LT$str$GT$$u20$as$u20$alloc..string..SpecToString$GT$14spec_to_string17hfc37fc4f82276be7E', symObjAddr: 0x0, symBinAddr: 0x60AA8, symSize: 0xE4 }
  - { offset: 0xE9260, size: 0x8, addend: 0x0, symName: '__ZN4pyo312pyclass_init27PyClassInitializer$LT$T$GT$19create_class_object17h3226925572b51079E', symObjAddr: 0x0, symBinAddr: 0x60B8C, symSize: 0x98 }
  - { offset: 0xE9F89, size: 0x8, addend: 0x0, symName: '__ZN96_$LT$pyo3..pyclass_init..PyClassInitializer$LT$T$GT$$u20$as$u20$core..convert..From$LT$T$GT$$GT$4from17h46b9ab24ff7c95daE', symObjAddr: 0x1080, symBinAddr: 0x61C0C, symSize: 0x48 }
  - { offset: 0xE9FBF, size: 0x8, addend: 0x0, symName: '__ZN96_$LT$pyo3..pyclass_init..PyClassInitializer$LT$T$GT$$u20$as$u20$core..convert..From$LT$T$GT$$GT$4from17h6268cc826e05617eE', symObjAddr: 0x10C8, symBinAddr: 0x61C54, symSize: 0x48 }
  - { offset: 0xE9FF5, size: 0x8, addend: 0x0, symName: '__ZN96_$LT$pyo3..pyclass_init..PyClassInitializer$LT$T$GT$$u20$as$u20$core..convert..From$LT$T$GT$$GT$4from17hb908fa80c214177dE', symObjAddr: 0x1110, symBinAddr: 0x61C9C, symSize: 0x48 }
  - { offset: 0xEA02B, size: 0x8, addend: 0x0, symName: '__ZN96_$LT$pyo3..pyclass_init..PyClassInitializer$LT$T$GT$$u20$as$u20$core..convert..From$LT$T$GT$$GT$4from17hcb103de92f2e3dadE', symObjAddr: 0x1158, symBinAddr: 0x61CE4, symSize: 0x48 }
  - { offset: 0xECD54, size: 0x8, addend: 0x0, symName: '__ZN4pyo312pyclass_init27PyClassInitializer$LT$T$GT$19create_class_object17h3226925572b51079E', symObjAddr: 0x0, symBinAddr: 0x60B8C, symSize: 0x98 }
  - { offset: 0xECE20, size: 0x8, addend: 0x0, symName: '__ZN4pyo312pyclass_init27PyClassInitializer$LT$T$GT$27create_class_object_of_type17h472ad4b091f69374E', symObjAddr: 0x98, symBinAddr: 0x60C24, symSize: 0x30C }
  - { offset: 0xED52D, size: 0x8, addend: 0x0, symName: '__ZN4pyo312pyclass_init27PyClassInitializer$LT$T$GT$27create_class_object_of_type17h986c566b2feef863E', symObjAddr: 0x3A4, symBinAddr: 0x60F30, symSize: 0x310 }
  - { offset: 0xED75D, size: 0x8, addend: 0x0, symName: '__ZN4pyo312pyclass_init27PyClassInitializer$LT$T$GT$27create_class_object_of_type17ha7000df5eb8762deE', symObjAddr: 0x6B4, symBinAddr: 0x61240, symSize: 0x310 }
  - { offset: 0xED976, size: 0x8, addend: 0x0, symName: '__ZN4pyo312pyclass_init27PyClassInitializer$LT$T$GT$27create_class_object_of_type17hf54e2669ac5586baE', symObjAddr: 0x9C4, symBinAddr: 0x61550, symSize: 0x30C }
  - { offset: 0xEDB60, size: 0x8, addend: 0x0, symName: '__ZN4pyo312pyclass_init27PyClassInitializer$LT$T$GT$3new17h2f96342a5ae9873eE', symObjAddr: 0xCD0, symBinAddr: 0x6185C, symSize: 0xE0 }
  - { offset: 0xEDB9B, size: 0x8, addend: 0x0, symName: '__ZN4pyo312pyclass_init27PyClassInitializer$LT$T$GT$3new17h65da3c6edfea97caE', symObjAddr: 0xDB0, symBinAddr: 0x6193C, symSize: 0xF8 }
  - { offset: 0xEDBD6, size: 0x8, addend: 0x0, symName: '__ZN4pyo312pyclass_init27PyClassInitializer$LT$T$GT$3new17ha5c7e6486ca41677E', symObjAddr: 0xEA8, symBinAddr: 0x61A34, symSize: 0xE0 }
  - { offset: 0xEDC11, size: 0x8, addend: 0x0, symName: '__ZN4pyo312pyclass_init27PyClassInitializer$LT$T$GT$3new17haa52fb698317fa88E', symObjAddr: 0xF88, symBinAddr: 0x61B14, symSize: 0xF8 }
  - { offset: 0xEDC6A, size: 0x8, addend: 0x0, symName: __ZN4core4char18from_u32_unchecked17hef6fe0f1ac0a52e7E, symObjAddr: 0x0, symBinAddr: 0x61D2C, symSize: 0x3C }
  - { offset: 0xEDCA3, size: 0x8, addend: 0x0, symName: __ZN4core4char18from_u32_unchecked17hef6fe0f1ac0a52e7E, symObjAddr: 0x0, symBinAddr: 0x61D2C, symSize: 0x3C }
  - { offset: 0xEDD1A, size: 0x8, addend: 0x0, symName: '__ZN111_$LT$alloc..vec..Vec$LT$T$GT$$u20$as$u20$alloc..vec..spec_from_iter_nested..SpecFromIterNested$LT$T$C$I$GT$$GT$9from_iter17h045435e1b8fdd82cE', symObjAddr: 0x0, symBinAddr: 0x61D68, symSize: 0x210 }
  - { offset: 0xF1E97, size: 0x8, addend: 0x0, symName: '__ZN111_$LT$alloc..vec..Vec$LT$T$GT$$u20$as$u20$alloc..vec..spec_from_iter_nested..SpecFromIterNested$LT$T$C$I$GT$$GT$9from_iter17h045435e1b8fdd82cE', symObjAddr: 0x0, symBinAddr: 0x61D68, symSize: 0x210 }
  - { offset: 0xF20F5, size: 0x8, addend: 0x0, symName: '__ZN111_$LT$alloc..vec..Vec$LT$T$GT$$u20$as$u20$alloc..vec..spec_from_iter_nested..SpecFromIterNested$LT$T$C$I$GT$$GT$9from_iter17h61b8f87f4460692aE', symObjAddr: 0x6DC, symBinAddr: 0x62444, symSize: 0x244 }
  - { offset: 0xF2353, size: 0x8, addend: 0x0, symName: '__ZN111_$LT$alloc..vec..Vec$LT$T$GT$$u20$as$u20$alloc..vec..spec_from_iter_nested..SpecFromIterNested$LT$T$C$I$GT$$GT$9from_iter17h9b40e8095d61d0deE', symObjAddr: 0xA50, symBinAddr: 0x627B8, symSize: 0x24C }
  - { offset: 0xF25B8, size: 0x8, addend: 0x0, symName: '__ZN111_$LT$alloc..vec..Vec$LT$T$GT$$u20$as$u20$alloc..vec..spec_from_iter_nested..SpecFromIterNested$LT$T$C$I$GT$$GT$9from_iter17h28eae409e291fc0dE', symObjAddr: 0x210, symBinAddr: 0x61F78, symSize: 0x130 }
  - { offset: 0xF2679, size: 0x8, addend: 0x0, symName: '__ZN111_$LT$alloc..vec..Vec$LT$T$GT$$u20$as$u20$alloc..vec..spec_from_iter_nested..SpecFromIterNested$LT$T$C$I$GT$$GT$9from_iter17h2c4ef424e65a4c7bE', symObjAddr: 0x340, symBinAddr: 0x620A8, symSize: 0x130 }
  - { offset: 0xF273A, size: 0x8, addend: 0x0, symName: '__ZN111_$LT$alloc..vec..Vec$LT$T$GT$$u20$as$u20$alloc..vec..spec_from_iter_nested..SpecFromIterNested$LT$T$C$I$GT$$GT$9from_iter17h401ae3e46df6ab86E', symObjAddr: 0x470, symBinAddr: 0x621D8, symSize: 0x13C }
  - { offset: 0xF27FC, size: 0x8, addend: 0x0, symName: '__ZN111_$LT$alloc..vec..Vec$LT$T$GT$$u20$as$u20$alloc..vec..spec_from_iter_nested..SpecFromIterNested$LT$T$C$I$GT$$GT$9from_iter17h4cb985c4b3865ee1E', symObjAddr: 0x5AC, symBinAddr: 0x62314, symSize: 0x130 }
  - { offset: 0xF28BD, size: 0x8, addend: 0x0, symName: '__ZN111_$LT$alloc..vec..Vec$LT$T$GT$$u20$as$u20$alloc..vec..spec_from_iter_nested..SpecFromIterNested$LT$T$C$I$GT$$GT$9from_iter17h7c1cb3f020430931E', symObjAddr: 0x920, symBinAddr: 0x62688, symSize: 0x130 }
  - { offset: 0xF297E, size: 0x8, addend: 0x0, symName: '__ZN111_$LT$alloc..vec..Vec$LT$T$GT$$u20$as$u20$alloc..vec..spec_from_iter_nested..SpecFromIterNested$LT$T$C$I$GT$$GT$9from_iter17h9b9484ede2b8f6beE', symObjAddr: 0xC9C, symBinAddr: 0x62A04, symSize: 0x130 }
  - { offset: 0xF2A40, size: 0x8, addend: 0x0, symName: '__ZN111_$LT$alloc..vec..Vec$LT$T$GT$$u20$as$u20$alloc..vec..spec_from_iter_nested..SpecFromIterNested$LT$T$C$I$GT$$GT$9from_iter17hb3ba24c9161ed261E', symObjAddr: 0xDCC, symBinAddr: 0x62B34, symSize: 0x140 }
  - { offset: 0xF2B02, size: 0x8, addend: 0x0, symName: '__ZN111_$LT$alloc..vec..Vec$LT$T$GT$$u20$as$u20$alloc..vec..spec_from_iter_nested..SpecFromIterNested$LT$T$C$I$GT$$GT$9from_iter17hbaeb5f24229b4a1aE', symObjAddr: 0xF0C, symBinAddr: 0x62C74, symSize: 0x12C }
  - { offset: 0xF2BC3, size: 0x8, addend: 0x0, symName: '__ZN111_$LT$alloc..vec..Vec$LT$T$GT$$u20$as$u20$alloc..vec..spec_from_iter_nested..SpecFromIterNested$LT$T$C$I$GT$$GT$9from_iter17hcb81ec729e0ffb17E', symObjAddr: 0x1038, symBinAddr: 0x62DA0, symSize: 0x130 }
  - { offset: 0xF2C84, size: 0x8, addend: 0x0, symName: '__ZN111_$LT$alloc..vec..Vec$LT$T$GT$$u20$as$u20$alloc..vec..spec_from_iter_nested..SpecFromIterNested$LT$T$C$I$GT$$GT$9from_iter17hd207b4e9611a98d0E', symObjAddr: 0x1168, symBinAddr: 0x62ED0, symSize: 0x130 }
  - { offset: 0xF2D45, size: 0x8, addend: 0x0, symName: '__ZN111_$LT$alloc..vec..Vec$LT$T$GT$$u20$as$u20$alloc..vec..spec_from_iter_nested..SpecFromIterNested$LT$T$C$I$GT$$GT$9from_iter17hdca0731fad4ae694E', symObjAddr: 0x1298, symBinAddr: 0x63000, symSize: 0x134 }
  - { offset: 0xF2E07, size: 0x8, addend: 0x0, symName: '__ZN111_$LT$alloc..vec..Vec$LT$T$GT$$u20$as$u20$alloc..vec..spec_from_iter_nested..SpecFromIterNested$LT$T$C$I$GT$$GT$9from_iter17hec5d50322b39f01eE', symObjAddr: 0x13CC, symBinAddr: 0x63134, symSize: 0x130 }
  - { offset: 0xF41E6, size: 0x8, addend: 0x0, symName: '__ZN5alloc3vec16Vec$LT$T$C$A$GT$14extend_trusted28_$u7b$$u7b$closure$u7d$$u7d$17h00113a4d7977024bE', symObjAddr: 0x2B50, symBinAddr: 0x648B8, symSize: 0x44 }
  - { offset: 0xF4293, size: 0x8, addend: 0x0, symName: '__ZN5alloc3vec16Vec$LT$T$C$A$GT$14extend_trusted28_$u7b$$u7b$closure$u7d$$u7d$17h0598907e998901d4E', symObjAddr: 0x2B94, symBinAddr: 0x648FC, symSize: 0x44 }
  - { offset: 0xF4340, size: 0x8, addend: 0x0, symName: '__ZN5alloc3vec16Vec$LT$T$C$A$GT$14extend_trusted28_$u7b$$u7b$closure$u7d$$u7d$17h14b3aa7922760b56E', symObjAddr: 0x2BD8, symBinAddr: 0x64940, symSize: 0x44 }
  - { offset: 0xF43ED, size: 0x8, addend: 0x0, symName: '__ZN5alloc3vec16Vec$LT$T$C$A$GT$14extend_trusted28_$u7b$$u7b$closure$u7d$$u7d$17h5af1c14bc3811ee6E', symObjAddr: 0x2C1C, symBinAddr: 0x64984, symSize: 0x44 }
  - { offset: 0xF449A, size: 0x8, addend: 0x0, symName: '__ZN5alloc3vec16Vec$LT$T$C$A$GT$14extend_trusted28_$u7b$$u7b$closure$u7d$$u7d$17h5de628f85e223cdcE', symObjAddr: 0x2C60, symBinAddr: 0x649C8, symSize: 0x44 }
  - { offset: 0xF4547, size: 0x8, addend: 0x0, symName: '__ZN5alloc3vec16Vec$LT$T$C$A$GT$14extend_trusted28_$u7b$$u7b$closure$u7d$$u7d$17h743912c4e283a0ccE', symObjAddr: 0x2CA4, symBinAddr: 0x64A0C, symSize: 0x30 }
  - { offset: 0xF45EF, size: 0x8, addend: 0x0, symName: '__ZN5alloc3vec16Vec$LT$T$C$A$GT$14extend_trusted28_$u7b$$u7b$closure$u7d$$u7d$17h782370c7927c7390E', symObjAddr: 0x2CD4, symBinAddr: 0x64A3C, symSize: 0x44 }
  - { offset: 0xF469C, size: 0x8, addend: 0x0, symName: '__ZN5alloc3vec16Vec$LT$T$C$A$GT$14extend_trusted28_$u7b$$u7b$closure$u7d$$u7d$17h8cda0cd99537a9edE', symObjAddr: 0x2D18, symBinAddr: 0x64A80, symSize: 0x30 }
  - { offset: 0xF4744, size: 0x8, addend: 0x0, symName: '__ZN5alloc3vec16Vec$LT$T$C$A$GT$14extend_trusted28_$u7b$$u7b$closure$u7d$$u7d$17h94aa835fd3883442E', symObjAddr: 0x2D48, symBinAddr: 0x64AB0, symSize: 0x30 }
  - { offset: 0xF47EC, size: 0x8, addend: 0x0, symName: '__ZN5alloc3vec16Vec$LT$T$C$A$GT$14extend_trusted28_$u7b$$u7b$closure$u7d$$u7d$17h98fc7602de7ce421E', symObjAddr: 0x2D78, symBinAddr: 0x64AE0, symSize: 0x44 }
  - { offset: 0xF4899, size: 0x8, addend: 0x0, symName: '__ZN5alloc3vec16Vec$LT$T$C$A$GT$14extend_trusted28_$u7b$$u7b$closure$u7d$$u7d$17h9fd189266910f7c5E', symObjAddr: 0x2DBC, symBinAddr: 0x64B24, symSize: 0x40 }
  - { offset: 0xF4956, size: 0x8, addend: 0x0, symName: '__ZN5alloc3vec16Vec$LT$T$C$A$GT$14extend_trusted28_$u7b$$u7b$closure$u7d$$u7d$17ha97d703a8998af86E', symObjAddr: 0x2DFC, symBinAddr: 0x64B64, symSize: 0x3C }
  - { offset: 0xF4A13, size: 0x8, addend: 0x0, symName: '__ZN5alloc3vec16Vec$LT$T$C$A$GT$14extend_trusted28_$u7b$$u7b$closure$u7d$$u7d$17habfff63843c6f793E', symObjAddr: 0x2E38, symBinAddr: 0x64BA0, symSize: 0x44 }
  - { offset: 0xF4AC0, size: 0x8, addend: 0x0, symName: '__ZN5alloc3vec16Vec$LT$T$C$A$GT$14extend_trusted28_$u7b$$u7b$closure$u7d$$u7d$17hae40097a0a785d8fE', symObjAddr: 0x2E7C, symBinAddr: 0x64BE4, symSize: 0x44 }
  - { offset: 0xF4B79, size: 0x8, addend: 0x0, symName: '__ZN5alloc3vec16in_place_collect108_$LT$impl$u20$alloc..vec..spec_from_iter..SpecFromIter$LT$T$C$I$GT$$u20$for$u20$alloc..vec..Vec$LT$T$GT$$GT$9from_iter17h8a2916d0ee8187cdE', symObjAddr: 0x3E20, symBinAddr: 0x65B88, symSize: 0x28 }
  - { offset: 0xF4C0C, size: 0x8, addend: 0x0, symName: '__ZN72_$LT$alloc..vec..Vec$LT$T$C$A$GT$$u20$as$u20$core..ops..deref..Deref$GT$5deref17h43fbe4aee822e775E', symObjAddr: 0x4138, symBinAddr: 0x65EA0, symSize: 0x24 }
  - { offset: 0xF4C4C, size: 0x8, addend: 0x0, symName: '__ZN72_$LT$alloc..vec..Vec$LT$T$C$A$GT$$u20$as$u20$core..ops..deref..Deref$GT$5deref17hba86c67155a398cdE', symObjAddr: 0x415C, symBinAddr: 0x65EC4, symSize: 0x24 }
  - { offset: 0xF4C8C, size: 0x8, addend: 0x0, symName: '__ZN72_$LT$alloc..vec..Vec$LT$T$C$A$GT$$u20$as$u20$core..ops..deref..Deref$GT$5deref17hd67d23ea062ff419E', symObjAddr: 0x4180, symBinAddr: 0x65EE8, symSize: 0x24 }
  - { offset: 0xF4DC2, size: 0x8, addend: 0x0, symName: '__ZN67_$LT$alloc..vec..Vec$LT$T$C$A$GT$$u20$as$u20$core..clone..Clone$GT$5clone17h167b7f6c0bfb5fceE', symObjAddr: 0x405C, symBinAddr: 0x65DC4, symSize: 0x8C }
  - { offset: 0xF4F99, size: 0x8, addend: 0x0, symName: '__ZN75_$LT$alloc..vec..Vec$LT$T$C$A$GT$$u20$as$u20$core..ops..deref..DerefMut$GT$9deref_mut17h7688ea7fbe04ca60E', symObjAddr: 0x41A4, symBinAddr: 0x65F0C, symSize: 0x24 }
  - { offset: 0xF4FD9, size: 0x8, addend: 0x0, symName: '__ZN75_$LT$alloc..vec..Vec$LT$T$C$A$GT$$u20$as$u20$core..ops..deref..DerefMut$GT$9deref_mut17hc0961b420b855620E', symObjAddr: 0x41C8, symBinAddr: 0x65F30, symSize: 0x24 }
  - { offset: 0xF501F, size: 0x8, addend: 0x0, symName: '__ZN81_$LT$alloc..vec..Vec$LT$T$C$A$GT$$u20$as$u20$core..ops..index..Index$LT$I$GT$$GT$5index17h5010b5bf1e24fd59E', symObjAddr: 0x41EC, symBinAddr: 0x65F54, symSize: 0x88 }
  - { offset: 0xF51A1, size: 0x8, addend: 0x0, symName: '__ZN81_$LT$alloc..vec..Vec$LT$T$C$A$GT$$u20$as$u20$core..ops..index..Index$LT$I$GT$$GT$5index17hd33f4d57c92ca3e0E', symObjAddr: 0x4274, symBinAddr: 0x65FDC, symSize: 0x88 }
  - { offset: 0xF5329, size: 0x8, addend: 0x0, symName: '__ZN90_$LT$alloc..vec..Vec$LT$T$C$A$GT$$u20$as$u20$core..iter..traits..collect..IntoIterator$GT$9into_iter17h8de98eaf948193aeE', symObjAddr: 0x42FC, symBinAddr: 0x66064, symSize: 0x98 }
  - { offset: 0xF550C, size: 0x8, addend: 0x0, symName: '__ZN90_$LT$alloc..vec..Vec$LT$T$C$A$GT$$u20$as$u20$core..iter..traits..collect..IntoIterator$GT$9into_iter17hdeb8b8fca9f09eccE', symObjAddr: 0x4394, symBinAddr: 0x660FC, symSize: 0xA0 }
  - { offset: 0xF56F5, size: 0x8, addend: 0x0, symName: '__ZN93_$LT$alloc..vec..Vec$LT$T$C$A$GT$$u20$as$u20$core..iter..traits..collect..Extend$LT$T$GT$$GT$6extend17h0db7a39efdd4e152E', symObjAddr: 0x4434, symBinAddr: 0x6619C, symSize: 0x58 }
  - { offset: 0xF5749, size: 0x8, addend: 0x0, symName: '__ZN93_$LT$alloc..vec..Vec$LT$T$C$A$GT$$u20$as$u20$core..iter..traits..collect..Extend$LT$T$GT$$GT$6extend17h379bb4e9b91bc137E', symObjAddr: 0x448C, symBinAddr: 0x661F4, symSize: 0x58 }
  - { offset: 0xF57A3, size: 0x8, addend: 0x0, symName: '__ZN94_$LT$$RF$alloc..vec..Vec$LT$T$C$A$GT$$u20$as$u20$core..iter..traits..collect..IntoIterator$GT$9into_iter17h1e10f09b887361daE', symObjAddr: 0x44E4, symBinAddr: 0x6624C, symSize: 0xAC }
  - { offset: 0xF59ED, size: 0x8, addend: 0x0, symName: '__ZN94_$LT$$RF$alloc..vec..Vec$LT$T$C$A$GT$$u20$as$u20$core..iter..traits..collect..IntoIterator$GT$9into_iter17h78365c4712efff89E', symObjAddr: 0x4590, symBinAddr: 0x662F8, symSize: 0xA0 }
  - { offset: 0xF5C37, size: 0x8, addend: 0x0, symName: '__ZN94_$LT$$RF$alloc..vec..Vec$LT$T$C$A$GT$$u20$as$u20$core..iter..traits..collect..IntoIterator$GT$9into_iter17h9dc45048a22671c9E', symObjAddr: 0x4630, symBinAddr: 0x66398, symSize: 0xA4 }
  - { offset: 0xF5E87, size: 0x8, addend: 0x0, symName: '__ZN95_$LT$alloc..vec..Vec$LT$T$GT$$u20$as$u20$core..iter..traits..collect..FromIterator$LT$T$GT$$GT$9from_iter17h04dfaf223921f394E', symObjAddr: 0x46D4, symBinAddr: 0x6643C, symSize: 0x38 }
  - { offset: 0xF5EC7, size: 0x8, addend: 0x0, symName: '__ZN95_$LT$alloc..vec..Vec$LT$T$GT$$u20$as$u20$core..iter..traits..collect..FromIterator$LT$T$GT$$GT$9from_iter17h07ef915440f270d0E', symObjAddr: 0x470C, symBinAddr: 0x66474, symSize: 0x38 }
  - { offset: 0xF5F07, size: 0x8, addend: 0x0, symName: '__ZN95_$LT$alloc..vec..Vec$LT$T$GT$$u20$as$u20$core..iter..traits..collect..FromIterator$LT$T$GT$$GT$9from_iter17h08a55fdab6d25fd1E', symObjAddr: 0x4744, symBinAddr: 0x664AC, symSize: 0x34 }
  - { offset: 0xF5F48, size: 0x8, addend: 0x0, symName: '__ZN95_$LT$alloc..vec..Vec$LT$T$GT$$u20$as$u20$core..iter..traits..collect..FromIterator$LT$T$GT$$GT$9from_iter17h149955ca49d1926aE', symObjAddr: 0x4778, symBinAddr: 0x664E0, symSize: 0x34 }
  - { offset: 0xF5F89, size: 0x8, addend: 0x0, symName: '__ZN95_$LT$alloc..vec..Vec$LT$T$GT$$u20$as$u20$core..iter..traits..collect..FromIterator$LT$T$GT$$GT$9from_iter17h1a0f7d9876d1e6caE', symObjAddr: 0x47AC, symBinAddr: 0x66514, symSize: 0x38 }
  - { offset: 0xF5FC9, size: 0x8, addend: 0x0, symName: '__ZN95_$LT$alloc..vec..Vec$LT$T$GT$$u20$as$u20$core..iter..traits..collect..FromIterator$LT$T$GT$$GT$9from_iter17h3f8565048f67437dE', symObjAddr: 0x47E4, symBinAddr: 0x6654C, symSize: 0x38 }
  - { offset: 0xF6009, size: 0x8, addend: 0x0, symName: '__ZN95_$LT$alloc..vec..Vec$LT$T$GT$$u20$as$u20$core..iter..traits..collect..FromIterator$LT$T$GT$$GT$9from_iter17h440c2bb73ce392f5E', symObjAddr: 0x481C, symBinAddr: 0x66584, symSize: 0x34 }
  - { offset: 0xF604A, size: 0x8, addend: 0x0, symName: '__ZN95_$LT$alloc..vec..Vec$LT$T$GT$$u20$as$u20$core..iter..traits..collect..FromIterator$LT$T$GT$$GT$9from_iter17h48200d10630031f3E', symObjAddr: 0x4850, symBinAddr: 0x665B8, symSize: 0x38 }
  - { offset: 0xF608A, size: 0x8, addend: 0x0, symName: '__ZN95_$LT$alloc..vec..Vec$LT$T$GT$$u20$as$u20$core..iter..traits..collect..FromIterator$LT$T$GT$$GT$9from_iter17h55c5797ca13b38e7E', symObjAddr: 0x4888, symBinAddr: 0x665F0, symSize: 0x34 }
  - { offset: 0xF60CB, size: 0x8, addend: 0x0, symName: '__ZN95_$LT$alloc..vec..Vec$LT$T$GT$$u20$as$u20$core..iter..traits..collect..FromIterator$LT$T$GT$$GT$9from_iter17h625df7808419e447E', symObjAddr: 0x48BC, symBinAddr: 0x66624, symSize: 0x38 }
  - { offset: 0xF610B, size: 0x8, addend: 0x0, symName: '__ZN95_$LT$alloc..vec..Vec$LT$T$GT$$u20$as$u20$core..iter..traits..collect..FromIterator$LT$T$GT$$GT$9from_iter17h6313aa717ac5b7c5E', symObjAddr: 0x48F4, symBinAddr: 0x6665C, symSize: 0x38 }
  - { offset: 0xF614B, size: 0x8, addend: 0x0, symName: '__ZN95_$LT$alloc..vec..Vec$LT$T$GT$$u20$as$u20$core..iter..traits..collect..FromIterator$LT$T$GT$$GT$9from_iter17h93a20834a0dffac7E', symObjAddr: 0x492C, symBinAddr: 0x66694, symSize: 0x38 }
  - { offset: 0xF618B, size: 0x8, addend: 0x0, symName: '__ZN95_$LT$alloc..vec..Vec$LT$T$GT$$u20$as$u20$core..iter..traits..collect..FromIterator$LT$T$GT$$GT$9from_iter17haf58ffa1f77f63faE', symObjAddr: 0x4964, symBinAddr: 0x666CC, symSize: 0x34 }
  - { offset: 0xF61CC, size: 0x8, addend: 0x0, symName: '__ZN95_$LT$alloc..vec..Vec$LT$T$GT$$u20$as$u20$core..iter..traits..collect..FromIterator$LT$T$GT$$GT$9from_iter17hc637de8cac5f3f28E', symObjAddr: 0x4998, symBinAddr: 0x66700, symSize: 0x38 }
  - { offset: 0xF6217, size: 0x8, addend: 0x0, symName: '__ZN97_$LT$alloc..vec..Vec$LT$T$C$A$GT$$u20$as$u20$alloc..vec..spec_extend..SpecExtend$LT$T$C$I$GT$$GT$11spec_extend17h2046fa6d7b933908E', symObjAddr: 0x49D0, symBinAddr: 0x66738, symSize: 0x24 }
  - { offset: 0xF6269, size: 0x8, addend: 0x0, symName: '__ZN97_$LT$alloc..vec..Vec$LT$T$C$A$GT$$u20$as$u20$alloc..vec..spec_extend..SpecExtend$LT$T$C$I$GT$$GT$11spec_extend17h25fbb931a776b00cE', symObjAddr: 0x49F4, symBinAddr: 0x6675C, symSize: 0x24 }
  - { offset: 0xF62BB, size: 0x8, addend: 0x0, symName: '__ZN97_$LT$alloc..vec..Vec$LT$T$C$A$GT$$u20$as$u20$alloc..vec..spec_extend..SpecExtend$LT$T$C$I$GT$$GT$11spec_extend17h26152c0870078434E', symObjAddr: 0x4A18, symBinAddr: 0x66780, symSize: 0x34 }
  - { offset: 0xF630C, size: 0x8, addend: 0x0, symName: '__ZN97_$LT$alloc..vec..Vec$LT$T$C$A$GT$$u20$as$u20$alloc..vec..spec_extend..SpecExtend$LT$T$C$I$GT$$GT$11spec_extend17h55f06f577c12dc46E', symObjAddr: 0x4A4C, symBinAddr: 0x667B4, symSize: 0x34 }
  - { offset: 0xF635D, size: 0x8, addend: 0x0, symName: '__ZN97_$LT$alloc..vec..Vec$LT$T$C$A$GT$$u20$as$u20$alloc..vec..spec_extend..SpecExtend$LT$T$C$I$GT$$GT$11spec_extend17h7fb2a535dae6d7d0E', symObjAddr: 0x4A80, symBinAddr: 0x667E8, symSize: 0x34 }
  - { offset: 0xF63AE, size: 0x8, addend: 0x0, symName: '__ZN97_$LT$alloc..vec..Vec$LT$T$C$A$GT$$u20$as$u20$alloc..vec..spec_extend..SpecExtend$LT$T$C$I$GT$$GT$11spec_extend17h90d2ff7a7d28fec3E', symObjAddr: 0x4AE8, symBinAddr: 0x66850, symSize: 0x34 }
  - { offset: 0xF63FF, size: 0x8, addend: 0x0, symName: '__ZN97_$LT$alloc..vec..Vec$LT$T$C$A$GT$$u20$as$u20$alloc..vec..spec_extend..SpecExtend$LT$T$C$I$GT$$GT$11spec_extend17hb039bb5e8bf8abd1E', symObjAddr: 0x4B40, symBinAddr: 0x668A8, symSize: 0x34 }
  - { offset: 0xF6450, size: 0x8, addend: 0x0, symName: '__ZN97_$LT$alloc..vec..Vec$LT$T$C$A$GT$$u20$as$u20$alloc..vec..spec_extend..SpecExtend$LT$T$C$I$GT$$GT$11spec_extend17hc1a4d684cf085c5aE', symObjAddr: 0x4B98, symBinAddr: 0x66900, symSize: 0x24 }
  - { offset: 0xF64A2, size: 0x8, addend: 0x0, symName: '__ZN97_$LT$alloc..vec..Vec$LT$T$C$A$GT$$u20$as$u20$alloc..vec..spec_extend..SpecExtend$LT$T$C$I$GT$$GT$11spec_extend17hcde3c6111b779a9eE', symObjAddr: 0x4BBC, symBinAddr: 0x66924, symSize: 0x24 }
  - { offset: 0xF64F4, size: 0x8, addend: 0x0, symName: '__ZN97_$LT$alloc..vec..Vec$LT$T$C$A$GT$$u20$as$u20$alloc..vec..spec_extend..SpecExtend$LT$T$C$I$GT$$GT$11spec_extend17hce6dbfc74a981af7E', symObjAddr: 0x4BE0, symBinAddr: 0x66948, symSize: 0x34 }
  - { offset: 0xF6545, size: 0x8, addend: 0x0, symName: '__ZN97_$LT$alloc..vec..Vec$LT$T$C$A$GT$$u20$as$u20$alloc..vec..spec_extend..SpecExtend$LT$T$C$I$GT$$GT$11spec_extend17he7f9b9d35e2b40b8E', symObjAddr: 0x4C14, symBinAddr: 0x6697C, symSize: 0x34 }
  - { offset: 0xF6596, size: 0x8, addend: 0x0, symName: '__ZN97_$LT$alloc..vec..Vec$LT$T$C$A$GT$$u20$as$u20$alloc..vec..spec_extend..SpecExtend$LT$T$C$I$GT$$GT$11spec_extend17hefd10fcacffa9954E', symObjAddr: 0x4C48, symBinAddr: 0x669B0, symSize: 0x34 }
  - { offset: 0xF65E7, size: 0x8, addend: 0x0, symName: '__ZN97_$LT$alloc..vec..Vec$LT$T$C$A$GT$$u20$as$u20$alloc..vec..spec_extend..SpecExtend$LT$T$C$I$GT$$GT$11spec_extend17hf512c50f664d0a7dE', symObjAddr: 0x4C7C, symBinAddr: 0x669E4, symSize: 0x34 }
  - { offset: 0xF6638, size: 0x8, addend: 0x0, symName: '__ZN97_$LT$alloc..vec..Vec$LT$T$C$A$GT$$u20$as$u20$alloc..vec..spec_extend..SpecExtend$LT$T$C$I$GT$$GT$11spec_extend17hfae56571d32c2d86E', symObjAddr: 0x4CB0, symBinAddr: 0x66A18, symSize: 0x34 }
  - { offset: 0xF668F, size: 0x8, addend: 0x0, symName: '__ZN97_$LT$alloc..vec..Vec$LT$T$C$A$GT$$u20$as$u20$alloc..vec..spec_extend..SpecExtend$LT$T$C$I$GT$$GT$11spec_extend17h859b28184fd386a7E', symObjAddr: 0x4AB4, symBinAddr: 0x6681C, symSize: 0x34 }
  - { offset: 0xF66E0, size: 0x8, addend: 0x0, symName: '__ZN97_$LT$alloc..vec..Vec$LT$T$C$A$GT$$u20$as$u20$alloc..vec..spec_extend..SpecExtend$LT$T$C$I$GT$$GT$11spec_extend17h98c00d34de46cef5E', symObjAddr: 0x4B1C, symBinAddr: 0x66884, symSize: 0x24 }
  - { offset: 0xF6732, size: 0x8, addend: 0x0, symName: '__ZN97_$LT$alloc..vec..Vec$LT$T$C$A$GT$$u20$as$u20$alloc..vec..spec_extend..SpecExtend$LT$T$C$I$GT$$GT$11spec_extend17hbfd2c12987170a3dE', symObjAddr: 0x4B74, symBinAddr: 0x668DC, symSize: 0x24 }
  - { offset: 0xF6790, size: 0x8, addend: 0x0, symName: '__ZN98_$LT$alloc..vec..Vec$LT$T$GT$$u20$as$u20$alloc..vec..spec_from_iter..SpecFromIter$LT$T$C$I$GT$$GT$9from_iter17h34dc3e89f20c443bE', symObjAddr: 0x4CE4, symBinAddr: 0x66A4C, symSize: 0x2C }
  - { offset: 0xF67CE, size: 0x8, addend: 0x0, symName: '__ZN98_$LT$alloc..vec..Vec$LT$T$GT$$u20$as$u20$alloc..vec..spec_from_iter..SpecFromIter$LT$T$C$I$GT$$GT$9from_iter17h3a2a3d01def2705aE', symObjAddr: 0x4D10, symBinAddr: 0x66A78, symSize: 0x2C }
  - { offset: 0xF680C, size: 0x8, addend: 0x0, symName: '__ZN98_$LT$alloc..vec..Vec$LT$T$GT$$u20$as$u20$alloc..vec..spec_from_iter..SpecFromIter$LT$T$C$I$GT$$GT$9from_iter17h42ec14059c5c3fbcE', symObjAddr: 0x4D3C, symBinAddr: 0x66AA4, symSize: 0x2C }
  - { offset: 0xF684A, size: 0x8, addend: 0x0, symName: '__ZN98_$LT$alloc..vec..Vec$LT$T$GT$$u20$as$u20$alloc..vec..spec_from_iter..SpecFromIter$LT$T$C$I$GT$$GT$9from_iter17h4d5c992835d5ab24E', symObjAddr: 0x4D68, symBinAddr: 0x66AD0, symSize: 0x2C }
  - { offset: 0xF6888, size: 0x8, addend: 0x0, symName: '__ZN98_$LT$alloc..vec..Vec$LT$T$GT$$u20$as$u20$alloc..vec..spec_from_iter..SpecFromIter$LT$T$C$I$GT$$GT$9from_iter17h5b57fa991dab4db4E', symObjAddr: 0x4D94, symBinAddr: 0x66AFC, symSize: 0x14 }
  - { offset: 0xF68C7, size: 0x8, addend: 0x0, symName: '__ZN98_$LT$alloc..vec..Vec$LT$T$GT$$u20$as$u20$alloc..vec..spec_from_iter..SpecFromIter$LT$T$C$I$GT$$GT$9from_iter17h6a4c0332ca1871caE', symObjAddr: 0x4DA8, symBinAddr: 0x66B10, symSize: 0x2C }
  - { offset: 0xF6905, size: 0x8, addend: 0x0, symName: '__ZN98_$LT$alloc..vec..Vec$LT$T$GT$$u20$as$u20$alloc..vec..spec_from_iter..SpecFromIter$LT$T$C$I$GT$$GT$9from_iter17h70a8fd52617efaa3E', symObjAddr: 0x4DD4, symBinAddr: 0x66B3C, symSize: 0x2C }
  - { offset: 0xF6943, size: 0x8, addend: 0x0, symName: '__ZN98_$LT$alloc..vec..Vec$LT$T$GT$$u20$as$u20$alloc..vec..spec_from_iter..SpecFromIter$LT$T$C$I$GT$$GT$9from_iter17h81e038de28f02858E', symObjAddr: 0x4E00, symBinAddr: 0x66B68, symSize: 0x2C }
  - { offset: 0xF6981, size: 0x8, addend: 0x0, symName: '__ZN98_$LT$alloc..vec..Vec$LT$T$GT$$u20$as$u20$alloc..vec..spec_from_iter..SpecFromIter$LT$T$C$I$GT$$GT$9from_iter17h83921ecc6d9181afE', symObjAddr: 0x4E2C, symBinAddr: 0x66B94, symSize: 0x14 }
  - { offset: 0xF69C0, size: 0x8, addend: 0x0, symName: '__ZN98_$LT$alloc..vec..Vec$LT$T$GT$$u20$as$u20$alloc..vec..spec_from_iter..SpecFromIter$LT$T$C$I$GT$$GT$9from_iter17ha1e4b7d19d006c11E', symObjAddr: 0x4E40, symBinAddr: 0x66BA8, symSize: 0x14 }
  - { offset: 0xF69FF, size: 0x8, addend: 0x0, symName: '__ZN98_$LT$alloc..vec..Vec$LT$T$GT$$u20$as$u20$alloc..vec..spec_from_iter..SpecFromIter$LT$T$C$I$GT$$GT$9from_iter17hd58921a1fbf88f51E', symObjAddr: 0x4E54, symBinAddr: 0x66BBC, symSize: 0x2C }
  - { offset: 0xF6A3D, size: 0x8, addend: 0x0, symName: '__ZN98_$LT$alloc..vec..Vec$LT$T$GT$$u20$as$u20$alloc..vec..spec_from_iter..SpecFromIter$LT$T$C$I$GT$$GT$9from_iter17he06810e50291b5a0E', symObjAddr: 0x4E80, symBinAddr: 0x66BE8, symSize: 0x14 }
  - { offset: 0xF6A7C, size: 0x8, addend: 0x0, symName: '__ZN98_$LT$alloc..vec..Vec$LT$T$GT$$u20$as$u20$alloc..vec..spec_from_iter..SpecFromIter$LT$T$C$I$GT$$GT$9from_iter17heb2b88a973254a57E', symObjAddr: 0x4E94, symBinAddr: 0x66BFC, symSize: 0x2C }
  - { offset: 0xF7BD4, size: 0x8, addend: 0x0, symName: '__ZN5alloc5slice99_$LT$impl$u20$core..slice..sort..stable..BufGuard$LT$T$GT$$u20$for$u20$alloc..vec..Vec$LT$T$GT$$GT$13with_capacity17h32cb69244d31d0a2E', symObjAddr: 0x3E48, symBinAddr: 0x65BB0, symSize: 0x44 }
  - { offset: 0xF7C75, size: 0x8, addend: 0x0, symName: '__ZN5alloc5slice99_$LT$impl$u20$core..slice..sort..stable..BufGuard$LT$T$GT$$u20$for$u20$alloc..vec..Vec$LT$T$GT$$GT$13with_capacity17h4d7ae7ed38307c3aE', symObjAddr: 0x3E8C, symBinAddr: 0x65BF4, symSize: 0x44 }
  - { offset: 0xF7D16, size: 0x8, addend: 0x0, symName: '__ZN5alloc5slice99_$LT$impl$u20$core..slice..sort..stable..BufGuard$LT$T$GT$$u20$for$u20$alloc..vec..Vec$LT$T$GT$$GT$19as_uninit_slice_mut17h2732864f83c14d13E', symObjAddr: 0x3ED0, symBinAddr: 0x65C38, symSize: 0xC8 }
  - { offset: 0xF7E6D, size: 0x8, addend: 0x0, symName: '__ZN5alloc5slice99_$LT$impl$u20$core..slice..sort..stable..BufGuard$LT$T$GT$$u20$for$u20$alloc..vec..Vec$LT$T$GT$$GT$19as_uninit_slice_mut17h7ea093cde599b6a7E', symObjAddr: 0x3F98, symBinAddr: 0x65D00, symSize: 0xC4 }
  - { offset: 0xF8C5A, size: 0x8, addend: 0x0, symName: __ZN4pyo310conversion15IntoPyObjectExt17into_bound_py_any17h6007291ff24465d8E, symObjAddr: 0x14FC, symBinAddr: 0x63264, symSize: 0xE0 }
  - { offset: 0xF8CED, size: 0x8, addend: 0x0, symName: __ZN4pyo310conversion15IntoPyObjectExt17into_bound_py_any17hb24d1ded8487ccbbE, symObjAddr: 0x15DC, symBinAddr: 0x63344, symSize: 0xE0 }
  - { offset: 0xF8D86, size: 0x8, addend: 0x0, symName: '__ZN57_$LT$T$u20$as$u20$pyo3..conversion..FromPyObjectBound$GT$20from_py_object_bound17h27f7a13a2bf4b8aeE', symObjAddr: 0x1874, symBinAddr: 0x635DC, symSize: 0x34 }
  - { offset: 0xF8DBD, size: 0x8, addend: 0x0, symName: '__ZN57_$LT$T$u20$as$u20$pyo3..conversion..FromPyObjectBound$GT$20from_py_object_bound17h54f0b2ceec003f24E', symObjAddr: 0x18A8, symBinAddr: 0x63610, symSize: 0x34 }
  - { offset: 0xF8E0A, size: 0x8, addend: 0x0, symName: '__ZN4pyo311conversions3std3vec85_$LT$impl$u20$pyo3..conversion..IntoPyObject$u20$for$u20$alloc..vec..Vec$LT$T$GT$$GT$13into_pyobject17h193e0ddd8dfff701E', symObjAddr: 0x16BC, symBinAddr: 0x63424, symSize: 0x34 }
  - { offset: 0xF8E59, size: 0x8, addend: 0x0, symName: '__ZN4pyo311conversions3std3vec85_$LT$impl$u20$pyo3..conversion..IntoPyObject$u20$for$u20$alloc..vec..Vec$LT$T$GT$$GT$13into_pyobject17h32d03d2c8941b035E', symObjAddr: 0x16F0, symBinAddr: 0x63458, symSize: 0x34 }
  - { offset: 0xF8EAE, size: 0x8, addend: 0x0, symName: '__ZN4pyo311conversions3std3vec89_$LT$impl$u20$pyo3..conversion..IntoPyObject$u20$for$u20$$RF$alloc..vec..Vec$LT$T$GT$$GT$13into_pyobject17h1ecf8f1734f6469dE', symObjAddr: 0x1724, symBinAddr: 0x6348C, symSize: 0x40 }
  - { offset: 0xF8F0F, size: 0x8, addend: 0x0, symName: '__ZN4pyo35types8sequence85_$LT$impl$u20$pyo3..conversion..FromPyObject$u20$for$u20$alloc..vec..Vec$LT$T$GT$$GT$13extract_bound17h1280a7731e8c65a6E', symObjAddr: 0x1764, symBinAddr: 0x634CC, symSize: 0x88 }
  - { offset: 0xF8F46, size: 0x8, addend: 0x0, symName: '__ZN4pyo35types8sequence85_$LT$impl$u20$pyo3..conversion..FromPyObject$u20$for$u20$alloc..vec..Vec$LT$T$GT$$GT$13extract_bound17hac1b44ac0c67f836E', symObjAddr: 0x17EC, symBinAddr: 0x63554, symSize: 0x88 }
  - { offset: 0xF9115, size: 0x8, addend: 0x0, symName: '__ZN71_$LT$T$u20$as$u20$pyo3..impl_..extract_argument..PyFunctionArgument$GT$7extract17h280aa45213049f16E', symObjAddr: 0x40E8, symBinAddr: 0x65E50, symSize: 0x28 }
  - { offset: 0xF9154, size: 0x8, addend: 0x0, symName: '__ZN71_$LT$T$u20$as$u20$pyo3..impl_..extract_argument..PyFunctionArgument$GT$7extract17h3b4cdc599e2a4da0E', symObjAddr: 0x4110, symBinAddr: 0x65E78, symSize: 0x28 }
  - { offset: 0xF9374, size: 0x8, addend: 0x0, symName: '__ZN5alloc3vec12Vec$LT$T$GT$13with_capacity17h17385f1a55a27371E', symObjAddr: 0x18DC, symBinAddr: 0x63644, symSize: 0x44 }
  - { offset: 0xF944E, size: 0x8, addend: 0x0, symName: '__ZN5alloc3vec12Vec$LT$T$GT$13with_capacity17h6e9512bc15a42f1dE', symObjAddr: 0x1920, symBinAddr: 0x63688, symSize: 0x40 }
  - { offset: 0xF9546, size: 0x8, addend: 0x0, symName: '__ZN5alloc3vec12Vec$LT$T$GT$13with_capacity17h90c43832b553154aE', symObjAddr: 0x1960, symBinAddr: 0x636C8, symSize: 0x44 }
  - { offset: 0xF963E, size: 0x8, addend: 0x0, symName: '__ZN5alloc3vec12Vec$LT$T$GT$13with_capacity17hb66042f8cf3a7753E', symObjAddr: 0x19A4, symBinAddr: 0x6370C, symSize: 0x44 }
  - { offset: 0xF9709, size: 0x8, addend: 0x0, symName: '__ZN5alloc3vec12Vec$LT$T$GT$3new17h1117ce649ee0e584E', symObjAddr: 0x19E8, symBinAddr: 0x63750, symSize: 0x14 }
  - { offset: 0xF9726, size: 0x8, addend: 0x0, symName: '__ZN5alloc3vec12Vec$LT$T$GT$3new17h848087b2a61e5d70E', symObjAddr: 0x19FC, symBinAddr: 0x63764, symSize: 0x14 }
  - { offset: 0xF9743, size: 0x8, addend: 0x0, symName: '__ZN5alloc3vec12Vec$LT$T$GT$3new17hd049c85294096e1cE', symObjAddr: 0x1A10, symBinAddr: 0x63778, symSize: 0x14 }
  - { offset: 0xF9807, size: 0x8, addend: 0x0, symName: '__ZN5alloc3vec16Vec$LT$T$C$A$GT$12as_mut_slice17h6d52037962a5b98fE', symObjAddr: 0x1A24, symBinAddr: 0x6378C, symSize: 0x6C }
  - { offset: 0xF99B1, size: 0x8, addend: 0x0, symName: '__ZN5alloc3vec16Vec$LT$T$C$A$GT$12as_mut_slice17h700af7245d480a22E', symObjAddr: 0x1A90, symBinAddr: 0x637F8, symSize: 0x6C }
  - { offset: 0xF9B2C, size: 0x8, addend: 0x0, symName: '__ZN5alloc3vec16Vec$LT$T$C$A$GT$14extend_trusted17h0c0ff9401c164dfdE', symObjAddr: 0x1AFC, symBinAddr: 0x63864, symSize: 0x124 }
